
HSE_Sensor_V09.elf:     file format elf32-littlearm

Sections:
Idx Name          Size      VMA       LMA       File off  Algn
  0 .isr_vector   0000018c  08000000  08000000  00001000  2**0
                  CONTENTS, ALLOC, LOAD, READONLY, DATA
  1 .text         00006a54  08000190  08000190  00001190  2**3
                  CONTENTS, ALLOC, LOAD, READONLY, CODE
  2 .rodata       00000050  08006be4  08006be4  00007be4  2**2
                  CONTENTS, ALLOC, LOAD, READONLY, DATA
  3 .ARM.extab    00000000  08006c34  08006c34  0000800c  2**0
                  CONTENTS, READONLY
  4 .ARM          00000008  08006c34  08006c34  00007c34  2**2
                  CONTENTS, ALLOC, LOAD, READONLY, DATA
  5 .preinit_array 00000000  08006c3c  08006c3c  0000800c  2**0
                  CONTENTS, ALLOC, LOAD, DATA
  6 .init_array   00000004  08006c3c  08006c3c  00007c3c  2**2
                  CONTENTS, ALLOC, LOAD, READONLY, DATA
  7 .fini_array   00000004  08006c40  08006c40  00007c40  2**2
                  CONTENTS, ALLOC, LOAD, READONLY, DATA
  8 .data         0000000c  20000000  08006c44  00008000  2**2
                  CONTENTS, ALLOC, LOAD, DATA
  9 .bss          000008ac  2000000c  08006c50  0000800c  2**2
                  ALLOC
 10 ._user_heap_stack 00000600  200008b8  08006c50  000088b8  2**0
                  ALLOC
 11 .ARM.attributes 00000030  00000000  00000000  0000800c  2**0
                  CONTENTS, READONLY
 12 .comment      00000043  00000000  00000000  0000803c  2**0
                  CONTENTS, READONLY
 13 .debug_frame  000001f4  00000000  00000000  00008080  2**2
                  CONTENTS, READONLY, DEBUGGING, OCTETS

Disassembly of section .text:

08000190 <__do_global_dtors_aux>:
 8000190:	b510      	push	{r4, lr}
 8000192:	4c05      	ldr	r4, [pc, #20]	@ (80001a8 <__do_global_dtors_aux+0x18>)
 8000194:	7823      	ldrb	r3, [r4, #0]
 8000196:	b933      	cbnz	r3, 80001a6 <__do_global_dtors_aux+0x16>
 8000198:	4b04      	ldr	r3, [pc, #16]	@ (80001ac <__do_global_dtors_aux+0x1c>)
 800019a:	b113      	cbz	r3, 80001a2 <__do_global_dtors_aux+0x12>
 800019c:	4804      	ldr	r0, [pc, #16]	@ (80001b0 <__do_global_dtors_aux+0x20>)
 800019e:	f3af 8000 	nop.w
 80001a2:	2301      	movs	r3, #1
 80001a4:	7023      	strb	r3, [r4, #0]
 80001a6:	bd10      	pop	{r4, pc}
 80001a8:	2000000c 	.word	0x2000000c
 80001ac:	00000000 	.word	0x00000000
 80001b0:	08006bcc 	.word	0x08006bcc

080001b4 <frame_dummy>:
 80001b4:	b508      	push	{r3, lr}
 80001b6:	4b03      	ldr	r3, [pc, #12]	@ (80001c4 <frame_dummy+0x10>)
 80001b8:	b11b      	cbz	r3, 80001c2 <frame_dummy+0xe>
 80001ba:	4903      	ldr	r1, [pc, #12]	@ (80001c8 <frame_dummy+0x14>)
 80001bc:	4803      	ldr	r0, [pc, #12]	@ (80001cc <frame_dummy+0x18>)
 80001be:	f3af 8000 	nop.w
 80001c2:	bd08      	pop	{r3, pc}
 80001c4:	00000000 	.word	0x00000000
 80001c8:	20000010 	.word	0x20000010
 80001cc:	08006bcc 	.word	0x08006bcc

080001d0 <__aeabi_drsub>:
 80001d0:	f081 4100 	eor.w	r1, r1, #2147483648	@ 0x80000000
 80001d4:	e002      	b.n	80001dc <__adddf3>
 80001d6:	bf00      	nop

080001d8 <__aeabi_dsub>:
 80001d8:	f083 4300 	eor.w	r3, r3, #2147483648	@ 0x80000000

080001dc <__adddf3>:
 80001dc:	b530      	push	{r4, r5, lr}
 80001de:	ea4f 0441 	mov.w	r4, r1, lsl #1
 80001e2:	ea4f 0543 	mov.w	r5, r3, lsl #1
 80001e6:	ea94 0f05 	teq	r4, r5
 80001ea:	bf08      	it	eq
 80001ec:	ea90 0f02 	teqeq	r0, r2
 80001f0:	bf1f      	itttt	ne
 80001f2:	ea54 0c00 	orrsne.w	ip, r4, r0
 80001f6:	ea55 0c02 	orrsne.w	ip, r5, r2
 80001fa:	ea7f 5c64 	mvnsne.w	ip, r4, asr #21
 80001fe:	ea7f 5c65 	mvnsne.w	ip, r5, asr #21
 8000202:	f000 80e2 	beq.w	80003ca <__adddf3+0x1ee>
 8000206:	ea4f 5454 	mov.w	r4, r4, lsr #21
 800020a:	ebd4 5555 	rsbs	r5, r4, r5, lsr #21
 800020e:	bfb8      	it	lt
 8000210:	426d      	neglt	r5, r5
 8000212:	dd0c      	ble.n	800022e <__adddf3+0x52>
 8000214:	442c      	add	r4, r5
 8000216:	ea80 0202 	eor.w	r2, r0, r2
 800021a:	ea81 0303 	eor.w	r3, r1, r3
 800021e:	ea82 0000 	eor.w	r0, r2, r0
 8000222:	ea83 0101 	eor.w	r1, r3, r1
 8000226:	ea80 0202 	eor.w	r2, r0, r2
 800022a:	ea81 0303 	eor.w	r3, r1, r3
 800022e:	2d36      	cmp	r5, #54	@ 0x36
 8000230:	bf88      	it	hi
 8000232:	bd30      	pophi	{r4, r5, pc}
 8000234:	f011 4f00 	tst.w	r1, #2147483648	@ 0x80000000
 8000238:	ea4f 3101 	mov.w	r1, r1, lsl #12
 800023c:	f44f 1c80 	mov.w	ip, #1048576	@ 0x100000
 8000240:	ea4c 3111 	orr.w	r1, ip, r1, lsr #12
 8000244:	d002      	beq.n	800024c <__adddf3+0x70>
 8000246:	4240      	negs	r0, r0
 8000248:	eb61 0141 	sbc.w	r1, r1, r1, lsl #1
 800024c:	f013 4f00 	tst.w	r3, #2147483648	@ 0x80000000
 8000250:	ea4f 3303 	mov.w	r3, r3, lsl #12
 8000254:	ea4c 3313 	orr.w	r3, ip, r3, lsr #12
 8000258:	d002      	beq.n	8000260 <__adddf3+0x84>
 800025a:	4252      	negs	r2, r2
 800025c:	eb63 0343 	sbc.w	r3, r3, r3, lsl #1
 8000260:	ea94 0f05 	teq	r4, r5
 8000264:	f000 80a7 	beq.w	80003b6 <__adddf3+0x1da>
 8000268:	f1a4 0401 	sub.w	r4, r4, #1
 800026c:	f1d5 0e20 	rsbs	lr, r5, #32
 8000270:	db0d      	blt.n	800028e <__adddf3+0xb2>
 8000272:	fa02 fc0e 	lsl.w	ip, r2, lr
 8000276:	fa22 f205 	lsr.w	r2, r2, r5
 800027a:	1880      	adds	r0, r0, r2
 800027c:	f141 0100 	adc.w	r1, r1, #0
 8000280:	fa03 f20e 	lsl.w	r2, r3, lr
 8000284:	1880      	adds	r0, r0, r2
 8000286:	fa43 f305 	asr.w	r3, r3, r5
 800028a:	4159      	adcs	r1, r3
 800028c:	e00e      	b.n	80002ac <__adddf3+0xd0>
 800028e:	f1a5 0520 	sub.w	r5, r5, #32
 8000292:	f10e 0e20 	add.w	lr, lr, #32
 8000296:	2a01      	cmp	r2, #1
 8000298:	fa03 fc0e 	lsl.w	ip, r3, lr
 800029c:	bf28      	it	cs
 800029e:	f04c 0c02 	orrcs.w	ip, ip, #2
 80002a2:	fa43 f305 	asr.w	r3, r3, r5
 80002a6:	18c0      	adds	r0, r0, r3
 80002a8:	eb51 71e3 	adcs.w	r1, r1, r3, asr #31
 80002ac:	f001 4500 	and.w	r5, r1, #2147483648	@ 0x80000000
 80002b0:	d507      	bpl.n	80002c2 <__adddf3+0xe6>
 80002b2:	f04f 0e00 	mov.w	lr, #0
 80002b6:	f1dc 0c00 	rsbs	ip, ip, #0
 80002ba:	eb7e 0000 	sbcs.w	r0, lr, r0
 80002be:	eb6e 0101 	sbc.w	r1, lr, r1
 80002c2:	f5b1 1f80 	cmp.w	r1, #1048576	@ 0x100000
 80002c6:	d31b      	bcc.n	8000300 <__adddf3+0x124>
 80002c8:	f5b1 1f00 	cmp.w	r1, #2097152	@ 0x200000
 80002cc:	d30c      	bcc.n	80002e8 <__adddf3+0x10c>
 80002ce:	0849      	lsrs	r1, r1, #1
 80002d0:	ea5f 0030 	movs.w	r0, r0, rrx
 80002d4:	ea4f 0c3c 	mov.w	ip, ip, rrx
 80002d8:	f104 0401 	add.w	r4, r4, #1
 80002dc:	ea4f 5244 	mov.w	r2, r4, lsl #21
 80002e0:	f512 0f80 	cmn.w	r2, #4194304	@ 0x400000
 80002e4:	f080 809a 	bcs.w	800041c <__adddf3+0x240>
 80002e8:	f1bc 4f00 	cmp.w	ip, #2147483648	@ 0x80000000
 80002ec:	bf08      	it	eq
 80002ee:	ea5f 0c50 	movseq.w	ip, r0, lsr #1
 80002f2:	f150 0000 	adcs.w	r0, r0, #0
 80002f6:	eb41 5104 	adc.w	r1, r1, r4, lsl #20
 80002fa:	ea41 0105 	orr.w	r1, r1, r5
 80002fe:	bd30      	pop	{r4, r5, pc}
 8000300:	ea5f 0c4c 	movs.w	ip, ip, lsl #1
 8000304:	4140      	adcs	r0, r0
 8000306:	eb41 0101 	adc.w	r1, r1, r1
 800030a:	3c01      	subs	r4, #1
 800030c:	bf28      	it	cs
 800030e:	f5b1 1f80 	cmpcs.w	r1, #1048576	@ 0x100000
 8000312:	d2e9      	bcs.n	80002e8 <__adddf3+0x10c>
 8000314:	f091 0f00 	teq	r1, #0
 8000318:	bf04      	itt	eq
 800031a:	4601      	moveq	r1, r0
 800031c:	2000      	moveq	r0, #0
 800031e:	fab1 f381 	clz	r3, r1
 8000322:	bf08      	it	eq
 8000324:	3320      	addeq	r3, #32
 8000326:	f1a3 030b 	sub.w	r3, r3, #11
 800032a:	f1b3 0220 	subs.w	r2, r3, #32
 800032e:	da0c      	bge.n	800034a <__adddf3+0x16e>
 8000330:	320c      	adds	r2, #12
 8000332:	dd08      	ble.n	8000346 <__adddf3+0x16a>
 8000334:	f102 0c14 	add.w	ip, r2, #20
 8000338:	f1c2 020c 	rsb	r2, r2, #12
 800033c:	fa01 f00c 	lsl.w	r0, r1, ip
 8000340:	fa21 f102 	lsr.w	r1, r1, r2
 8000344:	e00c      	b.n	8000360 <__adddf3+0x184>
 8000346:	f102 0214 	add.w	r2, r2, #20
 800034a:	bfd8      	it	le
 800034c:	f1c2 0c20 	rsble	ip, r2, #32
 8000350:	fa01 f102 	lsl.w	r1, r1, r2
 8000354:	fa20 fc0c 	lsr.w	ip, r0, ip
 8000358:	bfdc      	itt	le
 800035a:	ea41 010c 	orrle.w	r1, r1, ip
 800035e:	4090      	lslle	r0, r2
 8000360:	1ae4      	subs	r4, r4, r3
 8000362:	bfa2      	ittt	ge
 8000364:	eb01 5104 	addge.w	r1, r1, r4, lsl #20
 8000368:	4329      	orrge	r1, r5
 800036a:	bd30      	popge	{r4, r5, pc}
 800036c:	ea6f 0404 	mvn.w	r4, r4
 8000370:	3c1f      	subs	r4, #31
 8000372:	da1c      	bge.n	80003ae <__adddf3+0x1d2>
 8000374:	340c      	adds	r4, #12
 8000376:	dc0e      	bgt.n	8000396 <__adddf3+0x1ba>
 8000378:	f104 0414 	add.w	r4, r4, #20
 800037c:	f1c4 0220 	rsb	r2, r4, #32
 8000380:	fa20 f004 	lsr.w	r0, r0, r4
 8000384:	fa01 f302 	lsl.w	r3, r1, r2
 8000388:	ea40 0003 	orr.w	r0, r0, r3
 800038c:	fa21 f304 	lsr.w	r3, r1, r4
 8000390:	ea45 0103 	orr.w	r1, r5, r3
 8000394:	bd30      	pop	{r4, r5, pc}
 8000396:	f1c4 040c 	rsb	r4, r4, #12
 800039a:	f1c4 0220 	rsb	r2, r4, #32
 800039e:	fa20 f002 	lsr.w	r0, r0, r2
 80003a2:	fa01 f304 	lsl.w	r3, r1, r4
 80003a6:	ea40 0003 	orr.w	r0, r0, r3
 80003aa:	4629      	mov	r1, r5
 80003ac:	bd30      	pop	{r4, r5, pc}
 80003ae:	fa21 f004 	lsr.w	r0, r1, r4
 80003b2:	4629      	mov	r1, r5
 80003b4:	bd30      	pop	{r4, r5, pc}
 80003b6:	f094 0f00 	teq	r4, #0
 80003ba:	f483 1380 	eor.w	r3, r3, #1048576	@ 0x100000
 80003be:	bf06      	itte	eq
 80003c0:	f481 1180 	eoreq.w	r1, r1, #1048576	@ 0x100000
 80003c4:	3401      	addeq	r4, #1
 80003c6:	3d01      	subne	r5, #1
 80003c8:	e74e      	b.n	8000268 <__adddf3+0x8c>
 80003ca:	ea7f 5c64 	mvns.w	ip, r4, asr #21
 80003ce:	bf18      	it	ne
 80003d0:	ea7f 5c65 	mvnsne.w	ip, r5, asr #21
 80003d4:	d029      	beq.n	800042a <__adddf3+0x24e>
 80003d6:	ea94 0f05 	teq	r4, r5
 80003da:	bf08      	it	eq
 80003dc:	ea90 0f02 	teqeq	r0, r2
 80003e0:	d005      	beq.n	80003ee <__adddf3+0x212>
 80003e2:	ea54 0c00 	orrs.w	ip, r4, r0
 80003e6:	bf04      	itt	eq
 80003e8:	4619      	moveq	r1, r3
 80003ea:	4610      	moveq	r0, r2
 80003ec:	bd30      	pop	{r4, r5, pc}
 80003ee:	ea91 0f03 	teq	r1, r3
 80003f2:	bf1e      	ittt	ne
 80003f4:	2100      	movne	r1, #0
 80003f6:	2000      	movne	r0, #0
 80003f8:	bd30      	popne	{r4, r5, pc}
 80003fa:	ea5f 5c54 	movs.w	ip, r4, lsr #21
 80003fe:	d105      	bne.n	800040c <__adddf3+0x230>
 8000400:	0040      	lsls	r0, r0, #1
 8000402:	4149      	adcs	r1, r1
 8000404:	bf28      	it	cs
 8000406:	f041 4100 	orrcs.w	r1, r1, #2147483648	@ 0x80000000
 800040a:	bd30      	pop	{r4, r5, pc}
 800040c:	f514 0480 	adds.w	r4, r4, #4194304	@ 0x400000
 8000410:	bf3c      	itt	cc
 8000412:	f501 1180 	addcc.w	r1, r1, #1048576	@ 0x100000
 8000416:	bd30      	popcc	{r4, r5, pc}
 8000418:	f001 4500 	and.w	r5, r1, #2147483648	@ 0x80000000
 800041c:	f045 41fe 	orr.w	r1, r5, #2130706432	@ 0x7f000000
 8000420:	f441 0170 	orr.w	r1, r1, #15728640	@ 0xf00000
 8000424:	f04f 0000 	mov.w	r0, #0
 8000428:	bd30      	pop	{r4, r5, pc}
 800042a:	ea7f 5c64 	mvns.w	ip, r4, asr #21
 800042e:	bf1a      	itte	ne
 8000430:	4619      	movne	r1, r3
 8000432:	4610      	movne	r0, r2
 8000434:	ea7f 5c65 	mvnseq.w	ip, r5, asr #21
 8000438:	bf1c      	itt	ne
 800043a:	460b      	movne	r3, r1
 800043c:	4602      	movne	r2, r0
 800043e:	ea50 3401 	orrs.w	r4, r0, r1, lsl #12
 8000442:	bf06      	itte	eq
 8000444:	ea52 3503 	orrseq.w	r5, r2, r3, lsl #12
 8000448:	ea91 0f03 	teqeq	r1, r3
 800044c:	f441 2100 	orrne.w	r1, r1, #524288	@ 0x80000
 8000450:	bd30      	pop	{r4, r5, pc}
 8000452:	bf00      	nop

08000454 <__aeabi_ui2d>:
 8000454:	f090 0f00 	teq	r0, #0
 8000458:	bf04      	itt	eq
 800045a:	2100      	moveq	r1, #0
 800045c:	4770      	bxeq	lr
 800045e:	b530      	push	{r4, r5, lr}
 8000460:	f44f 6480 	mov.w	r4, #1024	@ 0x400
 8000464:	f104 0432 	add.w	r4, r4, #50	@ 0x32
 8000468:	f04f 0500 	mov.w	r5, #0
 800046c:	f04f 0100 	mov.w	r1, #0
 8000470:	e750      	b.n	8000314 <__adddf3+0x138>
 8000472:	bf00      	nop

08000474 <__aeabi_i2d>:
 8000474:	f090 0f00 	teq	r0, #0
 8000478:	bf04      	itt	eq
 800047a:	2100      	moveq	r1, #0
 800047c:	4770      	bxeq	lr
 800047e:	b530      	push	{r4, r5, lr}
 8000480:	f44f 6480 	mov.w	r4, #1024	@ 0x400
 8000484:	f104 0432 	add.w	r4, r4, #50	@ 0x32
 8000488:	f010 4500 	ands.w	r5, r0, #2147483648	@ 0x80000000
 800048c:	bf48      	it	mi
 800048e:	4240      	negmi	r0, r0
 8000490:	f04f 0100 	mov.w	r1, #0
 8000494:	e73e      	b.n	8000314 <__adddf3+0x138>
 8000496:	bf00      	nop

08000498 <__aeabi_f2d>:
 8000498:	0042      	lsls	r2, r0, #1
 800049a:	ea4f 01e2 	mov.w	r1, r2, asr #3
 800049e:	ea4f 0131 	mov.w	r1, r1, rrx
 80004a2:	ea4f 7002 	mov.w	r0, r2, lsl #28
 80004a6:	bf1f      	itttt	ne
 80004a8:	f012 437f 	andsne.w	r3, r2, #4278190080	@ 0xff000000
 80004ac:	f093 4f7f 	teqne	r3, #4278190080	@ 0xff000000
 80004b0:	f081 5160 	eorne.w	r1, r1, #939524096	@ 0x38000000
 80004b4:	4770      	bxne	lr
 80004b6:	f032 427f 	bics.w	r2, r2, #4278190080	@ 0xff000000
 80004ba:	bf08      	it	eq
 80004bc:	4770      	bxeq	lr
 80004be:	f093 4f7f 	teq	r3, #4278190080	@ 0xff000000
 80004c2:	bf04      	itt	eq
 80004c4:	f441 2100 	orreq.w	r1, r1, #524288	@ 0x80000
 80004c8:	4770      	bxeq	lr
 80004ca:	b530      	push	{r4, r5, lr}
 80004cc:	f44f 7460 	mov.w	r4, #896	@ 0x380
 80004d0:	f001 4500 	and.w	r5, r1, #2147483648	@ 0x80000000
 80004d4:	f021 4100 	bic.w	r1, r1, #2147483648	@ 0x80000000
 80004d8:	e71c      	b.n	8000314 <__adddf3+0x138>
 80004da:	bf00      	nop

080004dc <__aeabi_ul2d>:
 80004dc:	ea50 0201 	orrs.w	r2, r0, r1
 80004e0:	bf08      	it	eq
 80004e2:	4770      	bxeq	lr
 80004e4:	b530      	push	{r4, r5, lr}
 80004e6:	f04f 0500 	mov.w	r5, #0
 80004ea:	e00a      	b.n	8000502 <__aeabi_l2d+0x16>

080004ec <__aeabi_l2d>:
 80004ec:	ea50 0201 	orrs.w	r2, r0, r1
 80004f0:	bf08      	it	eq
 80004f2:	4770      	bxeq	lr
 80004f4:	b530      	push	{r4, r5, lr}
 80004f6:	f011 4500 	ands.w	r5, r1, #2147483648	@ 0x80000000
 80004fa:	d502      	bpl.n	8000502 <__aeabi_l2d+0x16>
 80004fc:	4240      	negs	r0, r0
 80004fe:	eb61 0141 	sbc.w	r1, r1, r1, lsl #1
 8000502:	f44f 6480 	mov.w	r4, #1024	@ 0x400
 8000506:	f104 0432 	add.w	r4, r4, #50	@ 0x32
 800050a:	ea5f 5c91 	movs.w	ip, r1, lsr #22
 800050e:	f43f aed8 	beq.w	80002c2 <__adddf3+0xe6>
 8000512:	f04f 0203 	mov.w	r2, #3
 8000516:	ea5f 0cdc 	movs.w	ip, ip, lsr #3
 800051a:	bf18      	it	ne
 800051c:	3203      	addne	r2, #3
 800051e:	ea5f 0cdc 	movs.w	ip, ip, lsr #3
 8000522:	bf18      	it	ne
 8000524:	3203      	addne	r2, #3
 8000526:	eb02 02dc 	add.w	r2, r2, ip, lsr #3
 800052a:	f1c2 0320 	rsb	r3, r2, #32
 800052e:	fa00 fc03 	lsl.w	ip, r0, r3
 8000532:	fa20 f002 	lsr.w	r0, r0, r2
 8000536:	fa01 fe03 	lsl.w	lr, r1, r3
 800053a:	ea40 000e 	orr.w	r0, r0, lr
 800053e:	fa21 f102 	lsr.w	r1, r1, r2
 8000542:	4414      	add	r4, r2
 8000544:	e6bd      	b.n	80002c2 <__adddf3+0xe6>
 8000546:	bf00      	nop

08000548 <__aeabi_dmul>:
 8000548:	b570      	push	{r4, r5, r6, lr}
 800054a:	f04f 0cff 	mov.w	ip, #255	@ 0xff
 800054e:	f44c 6ce0 	orr.w	ip, ip, #1792	@ 0x700
 8000552:	ea1c 5411 	ands.w	r4, ip, r1, lsr #20
 8000556:	bf1d      	ittte	ne
 8000558:	ea1c 5513 	andsne.w	r5, ip, r3, lsr #20
 800055c:	ea94 0f0c 	teqne	r4, ip
 8000560:	ea95 0f0c 	teqne	r5, ip
 8000564:	f000 f8de 	bleq	8000724 <__aeabi_dmul+0x1dc>
 8000568:	442c      	add	r4, r5
 800056a:	ea81 0603 	eor.w	r6, r1, r3
 800056e:	ea21 514c 	bic.w	r1, r1, ip, lsl #21
 8000572:	ea23 534c 	bic.w	r3, r3, ip, lsl #21
 8000576:	ea50 3501 	orrs.w	r5, r0, r1, lsl #12
 800057a:	bf18      	it	ne
 800057c:	ea52 3503 	orrsne.w	r5, r2, r3, lsl #12
 8000580:	f441 1180 	orr.w	r1, r1, #1048576	@ 0x100000
 8000584:	f443 1380 	orr.w	r3, r3, #1048576	@ 0x100000
 8000588:	d038      	beq.n	80005fc <__aeabi_dmul+0xb4>
 800058a:	fba0 ce02 	umull	ip, lr, r0, r2
 800058e:	f04f 0500 	mov.w	r5, #0
 8000592:	fbe1 e502 	umlal	lr, r5, r1, r2
 8000596:	f006 4200 	and.w	r2, r6, #2147483648	@ 0x80000000
 800059a:	fbe0 e503 	umlal	lr, r5, r0, r3
 800059e:	f04f 0600 	mov.w	r6, #0
 80005a2:	fbe1 5603 	umlal	r5, r6, r1, r3
 80005a6:	f09c 0f00 	teq	ip, #0
 80005aa:	bf18      	it	ne
 80005ac:	f04e 0e01 	orrne.w	lr, lr, #1
 80005b0:	f1a4 04ff 	sub.w	r4, r4, #255	@ 0xff
 80005b4:	f5b6 7f00 	cmp.w	r6, #512	@ 0x200
 80005b8:	f564 7440 	sbc.w	r4, r4, #768	@ 0x300
 80005bc:	d204      	bcs.n	80005c8 <__aeabi_dmul+0x80>
 80005be:	ea5f 0e4e 	movs.w	lr, lr, lsl #1
 80005c2:	416d      	adcs	r5, r5
 80005c4:	eb46 0606 	adc.w	r6, r6, r6
 80005c8:	ea42 21c6 	orr.w	r1, r2, r6, lsl #11
 80005cc:	ea41 5155 	orr.w	r1, r1, r5, lsr #21
 80005d0:	ea4f 20c5 	mov.w	r0, r5, lsl #11
 80005d4:	ea40 505e 	orr.w	r0, r0, lr, lsr #21
 80005d8:	ea4f 2ece 	mov.w	lr, lr, lsl #11
 80005dc:	f1b4 0cfd 	subs.w	ip, r4, #253	@ 0xfd
 80005e0:	bf88      	it	hi
 80005e2:	f5bc 6fe0 	cmphi.w	ip, #1792	@ 0x700
 80005e6:	d81e      	bhi.n	8000626 <__aeabi_dmul+0xde>
 80005e8:	f1be 4f00 	cmp.w	lr, #2147483648	@ 0x80000000
 80005ec:	bf08      	it	eq
 80005ee:	ea5f 0e50 	movseq.w	lr, r0, lsr #1
 80005f2:	f150 0000 	adcs.w	r0, r0, #0
 80005f6:	eb41 5104 	adc.w	r1, r1, r4, lsl #20
 80005fa:	bd70      	pop	{r4, r5, r6, pc}
 80005fc:	f006 4600 	and.w	r6, r6, #2147483648	@ 0x80000000
 8000600:	ea46 0101 	orr.w	r1, r6, r1
 8000604:	ea40 0002 	orr.w	r0, r0, r2
 8000608:	ea81 0103 	eor.w	r1, r1, r3
 800060c:	ebb4 045c 	subs.w	r4, r4, ip, lsr #1
 8000610:	bfc2      	ittt	gt
 8000612:	ebd4 050c 	rsbsgt	r5, r4, ip
 8000616:	ea41 5104 	orrgt.w	r1, r1, r4, lsl #20
 800061a:	bd70      	popgt	{r4, r5, r6, pc}
 800061c:	f441 1180 	orr.w	r1, r1, #1048576	@ 0x100000
 8000620:	f04f 0e00 	mov.w	lr, #0
 8000624:	3c01      	subs	r4, #1
 8000626:	f300 80ab 	bgt.w	8000780 <__aeabi_dmul+0x238>
 800062a:	f114 0f36 	cmn.w	r4, #54	@ 0x36
 800062e:	bfde      	ittt	le
 8000630:	2000      	movle	r0, #0
 8000632:	f001 4100 	andle.w	r1, r1, #2147483648	@ 0x80000000
 8000636:	bd70      	pople	{r4, r5, r6, pc}
 8000638:	f1c4 0400 	rsb	r4, r4, #0
 800063c:	3c20      	subs	r4, #32
 800063e:	da35      	bge.n	80006ac <__aeabi_dmul+0x164>
 8000640:	340c      	adds	r4, #12
 8000642:	dc1b      	bgt.n	800067c <__aeabi_dmul+0x134>
 8000644:	f104 0414 	add.w	r4, r4, #20
 8000648:	f1c4 0520 	rsb	r5, r4, #32
 800064c:	fa00 f305 	lsl.w	r3, r0, r5
 8000650:	fa20 f004 	lsr.w	r0, r0, r4
 8000654:	fa01 f205 	lsl.w	r2, r1, r5
 8000658:	ea40 0002 	orr.w	r0, r0, r2
 800065c:	f001 4200 	and.w	r2, r1, #2147483648	@ 0x80000000
 8000660:	f021 4100 	bic.w	r1, r1, #2147483648	@ 0x80000000
 8000664:	eb10 70d3 	adds.w	r0, r0, r3, lsr #31
 8000668:	fa21 f604 	lsr.w	r6, r1, r4
 800066c:	eb42 0106 	adc.w	r1, r2, r6
 8000670:	ea5e 0e43 	orrs.w	lr, lr, r3, lsl #1
 8000674:	bf08      	it	eq
 8000676:	ea20 70d3 	biceq.w	r0, r0, r3, lsr #31
 800067a:	bd70      	pop	{r4, r5, r6, pc}
 800067c:	f1c4 040c 	rsb	r4, r4, #12
 8000680:	f1c4 0520 	rsb	r5, r4, #32
 8000684:	fa00 f304 	lsl.w	r3, r0, r4
 8000688:	fa20 f005 	lsr.w	r0, r0, r5
 800068c:	fa01 f204 	lsl.w	r2, r1, r4
 8000690:	ea40 0002 	orr.w	r0, r0, r2
 8000694:	f001 4100 	and.w	r1, r1, #2147483648	@ 0x80000000
 8000698:	eb10 70d3 	adds.w	r0, r0, r3, lsr #31
 800069c:	f141 0100 	adc.w	r1, r1, #0
 80006a0:	ea5e 0e43 	orrs.w	lr, lr, r3, lsl #1
 80006a4:	bf08      	it	eq
 80006a6:	ea20 70d3 	biceq.w	r0, r0, r3, lsr #31
 80006aa:	bd70      	pop	{r4, r5, r6, pc}
 80006ac:	f1c4 0520 	rsb	r5, r4, #32
 80006b0:	fa00 f205 	lsl.w	r2, r0, r5
 80006b4:	ea4e 0e02 	orr.w	lr, lr, r2
 80006b8:	fa20 f304 	lsr.w	r3, r0, r4
 80006bc:	fa01 f205 	lsl.w	r2, r1, r5
 80006c0:	ea43 0302 	orr.w	r3, r3, r2
 80006c4:	fa21 f004 	lsr.w	r0, r1, r4
 80006c8:	f001 4100 	and.w	r1, r1, #2147483648	@ 0x80000000
 80006cc:	fa21 f204 	lsr.w	r2, r1, r4
 80006d0:	ea20 0002 	bic.w	r0, r0, r2
 80006d4:	eb00 70d3 	add.w	r0, r0, r3, lsr #31
 80006d8:	ea5e 0e43 	orrs.w	lr, lr, r3, lsl #1
 80006dc:	bf08      	it	eq
 80006de:	ea20 70d3 	biceq.w	r0, r0, r3, lsr #31
 80006e2:	bd70      	pop	{r4, r5, r6, pc}
 80006e4:	f094 0f00 	teq	r4, #0
 80006e8:	d10f      	bne.n	800070a <__aeabi_dmul+0x1c2>
 80006ea:	f001 4600 	and.w	r6, r1, #2147483648	@ 0x80000000
 80006ee:	0040      	lsls	r0, r0, #1
 80006f0:	eb41 0101 	adc.w	r1, r1, r1
 80006f4:	f411 1f80 	tst.w	r1, #1048576	@ 0x100000
 80006f8:	bf08      	it	eq
 80006fa:	3c01      	subeq	r4, #1
 80006fc:	d0f7      	beq.n	80006ee <__aeabi_dmul+0x1a6>
 80006fe:	ea41 0106 	orr.w	r1, r1, r6
 8000702:	f095 0f00 	teq	r5, #0
 8000706:	bf18      	it	ne
 8000708:	4770      	bxne	lr
 800070a:	f003 4600 	and.w	r6, r3, #2147483648	@ 0x80000000
 800070e:	0052      	lsls	r2, r2, #1
 8000710:	eb43 0303 	adc.w	r3, r3, r3
 8000714:	f413 1f80 	tst.w	r3, #1048576	@ 0x100000
 8000718:	bf08      	it	eq
 800071a:	3d01      	subeq	r5, #1
 800071c:	d0f7      	beq.n	800070e <__aeabi_dmul+0x1c6>
 800071e:	ea43 0306 	orr.w	r3, r3, r6
 8000722:	4770      	bx	lr
 8000724:	ea94 0f0c 	teq	r4, ip
 8000728:	ea0c 5513 	and.w	r5, ip, r3, lsr #20
 800072c:	bf18      	it	ne
 800072e:	ea95 0f0c 	teqne	r5, ip
 8000732:	d00c      	beq.n	800074e <__aeabi_dmul+0x206>
 8000734:	ea50 0641 	orrs.w	r6, r0, r1, lsl #1
 8000738:	bf18      	it	ne
 800073a:	ea52 0643 	orrsne.w	r6, r2, r3, lsl #1
 800073e:	d1d1      	bne.n	80006e4 <__aeabi_dmul+0x19c>
 8000740:	ea81 0103 	eor.w	r1, r1, r3
 8000744:	f001 4100 	and.w	r1, r1, #2147483648	@ 0x80000000
 8000748:	f04f 0000 	mov.w	r0, #0
 800074c:	bd70      	pop	{r4, r5, r6, pc}
 800074e:	ea50 0641 	orrs.w	r6, r0, r1, lsl #1
 8000752:	bf06      	itte	eq
 8000754:	4610      	moveq	r0, r2
 8000756:	4619      	moveq	r1, r3
 8000758:	ea52 0643 	orrsne.w	r6, r2, r3, lsl #1
 800075c:	d019      	beq.n	8000792 <__aeabi_dmul+0x24a>
 800075e:	ea94 0f0c 	teq	r4, ip
 8000762:	d102      	bne.n	800076a <__aeabi_dmul+0x222>
 8000764:	ea50 3601 	orrs.w	r6, r0, r1, lsl #12
 8000768:	d113      	bne.n	8000792 <__aeabi_dmul+0x24a>
 800076a:	ea95 0f0c 	teq	r5, ip
 800076e:	d105      	bne.n	800077c <__aeabi_dmul+0x234>
 8000770:	ea52 3603 	orrs.w	r6, r2, r3, lsl #12
 8000774:	bf1c      	itt	ne
 8000776:	4610      	movne	r0, r2
 8000778:	4619      	movne	r1, r3
 800077a:	d10a      	bne.n	8000792 <__aeabi_dmul+0x24a>
 800077c:	ea81 0103 	eor.w	r1, r1, r3
 8000780:	f001 4100 	and.w	r1, r1, #2147483648	@ 0x80000000
 8000784:	f041 41fe 	orr.w	r1, r1, #2130706432	@ 0x7f000000
 8000788:	f441 0170 	orr.w	r1, r1, #15728640	@ 0xf00000
 800078c:	f04f 0000 	mov.w	r0, #0
 8000790:	bd70      	pop	{r4, r5, r6, pc}
 8000792:	f041 41fe 	orr.w	r1, r1, #2130706432	@ 0x7f000000
 8000796:	f441 0178 	orr.w	r1, r1, #16252928	@ 0xf80000
 800079a:	bd70      	pop	{r4, r5, r6, pc}

0800079c <__aeabi_ddiv>:
 800079c:	b570      	push	{r4, r5, r6, lr}
 800079e:	f04f 0cff 	mov.w	ip, #255	@ 0xff
 80007a2:	f44c 6ce0 	orr.w	ip, ip, #1792	@ 0x700
 80007a6:	ea1c 5411 	ands.w	r4, ip, r1, lsr #20
 80007aa:	bf1d      	ittte	ne
 80007ac:	ea1c 5513 	andsne.w	r5, ip, r3, lsr #20
 80007b0:	ea94 0f0c 	teqne	r4, ip
 80007b4:	ea95 0f0c 	teqne	r5, ip
 80007b8:	f000 f8a7 	bleq	800090a <__aeabi_ddiv+0x16e>
 80007bc:	eba4 0405 	sub.w	r4, r4, r5
 80007c0:	ea81 0e03 	eor.w	lr, r1, r3
 80007c4:	ea52 3503 	orrs.w	r5, r2, r3, lsl #12
 80007c8:	ea4f 3101 	mov.w	r1, r1, lsl #12
 80007cc:	f000 8088 	beq.w	80008e0 <__aeabi_ddiv+0x144>
 80007d0:	ea4f 3303 	mov.w	r3, r3, lsl #12
 80007d4:	f04f 5580 	mov.w	r5, #268435456	@ 0x10000000
 80007d8:	ea45 1313 	orr.w	r3, r5, r3, lsr #4
 80007dc:	ea43 6312 	orr.w	r3, r3, r2, lsr #24
 80007e0:	ea4f 2202 	mov.w	r2, r2, lsl #8
 80007e4:	ea45 1511 	orr.w	r5, r5, r1, lsr #4
 80007e8:	ea45 6510 	orr.w	r5, r5, r0, lsr #24
 80007ec:	ea4f 2600 	mov.w	r6, r0, lsl #8
 80007f0:	f00e 4100 	and.w	r1, lr, #2147483648	@ 0x80000000
 80007f4:	429d      	cmp	r5, r3
 80007f6:	bf08      	it	eq
 80007f8:	4296      	cmpeq	r6, r2
 80007fa:	f144 04fd 	adc.w	r4, r4, #253	@ 0xfd
 80007fe:	f504 7440 	add.w	r4, r4, #768	@ 0x300
 8000802:	d202      	bcs.n	800080a <__aeabi_ddiv+0x6e>
 8000804:	085b      	lsrs	r3, r3, #1
 8000806:	ea4f 0232 	mov.w	r2, r2, rrx
 800080a:	1ab6      	subs	r6, r6, r2
 800080c:	eb65 0503 	sbc.w	r5, r5, r3
 8000810:	085b      	lsrs	r3, r3, #1
 8000812:	ea4f 0232 	mov.w	r2, r2, rrx
 8000816:	f44f 1080 	mov.w	r0, #1048576	@ 0x100000
 800081a:	f44f 2c00 	mov.w	ip, #524288	@ 0x80000
 800081e:	ebb6 0e02 	subs.w	lr, r6, r2
 8000822:	eb75 0e03 	sbcs.w	lr, r5, r3
 8000826:	bf22      	ittt	cs
 8000828:	1ab6      	subcs	r6, r6, r2
 800082a:	4675      	movcs	r5, lr
 800082c:	ea40 000c 	orrcs.w	r0, r0, ip
 8000830:	085b      	lsrs	r3, r3, #1
 8000832:	ea4f 0232 	mov.w	r2, r2, rrx
 8000836:	ebb6 0e02 	subs.w	lr, r6, r2
 800083a:	eb75 0e03 	sbcs.w	lr, r5, r3
 800083e:	bf22      	ittt	cs
 8000840:	1ab6      	subcs	r6, r6, r2
 8000842:	4675      	movcs	r5, lr
 8000844:	ea40 005c 	orrcs.w	r0, r0, ip, lsr #1
 8000848:	085b      	lsrs	r3, r3, #1
 800084a:	ea4f 0232 	mov.w	r2, r2, rrx
 800084e:	ebb6 0e02 	subs.w	lr, r6, r2
 8000852:	eb75 0e03 	sbcs.w	lr, r5, r3
 8000856:	bf22      	ittt	cs
 8000858:	1ab6      	subcs	r6, r6, r2
 800085a:	4675      	movcs	r5, lr
 800085c:	ea40 009c 	orrcs.w	r0, r0, ip, lsr #2
 8000860:	085b      	lsrs	r3, r3, #1
 8000862:	ea4f 0232 	mov.w	r2, r2, rrx
 8000866:	ebb6 0e02 	subs.w	lr, r6, r2
 800086a:	eb75 0e03 	sbcs.w	lr, r5, r3
 800086e:	bf22      	ittt	cs
 8000870:	1ab6      	subcs	r6, r6, r2
 8000872:	4675      	movcs	r5, lr
 8000874:	ea40 00dc 	orrcs.w	r0, r0, ip, lsr #3
 8000878:	ea55 0e06 	orrs.w	lr, r5, r6
 800087c:	d018      	beq.n	80008b0 <__aeabi_ddiv+0x114>
 800087e:	ea4f 1505 	mov.w	r5, r5, lsl #4
 8000882:	ea45 7516 	orr.w	r5, r5, r6, lsr #28
 8000886:	ea4f 1606 	mov.w	r6, r6, lsl #4
 800088a:	ea4f 03c3 	mov.w	r3, r3, lsl #3
 800088e:	ea43 7352 	orr.w	r3, r3, r2, lsr #29
 8000892:	ea4f 02c2 	mov.w	r2, r2, lsl #3
 8000896:	ea5f 1c1c 	movs.w	ip, ip, lsr #4
 800089a:	d1c0      	bne.n	800081e <__aeabi_ddiv+0x82>
 800089c:	f411 1f80 	tst.w	r1, #1048576	@ 0x100000
 80008a0:	d10b      	bne.n	80008ba <__aeabi_ddiv+0x11e>
 80008a2:	ea41 0100 	orr.w	r1, r1, r0
 80008a6:	f04f 0000 	mov.w	r0, #0
 80008aa:	f04f 4c00 	mov.w	ip, #2147483648	@ 0x80000000
 80008ae:	e7b6      	b.n	800081e <__aeabi_ddiv+0x82>
 80008b0:	f411 1f80 	tst.w	r1, #1048576	@ 0x100000
 80008b4:	bf04      	itt	eq
 80008b6:	4301      	orreq	r1, r0
 80008b8:	2000      	moveq	r0, #0
 80008ba:	f1b4 0cfd 	subs.w	ip, r4, #253	@ 0xfd
 80008be:	bf88      	it	hi
 80008c0:	f5bc 6fe0 	cmphi.w	ip, #1792	@ 0x700
 80008c4:	f63f aeaf 	bhi.w	8000626 <__aeabi_dmul+0xde>
 80008c8:	ebb5 0c03 	subs.w	ip, r5, r3
 80008cc:	bf04      	itt	eq
 80008ce:	ebb6 0c02 	subseq.w	ip, r6, r2
 80008d2:	ea5f 0c50 	movseq.w	ip, r0, lsr #1
 80008d6:	f150 0000 	adcs.w	r0, r0, #0
 80008da:	eb41 5104 	adc.w	r1, r1, r4, lsl #20
 80008de:	bd70      	pop	{r4, r5, r6, pc}
 80008e0:	f00e 4e00 	and.w	lr, lr, #2147483648	@ 0x80000000
 80008e4:	ea4e 3111 	orr.w	r1, lr, r1, lsr #12
 80008e8:	eb14 045c 	adds.w	r4, r4, ip, lsr #1
 80008ec:	bfc2      	ittt	gt
 80008ee:	ebd4 050c 	rsbsgt	r5, r4, ip
 80008f2:	ea41 5104 	orrgt.w	r1, r1, r4, lsl #20
 80008f6:	bd70      	popgt	{r4, r5, r6, pc}
 80008f8:	f441 1180 	orr.w	r1, r1, #1048576	@ 0x100000
 80008fc:	f04f 0e00 	mov.w	lr, #0
 8000900:	3c01      	subs	r4, #1
 8000902:	e690      	b.n	8000626 <__aeabi_dmul+0xde>
 8000904:	ea45 0e06 	orr.w	lr, r5, r6
 8000908:	e68d      	b.n	8000626 <__aeabi_dmul+0xde>
 800090a:	ea0c 5513 	and.w	r5, ip, r3, lsr #20
 800090e:	ea94 0f0c 	teq	r4, ip
 8000912:	bf08      	it	eq
 8000914:	ea95 0f0c 	teqeq	r5, ip
 8000918:	f43f af3b 	beq.w	8000792 <__aeabi_dmul+0x24a>
 800091c:	ea94 0f0c 	teq	r4, ip
 8000920:	d10a      	bne.n	8000938 <__aeabi_ddiv+0x19c>
 8000922:	ea50 3401 	orrs.w	r4, r0, r1, lsl #12
 8000926:	f47f af34 	bne.w	8000792 <__aeabi_dmul+0x24a>
 800092a:	ea95 0f0c 	teq	r5, ip
 800092e:	f47f af25 	bne.w	800077c <__aeabi_dmul+0x234>
 8000932:	4610      	mov	r0, r2
 8000934:	4619      	mov	r1, r3
 8000936:	e72c      	b.n	8000792 <__aeabi_dmul+0x24a>
 8000938:	ea95 0f0c 	teq	r5, ip
 800093c:	d106      	bne.n	800094c <__aeabi_ddiv+0x1b0>
 800093e:	ea52 3503 	orrs.w	r5, r2, r3, lsl #12
 8000942:	f43f aefd 	beq.w	8000740 <__aeabi_dmul+0x1f8>
 8000946:	4610      	mov	r0, r2
 8000948:	4619      	mov	r1, r3
 800094a:	e722      	b.n	8000792 <__aeabi_dmul+0x24a>
 800094c:	ea50 0641 	orrs.w	r6, r0, r1, lsl #1
 8000950:	bf18      	it	ne
 8000952:	ea52 0643 	orrsne.w	r6, r2, r3, lsl #1
 8000956:	f47f aec5 	bne.w	80006e4 <__aeabi_dmul+0x19c>
 800095a:	ea50 0441 	orrs.w	r4, r0, r1, lsl #1
 800095e:	f47f af0d 	bne.w	800077c <__aeabi_dmul+0x234>
 8000962:	ea52 0543 	orrs.w	r5, r2, r3, lsl #1
 8000966:	f47f aeeb 	bne.w	8000740 <__aeabi_dmul+0x1f8>
 800096a:	e712      	b.n	8000792 <__aeabi_dmul+0x24a>

0800096c <__aeabi_d2f>:
 800096c:	ea4f 0241 	mov.w	r2, r1, lsl #1
 8000970:	f1b2 43e0 	subs.w	r3, r2, #1879048192	@ 0x70000000
 8000974:	bf24      	itt	cs
 8000976:	f5b3 1c00 	subscs.w	ip, r3, #2097152	@ 0x200000
 800097a:	f1dc 5cfe 	rsbscs	ip, ip, #532676608	@ 0x1fc00000
 800097e:	d90d      	bls.n	800099c <__aeabi_d2f+0x30>
 8000980:	f001 4c00 	and.w	ip, r1, #2147483648	@ 0x80000000
 8000984:	ea4f 02c0 	mov.w	r2, r0, lsl #3
 8000988:	ea4c 7050 	orr.w	r0, ip, r0, lsr #29
 800098c:	f1b2 4f00 	cmp.w	r2, #2147483648	@ 0x80000000
 8000990:	eb40 0083 	adc.w	r0, r0, r3, lsl #2
 8000994:	bf08      	it	eq
 8000996:	f020 0001 	biceq.w	r0, r0, #1
 800099a:	4770      	bx	lr
 800099c:	f011 4f80 	tst.w	r1, #1073741824	@ 0x40000000
 80009a0:	d121      	bne.n	80009e6 <__aeabi_d2f+0x7a>
 80009a2:	f113 7238 	adds.w	r2, r3, #48234496	@ 0x2e00000
 80009a6:	bfbc      	itt	lt
 80009a8:	f001 4000 	andlt.w	r0, r1, #2147483648	@ 0x80000000
 80009ac:	4770      	bxlt	lr
 80009ae:	f441 1180 	orr.w	r1, r1, #1048576	@ 0x100000
 80009b2:	ea4f 5252 	mov.w	r2, r2, lsr #21
 80009b6:	f1c2 0218 	rsb	r2, r2, #24
 80009ba:	f1c2 0c20 	rsb	ip, r2, #32
 80009be:	fa10 f30c 	lsls.w	r3, r0, ip
 80009c2:	fa20 f002 	lsr.w	r0, r0, r2
 80009c6:	bf18      	it	ne
 80009c8:	f040 0001 	orrne.w	r0, r0, #1
 80009cc:	ea4f 23c1 	mov.w	r3, r1, lsl #11
 80009d0:	ea4f 23d3 	mov.w	r3, r3, lsr #11
 80009d4:	fa03 fc0c 	lsl.w	ip, r3, ip
 80009d8:	ea40 000c 	orr.w	r0, r0, ip
 80009dc:	fa23 f302 	lsr.w	r3, r3, r2
 80009e0:	ea4f 0343 	mov.w	r3, r3, lsl #1
 80009e4:	e7cc      	b.n	8000980 <__aeabi_d2f+0x14>
 80009e6:	ea7f 5362 	mvns.w	r3, r2, asr #21
 80009ea:	d107      	bne.n	80009fc <__aeabi_d2f+0x90>
 80009ec:	ea50 3301 	orrs.w	r3, r0, r1, lsl #12
 80009f0:	bf1e      	ittt	ne
 80009f2:	f04f 40fe 	movne.w	r0, #2130706432	@ 0x7f000000
 80009f6:	f440 0040 	orrne.w	r0, r0, #12582912	@ 0xc00000
 80009fa:	4770      	bxne	lr
 80009fc:	f001 4000 	and.w	r0, r1, #2147483648	@ 0x80000000
 8000a00:	f040 40fe 	orr.w	r0, r0, #2130706432	@ 0x7f000000
 8000a04:	f440 0000 	orr.w	r0, r0, #8388608	@ 0x800000
 8000a08:	4770      	bx	lr
 8000a0a:	bf00      	nop

08000a0c <__aeabi_uldivmod>:
 8000a0c:	b953      	cbnz	r3, 8000a24 <__aeabi_uldivmod+0x18>
 8000a0e:	b94a      	cbnz	r2, 8000a24 <__aeabi_uldivmod+0x18>
 8000a10:	2900      	cmp	r1, #0
 8000a12:	bf08      	it	eq
 8000a14:	2800      	cmpeq	r0, #0
 8000a16:	bf1c      	itt	ne
 8000a18:	f04f 31ff 	movne.w	r1, #4294967295
 8000a1c:	f04f 30ff 	movne.w	r0, #4294967295
 8000a20:	f000 b988 	b.w	8000d34 <__aeabi_idiv0>
 8000a24:	f1ad 0c08 	sub.w	ip, sp, #8
 8000a28:	e96d ce04 	strd	ip, lr, [sp, #-16]!
 8000a2c:	f000 f806 	bl	8000a3c <__udivmoddi4>
 8000a30:	f8dd e004 	ldr.w	lr, [sp, #4]
 8000a34:	e9dd 2302 	ldrd	r2, r3, [sp, #8]
 8000a38:	b004      	add	sp, #16
 8000a3a:	4770      	bx	lr

08000a3c <__udivmoddi4>:
 8000a3c:	e92d 47f0 	stmdb	sp!, {r4, r5, r6, r7, r8, r9, sl, lr}
 8000a40:	9d08      	ldr	r5, [sp, #32]
 8000a42:	468e      	mov	lr, r1
 8000a44:	4604      	mov	r4, r0
 8000a46:	4688      	mov	r8, r1
 8000a48:	2b00      	cmp	r3, #0
 8000a4a:	d14a      	bne.n	8000ae2 <__udivmoddi4+0xa6>
 8000a4c:	428a      	cmp	r2, r1
 8000a4e:	4617      	mov	r7, r2
 8000a50:	d962      	bls.n	8000b18 <__udivmoddi4+0xdc>
 8000a52:	fab2 f682 	clz	r6, r2
 8000a56:	b14e      	cbz	r6, 8000a6c <__udivmoddi4+0x30>
 8000a58:	f1c6 0320 	rsb	r3, r6, #32
 8000a5c:	fa01 f806 	lsl.w	r8, r1, r6
 8000a60:	fa20 f303 	lsr.w	r3, r0, r3
 8000a64:	40b7      	lsls	r7, r6
 8000a66:	ea43 0808 	orr.w	r8, r3, r8
 8000a6a:	40b4      	lsls	r4, r6
 8000a6c:	ea4f 4e17 	mov.w	lr, r7, lsr #16
 8000a70:	fa1f fc87 	uxth.w	ip, r7
 8000a74:	fbb8 f1fe 	udiv	r1, r8, lr
 8000a78:	0c23      	lsrs	r3, r4, #16
 8000a7a:	fb0e 8811 	mls	r8, lr, r1, r8
 8000a7e:	ea43 4308 	orr.w	r3, r3, r8, lsl #16
 8000a82:	fb01 f20c 	mul.w	r2, r1, ip
 8000a86:	429a      	cmp	r2, r3
 8000a88:	d909      	bls.n	8000a9e <__udivmoddi4+0x62>
 8000a8a:	18fb      	adds	r3, r7, r3
 8000a8c:	f101 30ff 	add.w	r0, r1, #4294967295
 8000a90:	f080 80ea 	bcs.w	8000c68 <__udivmoddi4+0x22c>
 8000a94:	429a      	cmp	r2, r3
 8000a96:	f240 80e7 	bls.w	8000c68 <__udivmoddi4+0x22c>
 8000a9a:	3902      	subs	r1, #2
 8000a9c:	443b      	add	r3, r7
 8000a9e:	1a9a      	subs	r2, r3, r2
 8000aa0:	b2a3      	uxth	r3, r4
 8000aa2:	fbb2 f0fe 	udiv	r0, r2, lr
 8000aa6:	fb0e 2210 	mls	r2, lr, r0, r2
 8000aaa:	ea43 4302 	orr.w	r3, r3, r2, lsl #16
 8000aae:	fb00 fc0c 	mul.w	ip, r0, ip
 8000ab2:	459c      	cmp	ip, r3
 8000ab4:	d909      	bls.n	8000aca <__udivmoddi4+0x8e>
 8000ab6:	18fb      	adds	r3, r7, r3
 8000ab8:	f100 32ff 	add.w	r2, r0, #4294967295
 8000abc:	f080 80d6 	bcs.w	8000c6c <__udivmoddi4+0x230>
 8000ac0:	459c      	cmp	ip, r3
 8000ac2:	f240 80d3 	bls.w	8000c6c <__udivmoddi4+0x230>
 8000ac6:	443b      	add	r3, r7
 8000ac8:	3802      	subs	r0, #2
 8000aca:	ea40 4001 	orr.w	r0, r0, r1, lsl #16
 8000ace:	eba3 030c 	sub.w	r3, r3, ip
 8000ad2:	2100      	movs	r1, #0
 8000ad4:	b11d      	cbz	r5, 8000ade <__udivmoddi4+0xa2>
 8000ad6:	40f3      	lsrs	r3, r6
 8000ad8:	2200      	movs	r2, #0
 8000ada:	e9c5 3200 	strd	r3, r2, [r5]
 8000ade:	e8bd 87f0 	ldmia.w	sp!, {r4, r5, r6, r7, r8, r9, sl, pc}
 8000ae2:	428b      	cmp	r3, r1
 8000ae4:	d905      	bls.n	8000af2 <__udivmoddi4+0xb6>
 8000ae6:	b10d      	cbz	r5, 8000aec <__udivmoddi4+0xb0>
 8000ae8:	e9c5 0100 	strd	r0, r1, [r5]
 8000aec:	2100      	movs	r1, #0
 8000aee:	4608      	mov	r0, r1
 8000af0:	e7f5      	b.n	8000ade <__udivmoddi4+0xa2>
 8000af2:	fab3 f183 	clz	r1, r3
 8000af6:	2900      	cmp	r1, #0
 8000af8:	d146      	bne.n	8000b88 <__udivmoddi4+0x14c>
 8000afa:	4573      	cmp	r3, lr
 8000afc:	d302      	bcc.n	8000b04 <__udivmoddi4+0xc8>
 8000afe:	4282      	cmp	r2, r0
 8000b00:	f200 8105 	bhi.w	8000d0e <__udivmoddi4+0x2d2>
 8000b04:	1a84      	subs	r4, r0, r2
 8000b06:	eb6e 0203 	sbc.w	r2, lr, r3
 8000b0a:	2001      	movs	r0, #1
 8000b0c:	4690      	mov	r8, r2
 8000b0e:	2d00      	cmp	r5, #0
 8000b10:	d0e5      	beq.n	8000ade <__udivmoddi4+0xa2>
 8000b12:	e9c5 4800 	strd	r4, r8, [r5]
 8000b16:	e7e2      	b.n	8000ade <__udivmoddi4+0xa2>
 8000b18:	2a00      	cmp	r2, #0
 8000b1a:	f000 8090 	beq.w	8000c3e <__udivmoddi4+0x202>
 8000b1e:	fab2 f682 	clz	r6, r2
 8000b22:	2e00      	cmp	r6, #0
 8000b24:	f040 80a4 	bne.w	8000c70 <__udivmoddi4+0x234>
 8000b28:	1a8a      	subs	r2, r1, r2
 8000b2a:	0c03      	lsrs	r3, r0, #16
 8000b2c:	ea4f 4e17 	mov.w	lr, r7, lsr #16
 8000b30:	b280      	uxth	r0, r0
 8000b32:	b2bc      	uxth	r4, r7
 8000b34:	2101      	movs	r1, #1
 8000b36:	fbb2 fcfe 	udiv	ip, r2, lr
 8000b3a:	fb0e 221c 	mls	r2, lr, ip, r2
 8000b3e:	ea43 4302 	orr.w	r3, r3, r2, lsl #16
 8000b42:	fb04 f20c 	mul.w	r2, r4, ip
 8000b46:	429a      	cmp	r2, r3
 8000b48:	d907      	bls.n	8000b5a <__udivmoddi4+0x11e>
 8000b4a:	18fb      	adds	r3, r7, r3
 8000b4c:	f10c 38ff 	add.w	r8, ip, #4294967295
 8000b50:	d202      	bcs.n	8000b58 <__udivmoddi4+0x11c>
 8000b52:	429a      	cmp	r2, r3
 8000b54:	f200 80e0 	bhi.w	8000d18 <__udivmoddi4+0x2dc>
 8000b58:	46c4      	mov	ip, r8
 8000b5a:	1a9b      	subs	r3, r3, r2
 8000b5c:	fbb3 f2fe 	udiv	r2, r3, lr
 8000b60:	fb0e 3312 	mls	r3, lr, r2, r3
 8000b64:	ea40 4303 	orr.w	r3, r0, r3, lsl #16
 8000b68:	fb02 f404 	mul.w	r4, r2, r4
 8000b6c:	429c      	cmp	r4, r3
 8000b6e:	d907      	bls.n	8000b80 <__udivmoddi4+0x144>
 8000b70:	18fb      	adds	r3, r7, r3
 8000b72:	f102 30ff 	add.w	r0, r2, #4294967295
 8000b76:	d202      	bcs.n	8000b7e <__udivmoddi4+0x142>
 8000b78:	429c      	cmp	r4, r3
 8000b7a:	f200 80ca 	bhi.w	8000d12 <__udivmoddi4+0x2d6>
 8000b7e:	4602      	mov	r2, r0
 8000b80:	1b1b      	subs	r3, r3, r4
 8000b82:	ea42 400c 	orr.w	r0, r2, ip, lsl #16
 8000b86:	e7a5      	b.n	8000ad4 <__udivmoddi4+0x98>
 8000b88:	f1c1 0620 	rsb	r6, r1, #32
 8000b8c:	408b      	lsls	r3, r1
 8000b8e:	fa22 f706 	lsr.w	r7, r2, r6
 8000b92:	431f      	orrs	r7, r3
 8000b94:	fa0e f401 	lsl.w	r4, lr, r1
 8000b98:	fa20 f306 	lsr.w	r3, r0, r6
 8000b9c:	fa2e fe06 	lsr.w	lr, lr, r6
 8000ba0:	ea4f 4917 	mov.w	r9, r7, lsr #16
 8000ba4:	4323      	orrs	r3, r4
 8000ba6:	fa00 f801 	lsl.w	r8, r0, r1
 8000baa:	fa1f fc87 	uxth.w	ip, r7
 8000bae:	fbbe f0f9 	udiv	r0, lr, r9
 8000bb2:	0c1c      	lsrs	r4, r3, #16
 8000bb4:	fb09 ee10 	mls	lr, r9, r0, lr
 8000bb8:	ea44 440e 	orr.w	r4, r4, lr, lsl #16
 8000bbc:	fb00 fe0c 	mul.w	lr, r0, ip
 8000bc0:	45a6      	cmp	lr, r4
 8000bc2:	fa02 f201 	lsl.w	r2, r2, r1
 8000bc6:	d909      	bls.n	8000bdc <__udivmoddi4+0x1a0>
 8000bc8:	193c      	adds	r4, r7, r4
 8000bca:	f100 3aff 	add.w	sl, r0, #4294967295
 8000bce:	f080 809c 	bcs.w	8000d0a <__udivmoddi4+0x2ce>
 8000bd2:	45a6      	cmp	lr, r4
 8000bd4:	f240 8099 	bls.w	8000d0a <__udivmoddi4+0x2ce>
 8000bd8:	3802      	subs	r0, #2
 8000bda:	443c      	add	r4, r7
 8000bdc:	eba4 040e 	sub.w	r4, r4, lr
 8000be0:	fa1f fe83 	uxth.w	lr, r3
 8000be4:	fbb4 f3f9 	udiv	r3, r4, r9
 8000be8:	fb09 4413 	mls	r4, r9, r3, r4
 8000bec:	ea4e 4404 	orr.w	r4, lr, r4, lsl #16
 8000bf0:	fb03 fc0c 	mul.w	ip, r3, ip
 8000bf4:	45a4      	cmp	ip, r4
 8000bf6:	d908      	bls.n	8000c0a <__udivmoddi4+0x1ce>
 8000bf8:	193c      	adds	r4, r7, r4
 8000bfa:	f103 3eff 	add.w	lr, r3, #4294967295
 8000bfe:	f080 8082 	bcs.w	8000d06 <__udivmoddi4+0x2ca>
 8000c02:	45a4      	cmp	ip, r4
 8000c04:	d97f      	bls.n	8000d06 <__udivmoddi4+0x2ca>
 8000c06:	3b02      	subs	r3, #2
 8000c08:	443c      	add	r4, r7
 8000c0a:	ea43 4000 	orr.w	r0, r3, r0, lsl #16
 8000c0e:	eba4 040c 	sub.w	r4, r4, ip
 8000c12:	fba0 ec02 	umull	lr, ip, r0, r2
 8000c16:	4564      	cmp	r4, ip
 8000c18:	4673      	mov	r3, lr
 8000c1a:	46e1      	mov	r9, ip
 8000c1c:	d362      	bcc.n	8000ce4 <__udivmoddi4+0x2a8>
 8000c1e:	d05f      	beq.n	8000ce0 <__udivmoddi4+0x2a4>
 8000c20:	b15d      	cbz	r5, 8000c3a <__udivmoddi4+0x1fe>
 8000c22:	ebb8 0203 	subs.w	r2, r8, r3
 8000c26:	eb64 0409 	sbc.w	r4, r4, r9
 8000c2a:	fa04 f606 	lsl.w	r6, r4, r6
 8000c2e:	fa22 f301 	lsr.w	r3, r2, r1
 8000c32:	431e      	orrs	r6, r3
 8000c34:	40cc      	lsrs	r4, r1
 8000c36:	e9c5 6400 	strd	r6, r4, [r5]
 8000c3a:	2100      	movs	r1, #0
 8000c3c:	e74f      	b.n	8000ade <__udivmoddi4+0xa2>
 8000c3e:	fbb1 fcf2 	udiv	ip, r1, r2
 8000c42:	0c01      	lsrs	r1, r0, #16
 8000c44:	ea41 410e 	orr.w	r1, r1, lr, lsl #16
 8000c48:	b280      	uxth	r0, r0
 8000c4a:	ea40 4201 	orr.w	r2, r0, r1, lsl #16
 8000c4e:	463b      	mov	r3, r7
 8000c50:	4638      	mov	r0, r7
 8000c52:	463c      	mov	r4, r7
 8000c54:	46b8      	mov	r8, r7
 8000c56:	46be      	mov	lr, r7
 8000c58:	2620      	movs	r6, #32
 8000c5a:	fbb1 f1f7 	udiv	r1, r1, r7
 8000c5e:	eba2 0208 	sub.w	r2, r2, r8
 8000c62:	ea41 410c 	orr.w	r1, r1, ip, lsl #16
 8000c66:	e766      	b.n	8000b36 <__udivmoddi4+0xfa>
 8000c68:	4601      	mov	r1, r0
 8000c6a:	e718      	b.n	8000a9e <__udivmoddi4+0x62>
 8000c6c:	4610      	mov	r0, r2
 8000c6e:	e72c      	b.n	8000aca <__udivmoddi4+0x8e>
 8000c70:	f1c6 0220 	rsb	r2, r6, #32
 8000c74:	fa2e f302 	lsr.w	r3, lr, r2
 8000c78:	40b7      	lsls	r7, r6
 8000c7a:	40b1      	lsls	r1, r6
 8000c7c:	fa20 f202 	lsr.w	r2, r0, r2
 8000c80:	ea4f 4e17 	mov.w	lr, r7, lsr #16
 8000c84:	430a      	orrs	r2, r1
 8000c86:	fbb3 f8fe 	udiv	r8, r3, lr
 8000c8a:	b2bc      	uxth	r4, r7
 8000c8c:	fb0e 3318 	mls	r3, lr, r8, r3
 8000c90:	0c11      	lsrs	r1, r2, #16
 8000c92:	ea41 4103 	orr.w	r1, r1, r3, lsl #16
 8000c96:	fb08 f904 	mul.w	r9, r8, r4
 8000c9a:	40b0      	lsls	r0, r6
 8000c9c:	4589      	cmp	r9, r1
 8000c9e:	ea4f 4310 	mov.w	r3, r0, lsr #16
 8000ca2:	b280      	uxth	r0, r0
 8000ca4:	d93e      	bls.n	8000d24 <__udivmoddi4+0x2e8>
 8000ca6:	1879      	adds	r1, r7, r1
 8000ca8:	f108 3cff 	add.w	ip, r8, #4294967295
 8000cac:	d201      	bcs.n	8000cb2 <__udivmoddi4+0x276>
 8000cae:	4589      	cmp	r9, r1
 8000cb0:	d81f      	bhi.n	8000cf2 <__udivmoddi4+0x2b6>
 8000cb2:	eba1 0109 	sub.w	r1, r1, r9
 8000cb6:	fbb1 f9fe 	udiv	r9, r1, lr
 8000cba:	fb09 f804 	mul.w	r8, r9, r4
 8000cbe:	fb0e 1119 	mls	r1, lr, r9, r1
 8000cc2:	b292      	uxth	r2, r2
 8000cc4:	ea42 4201 	orr.w	r2, r2, r1, lsl #16
 8000cc8:	4542      	cmp	r2, r8
 8000cca:	d229      	bcs.n	8000d20 <__udivmoddi4+0x2e4>
 8000ccc:	18ba      	adds	r2, r7, r2
 8000cce:	f109 31ff 	add.w	r1, r9, #4294967295
 8000cd2:	d2c4      	bcs.n	8000c5e <__udivmoddi4+0x222>
 8000cd4:	4542      	cmp	r2, r8
 8000cd6:	d2c2      	bcs.n	8000c5e <__udivmoddi4+0x222>
 8000cd8:	f1a9 0102 	sub.w	r1, r9, #2
 8000cdc:	443a      	add	r2, r7
 8000cde:	e7be      	b.n	8000c5e <__udivmoddi4+0x222>
 8000ce0:	45f0      	cmp	r8, lr
 8000ce2:	d29d      	bcs.n	8000c20 <__udivmoddi4+0x1e4>
 8000ce4:	ebbe 0302 	subs.w	r3, lr, r2
 8000ce8:	eb6c 0c07 	sbc.w	ip, ip, r7
 8000cec:	3801      	subs	r0, #1
 8000cee:	46e1      	mov	r9, ip
 8000cf0:	e796      	b.n	8000c20 <__udivmoddi4+0x1e4>
 8000cf2:	eba7 0909 	sub.w	r9, r7, r9
 8000cf6:	4449      	add	r1, r9
 8000cf8:	f1a8 0c02 	sub.w	ip, r8, #2
 8000cfc:	fbb1 f9fe 	udiv	r9, r1, lr
 8000d00:	fb09 f804 	mul.w	r8, r9, r4
 8000d04:	e7db      	b.n	8000cbe <__udivmoddi4+0x282>
 8000d06:	4673      	mov	r3, lr
 8000d08:	e77f      	b.n	8000c0a <__udivmoddi4+0x1ce>
 8000d0a:	4650      	mov	r0, sl
 8000d0c:	e766      	b.n	8000bdc <__udivmoddi4+0x1a0>
 8000d0e:	4608      	mov	r0, r1
 8000d10:	e6fd      	b.n	8000b0e <__udivmoddi4+0xd2>
 8000d12:	443b      	add	r3, r7
 8000d14:	3a02      	subs	r2, #2
 8000d16:	e733      	b.n	8000b80 <__udivmoddi4+0x144>
 8000d18:	f1ac 0c02 	sub.w	ip, ip, #2
 8000d1c:	443b      	add	r3, r7
 8000d1e:	e71c      	b.n	8000b5a <__udivmoddi4+0x11e>
 8000d20:	4649      	mov	r1, r9
 8000d22:	e79c      	b.n	8000c5e <__udivmoddi4+0x222>
 8000d24:	eba1 0109 	sub.w	r1, r1, r9
 8000d28:	46c4      	mov	ip, r8
 8000d2a:	fbb1 f9fe 	udiv	r9, r1, lr
 8000d2e:	fb09 f804 	mul.w	r8, r9, r4
 8000d32:	e7c4      	b.n	8000cbe <__udivmoddi4+0x282>

08000d34 <__aeabi_idiv0>:
 8000d34:	4770      	bx	lr
 8000d36:	bf00      	nop

08000d38 <I2C_EEP_Read>:
 8000d38:	b530      	push	{r4, r5, lr}
 8000d3a:	b087      	sub	sp, #28
 8000d3c:	2300      	movs	r3, #0
 8000d3e:	4605      	mov	r5, r0
 8000d40:	2201      	movs	r2, #1
 8000d42:	4810      	ldr	r0, [pc, #64]	@ (8000d84 <I2C_EEP_Read+0x4c>)
 8000d44:	f8ad 3014 	strh.w	r3, [sp, #20]
 8000d48:	2120      	movs	r1, #32
 8000d4a:	f003 fe45 	bl	80049d8 <HAL_GPIO_WritePin>
 8000d4e:	4c0e      	ldr	r4, [pc, #56]	@ (8000d88 <I2C_EEP_Read+0x50>)
 8000d50:	7961      	ldrb	r1, [r4, #5]
 8000d52:	6820      	ldr	r0, [r4, #0]
 8000d54:	f04f 33ff 	mov.w	r3, #4294967295
 8000d58:	2201      	movs	r2, #1
 8000d5a:	f004 f98f 	bl	800507c <HAL_I2C_IsDeviceReady>
 8000d5e:	2800      	cmp	r0, #0
 8000d60:	d1f6      	bne.n	8000d50 <I2C_EEP_Read+0x18>
 8000d62:	2301      	movs	r3, #1
 8000d64:	f04f 32ff 	mov.w	r2, #4294967295
 8000d68:	e9cd 3201 	strd	r3, r2, [sp, #4]
 8000d6c:	aa05      	add	r2, sp, #20
 8000d6e:	9200      	str	r2, [sp, #0]
 8000d70:	7961      	ldrb	r1, [r4, #5]
 8000d72:	6820      	ldr	r0, [r4, #0]
 8000d74:	b2aa      	uxth	r2, r5
 8000d76:	f004 f8a3 	bl	8004ec0 <HAL_I2C_Mem_Read>
 8000d7a:	f89d 0014 	ldrb.w	r0, [sp, #20]
 8000d7e:	b007      	add	sp, #28
 8000d80:	bd30      	pop	{r4, r5, pc}
 8000d82:	bf00      	nop
 8000d84:	48000400 	.word	0x48000400
 8000d88:	20000028 	.word	0x20000028

08000d8c <I2C_EEP_Write>:
 8000d8c:	b5f0      	push	{r4, r5, r6, r7, lr}
 8000d8e:	b087      	sub	sp, #28
 8000d90:	2200      	movs	r2, #0
 8000d92:	f88d 1014 	strb.w	r1, [sp, #20]
 8000d96:	4607      	mov	r7, r0
 8000d98:	2120      	movs	r1, #32
 8000d9a:	4812      	ldr	r0, [pc, #72]	@ (8000de4 <I2C_EEP_Write+0x58>)
 8000d9c:	f88d 2015 	strb.w	r2, [sp, #21]
 8000da0:	f003 fe1a 	bl	80049d8 <HAL_GPIO_WritePin>
 8000da4:	4d10      	ldr	r5, [pc, #64]	@ (8000de8 <I2C_EEP_Write+0x5c>)
 8000da6:	7969      	ldrb	r1, [r5, #5]
 8000da8:	6828      	ldr	r0, [r5, #0]
 8000daa:	f04f 33ff 	mov.w	r3, #4294967295
 8000dae:	2201      	movs	r2, #1
 8000db0:	f004 f964 	bl	800507c <HAL_I2C_IsDeviceReady>
 8000db4:	4604      	mov	r4, r0
 8000db6:	2800      	cmp	r0, #0
 8000db8:	d1f5      	bne.n	8000da6 <I2C_EEP_Write+0x1a>
 8000dba:	2601      	movs	r6, #1
 8000dbc:	f04f 33ff 	mov.w	r3, #4294967295
 8000dc0:	e9cd 6301 	strd	r6, r3, [sp, #4]
 8000dc4:	ab05      	add	r3, sp, #20
 8000dc6:	9300      	str	r3, [sp, #0]
 8000dc8:	7969      	ldrb	r1, [r5, #5]
 8000dca:	6828      	ldr	r0, [r5, #0]
 8000dcc:	4633      	mov	r3, r6
 8000dce:	b2ba      	uxth	r2, r7
 8000dd0:	f003 ff9c 	bl	8004d0c <HAL_I2C_Mem_Write>
 8000dd4:	4803      	ldr	r0, [pc, #12]	@ (8000de4 <I2C_EEP_Write+0x58>)
 8000dd6:	4632      	mov	r2, r6
 8000dd8:	2120      	movs	r1, #32
 8000dda:	f003 fdfd 	bl	80049d8 <HAL_GPIO_WritePin>
 8000dde:	4620      	mov	r0, r4
 8000de0:	b007      	add	sp, #28
 8000de2:	bdf0      	pop	{r4, r5, r6, r7, pc}
 8000de4:	48000400 	.word	0x48000400
 8000de8:	20000028 	.word	0x20000028

08000dec <I2C_EEP_Init>:
 8000dec:	b510      	push	{r4, lr}
 8000dee:	4c09      	ldr	r4, [pc, #36]	@ (8000e14 <I2C_EEP_Init+0x28>)
 8000df0:	2201      	movs	r2, #1
 8000df2:	6020      	str	r0, [r4, #0]
 8000df4:	7161      	strb	r1, [r4, #5]
 8000df6:	4808      	ldr	r0, [pc, #32]	@ (8000e18 <I2C_EEP_Init+0x2c>)
 8000df8:	2120      	movs	r1, #32
 8000dfa:	f003 fded 	bl	80049d8 <HAL_GPIO_WritePin>
 8000dfe:	7961      	ldrb	r1, [r4, #5]
 8000e00:	6820      	ldr	r0, [r4, #0]
 8000e02:	2364      	movs	r3, #100	@ 0x64
 8000e04:	2202      	movs	r2, #2
 8000e06:	f004 f939 	bl	800507c <HAL_I2C_IsDeviceReady>
 8000e0a:	fab0 f080 	clz	r0, r0
 8000e0e:	0940      	lsrs	r0, r0, #5
 8000e10:	bd10      	pop	{r4, pc}
 8000e12:	bf00      	nop
 8000e14:	20000028 	.word	0x20000028
 8000e18:	48000400 	.word	0x48000400

08000e1c <I2C_EEP_READ_U08>:
 8000e1c:	f7ff bf8c 	b.w	8000d38 <I2C_EEP_Read>

08000e20 <I2C_EEP_READ_U16>:
 8000e20:	b538      	push	{r3, r4, r5, lr}
 8000e22:	4605      	mov	r5, r0
 8000e24:	f7ff ff88 	bl	8000d38 <I2C_EEP_Read>
 8000e28:	0204      	lsls	r4, r0, #8
 8000e2a:	1c68      	adds	r0, r5, #1
 8000e2c:	f7ff ff84 	bl	8000d38 <I2C_EEP_Read>
 8000e30:	b2a4      	uxth	r4, r4
 8000e32:	4320      	orrs	r0, r4
 8000e34:	b280      	uxth	r0, r0
 8000e36:	bd38      	pop	{r3, r4, r5, pc}

08000e38 <I2C_EEP_READ_U32>:
 8000e38:	b570      	push	{r4, r5, r6, lr}
 8000e3a:	4605      	mov	r5, r0
 8000e3c:	f7ff ff7c 	bl	8000d38 <I2C_EEP_Read>
 8000e40:	0604      	lsls	r4, r0, #24
 8000e42:	1c68      	adds	r0, r5, #1
 8000e44:	f7ff ff78 	bl	8000d38 <I2C_EEP_Read>
 8000e48:	ea44 4400 	orr.w	r4, r4, r0, lsl #16
 8000e4c:	1ca8      	adds	r0, r5, #2
 8000e4e:	f7ff ff73 	bl	8000d38 <I2C_EEP_Read>
 8000e52:	4606      	mov	r6, r0
 8000e54:	1ce8      	adds	r0, r5, #3
 8000e56:	f7ff ff6f 	bl	8000d38 <I2C_EEP_Read>
 8000e5a:	4320      	orrs	r0, r4
 8000e5c:	ea40 2006 	orr.w	r0, r0, r6, lsl #8
 8000e60:	bd70      	pop	{r4, r5, r6, pc}

08000e62 <I2C_EEP_READ_FLOAT>:
 8000e62:	b570      	push	{r4, r5, r6, lr}
 8000e64:	4605      	mov	r5, r0
 8000e66:	f7ff ff67 	bl	8000d38 <I2C_EEP_Read>
 8000e6a:	4606      	mov	r6, r0
 8000e6c:	1c68      	adds	r0, r5, #1
 8000e6e:	f7ff ff63 	bl	8000d38 <I2C_EEP_Read>
 8000e72:	0404      	lsls	r4, r0, #16
 8000e74:	1ca8      	adds	r0, r5, #2
 8000e76:	f7ff ff5f 	bl	8000d38 <I2C_EEP_Read>
 8000e7a:	ea44 6406 	orr.w	r4, r4, r6, lsl #24
 8000e7e:	4606      	mov	r6, r0
 8000e80:	1ce8      	adds	r0, r5, #3
 8000e82:	f7ff ff59 	bl	8000d38 <I2C_EEP_Read>
 8000e86:	ea40 0304 	orr.w	r3, r0, r4
 8000e8a:	ea43 2306 	orr.w	r3, r3, r6, lsl #8
 8000e8e:	ee00 3a10 	vmov	s0, r3
 8000e92:	bd70      	pop	{r4, r5, r6, pc}

08000e94 <I2C_EEP_WRITE_U08>:
 8000e94:	b538      	push	{r3, r4, r5, lr}
 8000e96:	4605      	mov	r5, r0
 8000e98:	f7ff ff78 	bl	8000d8c <I2C_EEP_Write>
 8000e9c:	4604      	mov	r4, r0
 8000e9e:	4628      	mov	r0, r5
 8000ea0:	f7ff ff4a 	bl	8000d38 <I2C_EEP_Read>
 8000ea4:	1a23      	subs	r3, r4, r0
 8000ea6:	4258      	negs	r0, r3
 8000ea8:	4158      	adcs	r0, r3
 8000eaa:	bd38      	pop	{r3, r4, r5, pc}

08000eac <I2C_EEP_WRITE_U16>:
 8000eac:	b570      	push	{r4, r5, r6, lr}
 8000eae:	4605      	mov	r5, r0
 8000eb0:	460c      	mov	r4, r1
 8000eb2:	1c6e      	adds	r6, r5, #1
 8000eb4:	0a09      	lsrs	r1, r1, #8
 8000eb6:	f7ff ff69 	bl	8000d8c <I2C_EEP_Write>
 8000eba:	b2e1      	uxtb	r1, r4
 8000ebc:	4630      	mov	r0, r6
 8000ebe:	f7ff ff65 	bl	8000d8c <I2C_EEP_Write>
 8000ec2:	4628      	mov	r0, r5
 8000ec4:	f7ff ff38 	bl	8000d38 <I2C_EEP_Read>
 8000ec8:	0205      	lsls	r5, r0, #8
 8000eca:	4630      	mov	r0, r6
 8000ecc:	f7ff ff34 	bl	8000d38 <I2C_EEP_Read>
 8000ed0:	b2ad      	uxth	r5, r5
 8000ed2:	4328      	orrs	r0, r5
 8000ed4:	b280      	uxth	r0, r0
 8000ed6:	1b03      	subs	r3, r0, r4
 8000ed8:	4258      	negs	r0, r3
 8000eda:	4158      	adcs	r0, r3
 8000edc:	bd70      	pop	{r4, r5, r6, pc}

08000ede <I2C_EEP_WRITE_U32>:
 8000ede:	e92d 41f0 	stmdb	sp!, {r4, r5, r6, r7, r8, lr}
 8000ee2:	4605      	mov	r5, r0
 8000ee4:	460c      	mov	r4, r1
 8000ee6:	f105 0801 	add.w	r8, r5, #1
 8000eea:	0e09      	lsrs	r1, r1, #24
 8000eec:	f7ff ff4e 	bl	8000d8c <I2C_EEP_Write>
 8000ef0:	1cae      	adds	r6, r5, #2
 8000ef2:	f3c4 4107 	ubfx	r1, r4, #16, #8
 8000ef6:	4640      	mov	r0, r8
 8000ef8:	f7ff ff48 	bl	8000d8c <I2C_EEP_Write>
 8000efc:	1cef      	adds	r7, r5, #3
 8000efe:	f3c4 2107 	ubfx	r1, r4, #8, #8
 8000f02:	4630      	mov	r0, r6
 8000f04:	f7ff ff42 	bl	8000d8c <I2C_EEP_Write>
 8000f08:	b2e1      	uxtb	r1, r4
 8000f0a:	4638      	mov	r0, r7
 8000f0c:	f7ff ff3e 	bl	8000d8c <I2C_EEP_Write>
 8000f10:	4628      	mov	r0, r5
 8000f12:	f7ff ff11 	bl	8000d38 <I2C_EEP_Read>
 8000f16:	0605      	lsls	r5, r0, #24
 8000f18:	4640      	mov	r0, r8
 8000f1a:	f7ff ff0d 	bl	8000d38 <I2C_EEP_Read>
 8000f1e:	ea45 4500 	orr.w	r5, r5, r0, lsl #16
 8000f22:	4630      	mov	r0, r6
 8000f24:	f7ff ff08 	bl	8000d38 <I2C_EEP_Read>
 8000f28:	4606      	mov	r6, r0
 8000f2a:	4638      	mov	r0, r7
 8000f2c:	f7ff ff04 	bl	8000d38 <I2C_EEP_Read>
 8000f30:	ea40 0305 	orr.w	r3, r0, r5
 8000f34:	ea43 2006 	orr.w	r0, r3, r6, lsl #8
 8000f38:	1b03      	subs	r3, r0, r4
 8000f3a:	4258      	negs	r0, r3
 8000f3c:	4158      	adcs	r0, r3
 8000f3e:	e8bd 81f0 	ldmia.w	sp!, {r4, r5, r6, r7, r8, pc}

08000f42 <I2C_EEP_WRITE_FLOAT>:
 8000f42:	e92d 41f3 	stmdb	sp!, {r0, r1, r4, r5, r6, r7, r8, lr}
 8000f46:	ed8d 0a01 	vstr	s0, [sp, #4]
 8000f4a:	9c01      	ldr	r4, [sp, #4]
 8000f4c:	4605      	mov	r5, r0
 8000f4e:	f105 0801 	add.w	r8, r5, #1
 8000f52:	0e21      	lsrs	r1, r4, #24
 8000f54:	f7ff ff1a 	bl	8000d8c <I2C_EEP_Write>
 8000f58:	1cae      	adds	r6, r5, #2
 8000f5a:	f3c4 4107 	ubfx	r1, r4, #16, #8
 8000f5e:	4640      	mov	r0, r8
 8000f60:	f7ff ff14 	bl	8000d8c <I2C_EEP_Write>
 8000f64:	1cef      	adds	r7, r5, #3
 8000f66:	f3c4 2107 	ubfx	r1, r4, #8, #8
 8000f6a:	4630      	mov	r0, r6
 8000f6c:	f7ff ff0e 	bl	8000d8c <I2C_EEP_Write>
 8000f70:	b2e1      	uxtb	r1, r4
 8000f72:	4638      	mov	r0, r7
 8000f74:	f7ff ff0a 	bl	8000d8c <I2C_EEP_Write>
 8000f78:	4628      	mov	r0, r5
 8000f7a:	f7ff fedd 	bl	8000d38 <I2C_EEP_Read>
 8000f7e:	0605      	lsls	r5, r0, #24
 8000f80:	4640      	mov	r0, r8
 8000f82:	f7ff fed9 	bl	8000d38 <I2C_EEP_Read>
 8000f86:	ea45 4500 	orr.w	r5, r5, r0, lsl #16
 8000f8a:	4630      	mov	r0, r6
 8000f8c:	f7ff fed4 	bl	8000d38 <I2C_EEP_Read>
 8000f90:	4606      	mov	r6, r0
 8000f92:	4638      	mov	r0, r7
 8000f94:	f7ff fed0 	bl	8000d38 <I2C_EEP_Read>
 8000f98:	ea40 0305 	orr.w	r3, r0, r5
 8000f9c:	ea43 2006 	orr.w	r0, r3, r6, lsl #8
 8000fa0:	1b03      	subs	r3, r0, r4
 8000fa2:	4258      	negs	r0, r3
 8000fa4:	4158      	adcs	r0, r3
 8000fa6:	b002      	add	sp, #8
 8000fa8:	e8bd 81f0 	ldmia.w	sp!, {r4, r5, r6, r7, r8, pc}

08000fac <EXT_LD_Ctrl>:
 8000fac:	2801      	cmp	r0, #1
 8000fae:	b538      	push	{r3, r4, r5, lr}
 8000fb0:	4d09      	ldr	r5, [pc, #36]	@ (8000fd8 <EXT_LD_Ctrl+0x2c>)
 8000fb2:	4604      	mov	r4, r0
 8000fb4:	d106      	bne.n	8000fc4 <EXT_LD_Ctrl+0x18>
 8000fb6:	4602      	mov	r2, r0
 8000fb8:	2110      	movs	r1, #16
 8000fba:	4808      	ldr	r0, [pc, #32]	@ (8000fdc <EXT_LD_Ctrl+0x30>)
 8000fbc:	f003 fd0c 	bl	80049d8 <HAL_GPIO_WritePin>
 8000fc0:	702c      	strb	r4, [r5, #0]
 8000fc2:	bd38      	pop	{r3, r4, r5, pc}
 8000fc4:	4805      	ldr	r0, [pc, #20]	@ (8000fdc <EXT_LD_Ctrl+0x30>)
 8000fc6:	2200      	movs	r2, #0
 8000fc8:	2110      	movs	r1, #16
 8000fca:	f003 fd05 	bl	80049d8 <HAL_GPIO_WritePin>
 8000fce:	2300      	movs	r3, #0
 8000fd0:	702b      	strb	r3, [r5, #0]
 8000fd2:	60eb      	str	r3, [r5, #12]
 8000fd4:	e7f5      	b.n	8000fc2 <EXT_LD_Ctrl+0x16>
 8000fd6:	bf00      	nop
 8000fd8:	20000094 	.word	0x20000094
 8000fdc:	48000400 	.word	0x48000400

08000fe0 <EXT_HV_Ctrl>:
 8000fe0:	2801      	cmp	r0, #1
 8000fe2:	b538      	push	{r3, r4, r5, lr}
 8000fe4:	4d09      	ldr	r5, [pc, #36]	@ (800100c <EXT_HV_Ctrl+0x2c>)
 8000fe6:	4604      	mov	r4, r0
 8000fe8:	d106      	bne.n	8000ff8 <EXT_HV_Ctrl+0x18>
 8000fea:	4602      	mov	r2, r0
 8000fec:	2102      	movs	r1, #2
 8000fee:	4808      	ldr	r0, [pc, #32]	@ (8001010 <EXT_HV_Ctrl+0x30>)
 8000ff0:	f003 fcf2 	bl	80049d8 <HAL_GPIO_WritePin>
 8000ff4:	702c      	strb	r4, [r5, #0]
 8000ff6:	bd38      	pop	{r3, r4, r5, pc}
 8000ff8:	4805      	ldr	r0, [pc, #20]	@ (8001010 <EXT_HV_Ctrl+0x30>)
 8000ffa:	2200      	movs	r2, #0
 8000ffc:	2102      	movs	r1, #2
 8000ffe:	f003 fceb 	bl	80049d8 <HAL_GPIO_WritePin>
 8001002:	2300      	movs	r3, #0
 8001004:	702b      	strb	r3, [r5, #0]
 8001006:	60eb      	str	r3, [r5, #12]
 8001008:	e7f5      	b.n	8000ff6 <EXT_HV_Ctrl+0x16>
 800100a:	bf00      	nop
 800100c:	20000084 	.word	0x20000084
 8001010:	48000400 	.word	0x48000400

08001014 <EXT_PD_Ctrl>:
 8001014:	2801      	cmp	r0, #1
 8001016:	b538      	push	{r3, r4, r5, lr}
 8001018:	4d09      	ldr	r5, [pc, #36]	@ (8001040 <EXT_PD_Ctrl+0x2c>)
 800101a:	4604      	mov	r4, r0
 800101c:	d106      	bne.n	800102c <EXT_PD_Ctrl+0x18>
 800101e:	4602      	mov	r2, r0
 8001020:	2110      	movs	r1, #16
 8001022:	4808      	ldr	r0, [pc, #32]	@ (8001044 <EXT_PD_Ctrl+0x30>)
 8001024:	f003 fcd8 	bl	80049d8 <HAL_GPIO_WritePin>
 8001028:	702c      	strb	r4, [r5, #0]
 800102a:	bd38      	pop	{r3, r4, r5, pc}
 800102c:	4805      	ldr	r0, [pc, #20]	@ (8001044 <EXT_PD_Ctrl+0x30>)
 800102e:	2200      	movs	r2, #0
 8001030:	2110      	movs	r1, #16
 8001032:	f003 fcd1 	bl	80049d8 <HAL_GPIO_WritePin>
 8001036:	2300      	movs	r3, #0
 8001038:	702b      	strb	r3, [r5, #0]
 800103a:	60eb      	str	r3, [r5, #12]
 800103c:	e7f5      	b.n	800102a <EXT_PD_Ctrl+0x16>
 800103e:	bf00      	nop
 8001040:	200000a4 	.word	0x200000a4
 8001044:	48000400 	.word	0x48000400

08001048 <EXT_SiPM_Ctrl>:
 8001048:	2801      	cmp	r0, #1
 800104a:	b538      	push	{r3, r4, r5, lr}
 800104c:	4d09      	ldr	r5, [pc, #36]	@ (8001074 <EXT_SiPM_Ctrl+0x2c>)
 800104e:	4604      	mov	r4, r0
 8001050:	d106      	bne.n	8001060 <EXT_SiPM_Ctrl+0x18>
 8001052:	4602      	mov	r2, r0
 8001054:	2110      	movs	r1, #16
 8001056:	4808      	ldr	r0, [pc, #32]	@ (8001078 <EXT_SiPM_Ctrl+0x30>)
 8001058:	f003 fcbe 	bl	80049d8 <HAL_GPIO_WritePin>
 800105c:	702c      	strb	r4, [r5, #0]
 800105e:	bd38      	pop	{r3, r4, r5, pc}
 8001060:	4805      	ldr	r0, [pc, #20]	@ (8001078 <EXT_SiPM_Ctrl+0x30>)
 8001062:	2200      	movs	r2, #0
 8001064:	2110      	movs	r1, #16
 8001066:	f003 fcb7 	bl	80049d8 <HAL_GPIO_WritePin>
 800106a:	2300      	movs	r3, #0
 800106c:	702b      	strb	r3, [r5, #0]
 800106e:	60eb      	str	r3, [r5, #12]
 8001070:	e7f5      	b.n	800105e <EXT_SiPM_Ctrl+0x16>
 8001072:	bf00      	nop
 8001074:	20000074 	.word	0x20000074
 8001078:	48000400 	.word	0x48000400

0800107c <EXT_Init>:
 800107c:	b5f8      	push	{r3, r4, r5, r6, r7, lr}
 800107e:	4e18      	ldr	r6, [pc, #96]	@ (80010e0 <EXT_Init+0x64>)
 8001080:	4f18      	ldr	r7, [pc, #96]	@ (80010e4 <EXT_Init+0x68>)
 8001082:	4d19      	ldr	r5, [pc, #100]	@ (80010e8 <EXT_Init+0x6c>)
 8001084:	2410      	movs	r4, #16
 8001086:	4622      	mov	r2, r4
 8001088:	2100      	movs	r1, #0
 800108a:	4630      	mov	r0, r6
 800108c:	f005 fd64 	bl	8006b58 <memset>
 8001090:	4622      	mov	r2, r4
 8001092:	2100      	movs	r1, #0
 8001094:	4638      	mov	r0, r7
 8001096:	f005 fd5f 	bl	8006b58 <memset>
 800109a:	4622      	mov	r2, r4
 800109c:	2100      	movs	r1, #0
 800109e:	4628      	mov	r0, r5
 80010a0:	f005 fd5a 	bl	8006b58 <memset>
 80010a4:	4b11      	ldr	r3, [pc, #68]	@ (80010ec <EXT_Init+0x70>)
 80010a6:	4622      	mov	r2, r4
 80010a8:	4618      	mov	r0, r3
 80010aa:	2100      	movs	r1, #0
 80010ac:	f005 fd54 	bl	8006b58 <memset>
 80010b0:	220a      	movs	r2, #10
 80010b2:	f240 41c4 	movw	r1, #1220	@ 0x4c4
 80010b6:	8082      	strh	r2, [r0, #4]
 80010b8:	80b1      	strh	r1, [r6, #4]
 80010ba:	2000      	movs	r0, #0
 80010bc:	f240 31b6 	movw	r1, #950	@ 0x3b6
 80010c0:	80ba      	strh	r2, [r7, #4]
 80010c2:	80a9      	strh	r1, [r5, #4]
 80010c4:	f7ff ff72 	bl	8000fac <EXT_LD_Ctrl>
 80010c8:	2000      	movs	r0, #0
 80010ca:	f7ff ff89 	bl	8000fe0 <EXT_HV_Ctrl>
 80010ce:	2000      	movs	r0, #0
 80010d0:	f7ff ffa0 	bl	8001014 <EXT_PD_Ctrl>
 80010d4:	e8bd 40f8 	ldmia.w	sp!, {r3, r4, r5, r6, r7, lr}
 80010d8:	2000      	movs	r0, #0
 80010da:	f7ff bfb5 	b.w	8001048 <EXT_SiPM_Ctrl>
 80010de:	bf00      	nop
 80010e0:	20000094 	.word	0x20000094
 80010e4:	200000a4 	.word	0x200000a4
 80010e8:	20000084 	.word	0x20000084
 80010ec:	20000074 	.word	0x20000074

080010f0 <ADC_PD_Measuerment>:
 80010f0:	2801      	cmp	r0, #1
 80010f2:	4b12      	ldr	r3, [pc, #72]	@ (800113c <ADC_PD_Measuerment+0x4c>)
 80010f4:	d11b      	bne.n	800112e <ADC_PD_Measuerment+0x3e>
 80010f6:	88d9      	ldrh	r1, [r3, #6]
 80010f8:	7058      	strb	r0, [r3, #1]
 80010fa:	1e4a      	subs	r2, r1, #1
 80010fc:	2a1c      	cmp	r2, #28
 80010fe:	d80d      	bhi.n	800111c <ADC_PD_Measuerment+0x2c>
 8001100:	689a      	ldr	r2, [r3, #8]
 8001102:	1c50      	adds	r0, r2, #1
 8001104:	6098      	str	r0, [r3, #8]
 8001106:	480e      	ldr	r0, [pc, #56]	@ (8001140 <ADC_PD_Measuerment+0x50>)
 8001108:	4282      	cmp	r2, r0
 800110a:	d804      	bhi.n	8001116 <ADC_PD_Measuerment+0x26>
 800110c:	889a      	ldrh	r2, [r3, #4]
 800110e:	440a      	add	r2, r1
 8001110:	1052      	asrs	r2, r2, #1
 8001112:	809a      	strh	r2, [r3, #4]
 8001114:	4770      	bx	lr
 8001116:	4a0b      	ldr	r2, [pc, #44]	@ (8001144 <ADC_PD_Measuerment+0x54>)
 8001118:	609a      	str	r2, [r3, #8]
 800111a:	4770      	bx	lr
 800111c:	68da      	ldr	r2, [r3, #12]
 800111e:	f06f 417f 	mvn.w	r1, #4278190080	@ 0xff000000
 8001122:	428a      	cmp	r2, r1
 8001124:	bf2c      	ite	cs
 8001126:	4a07      	ldrcs	r2, [pc, #28]	@ (8001144 <ADC_PD_Measuerment+0x54>)
 8001128:	3201      	addcc	r2, #1
 800112a:	60da      	str	r2, [r3, #12]
 800112c:	4770      	bx	lr
 800112e:	2200      	movs	r2, #0
 8001130:	210a      	movs	r1, #10
 8001132:	705a      	strb	r2, [r3, #1]
 8001134:	70da      	strb	r2, [r3, #3]
 8001136:	6059      	str	r1, [r3, #4]
 8001138:	e7ee      	b.n	8001118 <ADC_PD_Measuerment+0x28>
 800113a:	bf00      	nop
 800113c:	200000a4 	.word	0x200000a4
 8001140:	00fffffd 	.word	0x00fffffd
 8001144:	00fffffe 	.word	0x00fffffe

08001148 <ADC_LD_Measuerment>:
 8001148:	2801      	cmp	r0, #1
 800114a:	4b15      	ldr	r3, [pc, #84]	@ (80011a0 <ADC_LD_Measuerment+0x58>)
 800114c:	d120      	bne.n	8001190 <ADC_LD_Measuerment+0x48>
 800114e:	88d9      	ldrh	r1, [r3, #6]
 8001150:	7058      	strb	r0, [r3, #1]
 8001152:	f46f 7296 	mvn.w	r2, #300	@ 0x12c
 8001156:	188a      	adds	r2, r1, r2
 8001158:	b292      	uxth	r2, r2
 800115a:	f640 60d2 	movw	r0, #3794	@ 0xed2
 800115e:	4282      	cmp	r2, r0
 8001160:	d80d      	bhi.n	800117e <ADC_LD_Measuerment+0x36>
 8001162:	689a      	ldr	r2, [r3, #8]
 8001164:	1c50      	adds	r0, r2, #1
 8001166:	6098      	str	r0, [r3, #8]
 8001168:	480e      	ldr	r0, [pc, #56]	@ (80011a4 <ADC_LD_Measuerment+0x5c>)
 800116a:	4282      	cmp	r2, r0
 800116c:	bf93      	iteet	ls
 800116e:	889a      	ldrhls	r2, [r3, #4]
 8001170:	4a0d      	ldrhi	r2, [pc, #52]	@ (80011a8 <ADC_LD_Measuerment+0x60>)
 8001172:	609a      	strhi	r2, [r3, #8]
 8001174:	1852      	addls	r2, r2, r1
 8001176:	bf9c      	itt	ls
 8001178:	1052      	asrls	r2, r2, #1
 800117a:	809a      	strhls	r2, [r3, #4]
 800117c:	4770      	bx	lr
 800117e:	68da      	ldr	r2, [r3, #12]
 8001180:	f06f 417f 	mvn.w	r1, #4278190080	@ 0xff000000
 8001184:	428a      	cmp	r2, r1
 8001186:	bf2c      	ite	cs
 8001188:	4a07      	ldrcs	r2, [pc, #28]	@ (80011a8 <ADC_LD_Measuerment+0x60>)
 800118a:	3201      	addcc	r2, #1
 800118c:	60da      	str	r2, [r3, #12]
 800118e:	4770      	bx	lr
 8001190:	2200      	movs	r2, #0
 8001192:	f240 41c4 	movw	r1, #1220	@ 0x4c4
 8001196:	e9c3 1201 	strd	r1, r2, [r3, #4]
 800119a:	705a      	strb	r2, [r3, #1]
 800119c:	70da      	strb	r2, [r3, #3]
 800119e:	e7f5      	b.n	800118c <ADC_LD_Measuerment+0x44>
 80011a0:	20000094 	.word	0x20000094
 80011a4:	00fffffd 	.word	0x00fffffd
 80011a8:	00fffffe 	.word	0x00fffffe

080011ac <ADC_HV_Measuerment>:
 80011ac:	2801      	cmp	r0, #1
 80011ae:	4b15      	ldr	r3, [pc, #84]	@ (8001204 <ADC_HV_Measuerment+0x58>)
 80011b0:	d120      	bne.n	80011f4 <ADC_HV_Measuerment+0x48>
 80011b2:	88d9      	ldrh	r1, [r3, #6]
 80011b4:	7058      	strb	r0, [r3, #1]
 80011b6:	f46f 7296 	mvn.w	r2, #300	@ 0x12c
 80011ba:	188a      	adds	r2, r1, r2
 80011bc:	b292      	uxth	r2, r2
 80011be:	f640 60d2 	movw	r0, #3794	@ 0xed2
 80011c2:	4282      	cmp	r2, r0
 80011c4:	d80d      	bhi.n	80011e2 <ADC_HV_Measuerment+0x36>
 80011c6:	689a      	ldr	r2, [r3, #8]
 80011c8:	1c50      	adds	r0, r2, #1
 80011ca:	6098      	str	r0, [r3, #8]
 80011cc:	480e      	ldr	r0, [pc, #56]	@ (8001208 <ADC_HV_Measuerment+0x5c>)
 80011ce:	4282      	cmp	r2, r0
 80011d0:	d804      	bhi.n	80011dc <ADC_HV_Measuerment+0x30>
 80011d2:	889a      	ldrh	r2, [r3, #4]
 80011d4:	440a      	add	r2, r1
 80011d6:	1052      	asrs	r2, r2, #1
 80011d8:	809a      	strh	r2, [r3, #4]
 80011da:	4770      	bx	lr
 80011dc:	4a0b      	ldr	r2, [pc, #44]	@ (800120c <ADC_HV_Measuerment+0x60>)
 80011de:	609a      	str	r2, [r3, #8]
 80011e0:	4770      	bx	lr
 80011e2:	68da      	ldr	r2, [r3, #12]
 80011e4:	f06f 417f 	mvn.w	r1, #4278190080	@ 0xff000000
 80011e8:	428a      	cmp	r2, r1
 80011ea:	bf2c      	ite	cs
 80011ec:	4a07      	ldrcs	r2, [pc, #28]	@ (800120c <ADC_HV_Measuerment+0x60>)
 80011ee:	3201      	addcc	r2, #1
 80011f0:	60da      	str	r2, [r3, #12]
 80011f2:	4770      	bx	lr
 80011f4:	2200      	movs	r2, #0
 80011f6:	f240 31b6 	movw	r1, #950	@ 0x3b6
 80011fa:	705a      	strb	r2, [r3, #1]
 80011fc:	70da      	strb	r2, [r3, #3]
 80011fe:	6059      	str	r1, [r3, #4]
 8001200:	e7ed      	b.n	80011de <ADC_HV_Measuerment+0x32>
 8001202:	bf00      	nop
 8001204:	20000084 	.word	0x20000084
 8001208:	00fffffd 	.word	0x00fffffd
 800120c:	00fffffe 	.word	0x00fffffe

08001210 <ADC_SiPM_Measuerment>:
 8001210:	2801      	cmp	r0, #1
 8001212:	4b12      	ldr	r3, [pc, #72]	@ (800125c <ADC_SiPM_Measuerment+0x4c>)
 8001214:	d11b      	bne.n	800124e <ADC_SiPM_Measuerment+0x3e>
 8001216:	88d9      	ldrh	r1, [r3, #6]
 8001218:	7058      	strb	r0, [r3, #1]
 800121a:	1e4a      	subs	r2, r1, #1
 800121c:	2a1c      	cmp	r2, #28
 800121e:	d80d      	bhi.n	800123c <ADC_SiPM_Measuerment+0x2c>
 8001220:	689a      	ldr	r2, [r3, #8]
 8001222:	1c50      	adds	r0, r2, #1
 8001224:	6098      	str	r0, [r3, #8]
 8001226:	480e      	ldr	r0, [pc, #56]	@ (8001260 <ADC_SiPM_Measuerment+0x50>)
 8001228:	4282      	cmp	r2, r0
 800122a:	d804      	bhi.n	8001236 <ADC_SiPM_Measuerment+0x26>
 800122c:	889a      	ldrh	r2, [r3, #4]
 800122e:	440a      	add	r2, r1
 8001230:	1052      	asrs	r2, r2, #1
 8001232:	809a      	strh	r2, [r3, #4]
 8001234:	4770      	bx	lr
 8001236:	4a0b      	ldr	r2, [pc, #44]	@ (8001264 <ADC_SiPM_Measuerment+0x54>)
 8001238:	609a      	str	r2, [r3, #8]
 800123a:	4770      	bx	lr
 800123c:	68da      	ldr	r2, [r3, #12]
 800123e:	f06f 417f 	mvn.w	r1, #4278190080	@ 0xff000000
 8001242:	428a      	cmp	r2, r1
 8001244:	bf2c      	ite	cs
 8001246:	4a07      	ldrcs	r2, [pc, #28]	@ (8001264 <ADC_SiPM_Measuerment+0x54>)
 8001248:	3201      	addcc	r2, #1
 800124a:	60da      	str	r2, [r3, #12]
 800124c:	4770      	bx	lr
 800124e:	2200      	movs	r2, #0
 8001250:	210a      	movs	r1, #10
 8001252:	705a      	strb	r2, [r3, #1]
 8001254:	70da      	strb	r2, [r3, #3]
 8001256:	6059      	str	r1, [r3, #4]
 8001258:	e7ee      	b.n	8001238 <ADC_SiPM_Measuerment+0x28>
 800125a:	bf00      	nop
 800125c:	20000074 	.word	0x20000074
 8001260:	00fffffd 	.word	0x00fffffd
 8001264:	00fffffe 	.word	0x00fffffe

08001268 <ADC_ChkCondition>:
 8001268:	b538      	push	{r3, r4, r5, lr}
 800126a:	ed2d 8b02 	vpush	{d8}
 800126e:	ee08 1a10 	vmov	s16, r1
 8001272:	f7ff f8ff 	bl	8000474 <__aeabi_i2d>
 8001276:	a314      	add	r3, pc, #80	@ (adr r3, 80012c8 <ADC_ChkCondition+0x60>)
 8001278:	e9d3 2300 	ldrd	r2, r3, [r3]
 800127c:	4604      	mov	r4, r0
 800127e:	460d      	mov	r5, r1
 8001280:	f7ff f962 	bl	8000548 <__aeabi_dmul>
 8001284:	f7ff fb72 	bl	800096c <__aeabi_d2f>
 8001288:	eeb8 8ac8 	vcvt.f32.s32	s16, s16
 800128c:	ee07 0a90 	vmov	s15, r0
 8001290:	eef4 7ac8 	vcmpe.f32	s15, s16
 8001294:	eef1 fa10 	vmrs	APSR_nzcv, fpscr
 8001298:	d814      	bhi.n	80012c4 <ADC_ChkCondition+0x5c>
 800129a:	a30d      	add	r3, pc, #52	@ (adr r3, 80012d0 <ADC_ChkCondition+0x68>)
 800129c:	e9d3 2300 	ldrd	r2, r3, [r3]
 80012a0:	4620      	mov	r0, r4
 80012a2:	4629      	mov	r1, r5
 80012a4:	f7ff f950 	bl	8000548 <__aeabi_dmul>
 80012a8:	f7ff fb60 	bl	800096c <__aeabi_d2f>
 80012ac:	ee07 0a90 	vmov	s15, r0
 80012b0:	eeb4 8ae7 	vcmpe.f32	s16, s15
 80012b4:	eef1 fa10 	vmrs	APSR_nzcv, fpscr
 80012b8:	bf94      	ite	ls
 80012ba:	2001      	movls	r0, #1
 80012bc:	2000      	movhi	r0, #0
 80012be:	ecbd 8b02 	vpop	{d8}
 80012c2:	bd38      	pop	{r3, r4, r5, pc}
 80012c4:	2000      	movs	r0, #0
 80012c6:	e7fa      	b.n	80012be <ADC_ChkCondition+0x56>
 80012c8:	cccccccd 	.word	0xcccccccd
 80012cc:	3feccccc 	.word	0x3feccccc
 80012d0:	9999999a 	.word	0x9999999a
 80012d4:	3ff19999 	.word	0x3ff19999

080012d8 <FAN_Init>:
 80012d8:	b510      	push	{r4, lr}
 80012da:	4c07      	ldr	r4, [pc, #28]	@ (80012f8 <FAN_Init+0x20>)
 80012dc:	2218      	movs	r2, #24
 80012de:	2100      	movs	r1, #0
 80012e0:	4620      	mov	r0, r4
 80012e2:	f005 fc39 	bl	8006b58 <memset>
 80012e6:	4805      	ldr	r0, [pc, #20]	@ (80012fc <FAN_Init+0x24>)
 80012e8:	2200      	movs	r2, #0
 80012ea:	f44f 4180 	mov.w	r1, #16384	@ 0x4000
 80012ee:	f003 fb73 	bl	80049d8 <HAL_GPIO_WritePin>
 80012f2:	2300      	movs	r3, #0
 80012f4:	7023      	strb	r3, [r4, #0]
 80012f6:	bd10      	pop	{r4, pc}
 80012f8:	200000b4 	.word	0x200000b4
 80012fc:	48000800 	.word	0x48000800

08001300 <FAN_Ctrl>:
 8001300:	2801      	cmp	r0, #1
 8001302:	b570      	push	{r4, r5, r6, lr}
 8001304:	4605      	mov	r5, r0
 8001306:	460c      	mov	r4, r1
 8001308:	d111      	bne.n	800132e <FAN_Ctrl+0x2e>
 800130a:	4602      	mov	r2, r0
 800130c:	f44f 4100 	mov.w	r1, #32768	@ 0x8000
 8001310:	4814      	ldr	r0, [pc, #80]	@ (8001364 <FAN_Ctrl+0x64>)
 8001312:	f003 fb61 	bl	80049d8 <HAL_GPIO_WritePin>
 8001316:	4e14      	ldr	r6, [pc, #80]	@ (8001368 <FAN_Ctrl+0x68>)
 8001318:	2c01      	cmp	r4, #1
 800131a:	7175      	strb	r5, [r6, #5]
 800131c:	d10f      	bne.n	800133e <FAN_Ctrl+0x3e>
 800131e:	4811      	ldr	r0, [pc, #68]	@ (8001364 <FAN_Ctrl+0x64>)
 8001320:	4622      	mov	r2, r4
 8001322:	f44f 4180 	mov.w	r1, #16384	@ 0x4000
 8001326:	f003 fb57 	bl	80049d8 <HAL_GPIO_WritePin>
 800132a:	7034      	strb	r4, [r6, #0]
 800132c:	bd70      	pop	{r4, r5, r6, pc}
 800132e:	480d      	ldr	r0, [pc, #52]	@ (8001364 <FAN_Ctrl+0x64>)
 8001330:	2200      	movs	r2, #0
 8001332:	f44f 4100 	mov.w	r1, #32768	@ 0x8000
 8001336:	f003 fb4f 	bl	80049d8 <HAL_GPIO_WritePin>
 800133a:	2500      	movs	r5, #0
 800133c:	e7eb      	b.n	8001316 <FAN_Ctrl+0x16>
 800133e:	4809      	ldr	r0, [pc, #36]	@ (8001364 <FAN_Ctrl+0x64>)
 8001340:	2200      	movs	r2, #0
 8001342:	f44f 4180 	mov.w	r1, #16384	@ 0x4000
 8001346:	f003 fb47 	bl	80049d8 <HAL_GPIO_WritePin>
 800134a:	2300      	movs	r3, #0
 800134c:	7033      	strb	r3, [r6, #0]
 800134e:	2c00      	cmp	r4, #0
 8001350:	d1ec      	bne.n	800132c <FAN_Ctrl+0x2c>
 8001352:	4804      	ldr	r0, [pc, #16]	@ (8001364 <FAN_Ctrl+0x64>)
 8001354:	6134      	str	r4, [r6, #16]
 8001356:	4622      	mov	r2, r4
 8001358:	f44f 4100 	mov.w	r1, #32768	@ 0x8000
 800135c:	f003 fb3c 	bl	80049d8 <HAL_GPIO_WritePin>
 8001360:	7174      	strb	r4, [r6, #5]
 8001362:	e7e3      	b.n	800132c <FAN_Ctrl+0x2c>
 8001364:	48000800 	.word	0x48000800
 8001368:	200000b4 	.word	0x200000b4

0800136c <FAN_RpmMeasuerment>:
 800136c:	b538      	push	{r3, r4, r5, lr}
 800136e:	4604      	mov	r4, r0
 8001370:	4d06      	ldr	r5, [pc, #24]	@ (800138c <FAN_RpmMeasuerment+0x20>)
 8001372:	2017      	movs	r0, #23
 8001374:	b91c      	cbnz	r4, 800137e <FAN_RpmMeasuerment+0x12>
 8001376:	f003 f915 	bl	80045a4 <HAL_NVIC_DisableIRQ>
 800137a:	612c      	str	r4, [r5, #16]
 800137c:	bd38      	pop	{r3, r4, r5, pc}
 800137e:	f003 f903 	bl	8004588 <HAL_NVIC_EnableIRQ>
 8001382:	78e8      	ldrb	r0, [r5, #3]
 8001384:	1e43      	subs	r3, r0, #1
 8001386:	4258      	negs	r0, r3
 8001388:	4158      	adcs	r0, r3
 800138a:	e7f7      	b.n	800137c <FAN_RpmMeasuerment+0x10>
 800138c:	200000b4 	.word	0x200000b4

08001390 <FAN_ChkCondition>:
 8001390:	b538      	push	{r3, r4, r5, lr}
 8001392:	ed2d 8b02 	vpush	{d8}
 8001396:	ee08 1a10 	vmov	s16, r1
 800139a:	f7ff f86b 	bl	8000474 <__aeabi_i2d>
 800139e:	a314      	add	r3, pc, #80	@ (adr r3, 80013f0 <FAN_ChkCondition+0x60>)
 80013a0:	e9d3 2300 	ldrd	r2, r3, [r3]
 80013a4:	4604      	mov	r4, r0
 80013a6:	460d      	mov	r5, r1
 80013a8:	f7ff f8ce 	bl	8000548 <__aeabi_dmul>
 80013ac:	f7ff fade 	bl	800096c <__aeabi_d2f>
 80013b0:	eeb8 8a48 	vcvt.f32.u32	s16, s16
 80013b4:	ee07 0a90 	vmov	s15, r0
 80013b8:	eeb4 8ae7 	vcmpe.f32	s16, s15
 80013bc:	eef1 fa10 	vmrs	APSR_nzcv, fpscr
 80013c0:	db14      	blt.n	80013ec <FAN_ChkCondition+0x5c>
 80013c2:	a30d      	add	r3, pc, #52	@ (adr r3, 80013f8 <FAN_ChkCondition+0x68>)
 80013c4:	e9d3 2300 	ldrd	r2, r3, [r3]
 80013c8:	4620      	mov	r0, r4
 80013ca:	4629      	mov	r1, r5
 80013cc:	f7ff f8bc 	bl	8000548 <__aeabi_dmul>
 80013d0:	f7ff facc 	bl	800096c <__aeabi_d2f>
 80013d4:	ee07 0a90 	vmov	s15, r0
 80013d8:	eeb4 8ae7 	vcmpe.f32	s16, s15
 80013dc:	eef1 fa10 	vmrs	APSR_nzcv, fpscr
 80013e0:	bf94      	ite	ls
 80013e2:	2001      	movls	r0, #1
 80013e4:	2000      	movhi	r0, #0
 80013e6:	ecbd 8b02 	vpop	{d8}
 80013ea:	bd38      	pop	{r3, r4, r5, pc}
 80013ec:	2000      	movs	r0, #0
 80013ee:	e7fa      	b.n	80013e6 <FAN_ChkCondition+0x56>
 80013f0:	cccccccd 	.word	0xcccccccd
 80013f4:	3feccccc 	.word	0x3feccccc
 80013f8:	9999999a 	.word	0x9999999a
 80013fc:	3ff19999 	.word	0x3ff19999

08001400 <Calc_Init>:
 8001400:	2100      	movs	r1, #0
 8001402:	4a0a      	ldr	r2, [pc, #40]	@ (800142c <Calc_Init+0x2c>)
 8001404:	2300      	movs	r3, #0
 8001406:	4608      	mov	r0, r1
 8001408:	3101      	adds	r1, #1
 800140a:	2906      	cmp	r1, #6
 800140c:	6013      	str	r3, [r2, #0]
 800140e:	6053      	str	r3, [r2, #4]
 8001410:	6093      	str	r3, [r2, #8]
 8001412:	60d3      	str	r3, [r2, #12]
 8001414:	6113      	str	r3, [r2, #16]
 8001416:	6150      	str	r0, [r2, #20]
 8001418:	6193      	str	r3, [r2, #24]
 800141a:	f102 0220 	add.w	r2, r2, #32
 800141e:	d1f3      	bne.n	8001408 <Calc_Init+0x8>
 8001420:	4a03      	ldr	r2, [pc, #12]	@ (8001430 <Calc_Init+0x30>)
 8001422:	6013      	str	r3, [r2, #0]
 8001424:	6053      	str	r3, [r2, #4]
 8001426:	6093      	str	r3, [r2, #8]
 8001428:	60d3      	str	r3, [r2, #12]
 800142a:	4770      	bx	lr
 800142c:	20000224 	.word	0x20000224
 8001430:	20000214 	.word	0x20000214

08001434 <Calc_GetSelNumConnect>:
 8001434:	4b1a      	ldr	r3, [pc, #104]	@ (80014a0 <Calc_GetSelNumConnect+0x6c>)
 8001436:	4a1b      	ldr	r2, [pc, #108]	@ (80014a4 <Calc_GetSelNumConnect+0x70>)
 8001438:	edd3 7a05 	vldr	s15, [r3, #20]
 800143c:	ed92 7a08 	vldr	s14, [r2, #32]
 8001440:	eef8 7a67 	vcvt.f32.u32	s15, s15
 8001444:	ee67 7a87 	vmul.f32	s15, s15, s14
 8001448:	ed92 7a12 	vldr	s14, [r2, #72]	@ 0x48
 800144c:	edc3 7a02 	vstr	s15, [r3, #8]
 8001450:	edd3 7a0d 	vldr	s15, [r3, #52]	@ 0x34
 8001454:	eef8 7a67 	vcvt.f32.u32	s15, s15
 8001458:	ee67 7a87 	vmul.f32	s15, s15, s14
 800145c:	ed92 7a1c 	vldr	s14, [r2, #112]	@ 0x70
 8001460:	edc3 7a0a 	vstr	s15, [r3, #40]	@ 0x28
 8001464:	edd3 7a15 	vldr	s15, [r3, #84]	@ 0x54
 8001468:	eef8 7a67 	vcvt.f32.u32	s15, s15
 800146c:	ee67 7a87 	vmul.f32	s15, s15, s14
 8001470:	ed92 7a26 	vldr	s14, [r2, #152]	@ 0x98
 8001474:	edc3 7a12 	vstr	s15, [r3, #72]	@ 0x48
 8001478:	edd3 7a1d 	vldr	s15, [r3, #116]	@ 0x74
 800147c:	eef8 7a67 	vcvt.f32.u32	s15, s15
 8001480:	ee67 7a87 	vmul.f32	s15, s15, s14
 8001484:	ed92 7a30 	vldr	s14, [r2, #192]	@ 0xc0
 8001488:	edc3 7a1a 	vstr	s15, [r3, #104]	@ 0x68
 800148c:	edd3 7a25 	vldr	s15, [r3, #148]	@ 0x94
 8001490:	eef8 7a67 	vcvt.f32.u32	s15, s15
 8001494:	ee67 7a87 	vmul.f32	s15, s15, s14
 8001498:	edc3 7a22 	vstr	s15, [r3, #136]	@ 0x88
 800149c:	4770      	bx	lr
 800149e:	bf00      	nop
 80014a0:	20000224 	.word	0x20000224
 80014a4:	200000cc 	.word	0x200000cc

080014a8 <Calc_GetNumberConcent>:
 80014a8:	4b0e      	ldr	r3, [pc, #56]	@ (80014e4 <Calc_GetNumberConcent+0x3c>)
 80014aa:	edd3 7a02 	vldr	s15, [r3, #8]
 80014ae:	ed93 7a0a 	vldr	s14, [r3, #40]	@ 0x28
 80014b2:	edc3 7a04 	vstr	s15, [r3, #16]
 80014b6:	ee77 7a87 	vadd.f32	s15, s15, s14
 80014ba:	ed93 7a12 	vldr	s14, [r3, #72]	@ 0x48
 80014be:	edc3 7a0c 	vstr	s15, [r3, #48]	@ 0x30
 80014c2:	ee77 7a87 	vadd.f32	s15, s15, s14
 80014c6:	ed93 7a1a 	vldr	s14, [r3, #104]	@ 0x68
 80014ca:	edc3 7a14 	vstr	s15, [r3, #80]	@ 0x50
 80014ce:	ee77 7a87 	vadd.f32	s15, s15, s14
 80014d2:	ed93 7a22 	vldr	s14, [r3, #136]	@ 0x88
 80014d6:	edc3 7a1c 	vstr	s15, [r3, #112]	@ 0x70
 80014da:	ee77 7a27 	vadd.f32	s15, s14, s15
 80014de:	edc3 7a24 	vstr	s15, [r3, #144]	@ 0x90
 80014e2:	4770      	bx	lr
 80014e4:	20000224 	.word	0x20000224

080014e8 <Calc_GetSelMassConnect>:
 80014e8:	4b1b      	ldr	r3, [pc, #108]	@ (8001558 <Calc_GetSelMassConnect+0x70>)
 80014ea:	eddf 6a1c 	vldr	s13, [pc, #112]	@ 800155c <Calc_GetSelMassConnect+0x74>
 80014ee:	edd3 7a07 	vldr	s15, [r3, #28]
 80014f2:	4b1b      	ldr	r3, [pc, #108]	@ (8001560 <Calc_GetSelMassConnect+0x78>)
 80014f4:	ed93 7a02 	vldr	s14, [r3, #8]
 80014f8:	ee27 7a87 	vmul.f32	s14, s15, s14
 80014fc:	ee27 7a26 	vmul.f32	s14, s14, s13
 8001500:	eddf 6a18 	vldr	s13, [pc, #96]	@ 8001564 <Calc_GetSelMassConnect+0x7c>
 8001504:	ed83 7a03 	vstr	s14, [r3, #12]
 8001508:	ed93 7a0a 	vldr	s14, [r3, #40]	@ 0x28
 800150c:	ee27 7a87 	vmul.f32	s14, s15, s14
 8001510:	ee27 7a26 	vmul.f32	s14, s14, s13
 8001514:	eddf 6a14 	vldr	s13, [pc, #80]	@ 8001568 <Calc_GetSelMassConnect+0x80>
 8001518:	ed83 7a0b 	vstr	s14, [r3, #44]	@ 0x2c
 800151c:	ed93 7a12 	vldr	s14, [r3, #72]	@ 0x48
 8001520:	ee27 7a87 	vmul.f32	s14, s15, s14
 8001524:	ee27 7a26 	vmul.f32	s14, s14, s13
 8001528:	eddf 6a10 	vldr	s13, [pc, #64]	@ 800156c <Calc_GetSelMassConnect+0x84>
 800152c:	ed83 7a13 	vstr	s14, [r3, #76]	@ 0x4c
 8001530:	ed93 7a1a 	vldr	s14, [r3, #104]	@ 0x68
 8001534:	ee27 7a87 	vmul.f32	s14, s15, s14
 8001538:	ee27 7a26 	vmul.f32	s14, s14, s13
 800153c:	ed83 7a1b 	vstr	s14, [r3, #108]	@ 0x6c
 8001540:	ed93 7a22 	vldr	s14, [r3, #136]	@ 0x88
 8001544:	ee67 7a87 	vmul.f32	s15, s15, s14
 8001548:	ed9f 7a09 	vldr	s14, [pc, #36]	@ 8001570 <Calc_GetSelMassConnect+0x88>
 800154c:	ee67 7a87 	vmul.f32	s15, s15, s14
 8001550:	edc3 7a23 	vstr	s15, [r3, #140]	@ 0x8c
 8001554:	4770      	bx	lr
 8001556:	bf00      	nop
 8001558:	200000cc 	.word	0x200000cc
 800155c:	3d11a8da 	.word	0x3d11a8da
 8001560:	20000224 	.word	0x20000224
 8001564:	3e7b8383 	.word	0x3e7b8383
 8001568:	405484df 	.word	0x405484df
 800156c:	41977e15 	.word	0x41977e15
 8001570:	43549aed 	.word	0x43549aed

08001574 <Calc_GetMassConcentration>:
 8001574:	4b0d      	ldr	r3, [pc, #52]	@ (80015ac <Calc_GetMassConcentration+0x38>)
 8001576:	ed93 7a0b 	vldr	s14, [r3, #44]	@ 0x2c
 800157a:	edd3 7a03 	vldr	s15, [r3, #12]
 800157e:	ee77 7a87 	vadd.f32	s15, s15, s14
 8001582:	ed93 7a13 	vldr	s14, [r3, #76]	@ 0x4c
 8001586:	edc3 7a00 	vstr	s15, [r3]
 800158a:	ee77 7a87 	vadd.f32	s15, s15, s14
 800158e:	ed93 7a1b 	vldr	s14, [r3, #108]	@ 0x6c
 8001592:	edc3 7a08 	vstr	s15, [r3, #32]
 8001596:	ee77 7a87 	vadd.f32	s15, s15, s14
 800159a:	ed93 7a23 	vldr	s14, [r3, #140]	@ 0x8c
 800159e:	edc3 7a10 	vstr	s15, [r3, #64]	@ 0x40
 80015a2:	ee77 7a27 	vadd.f32	s15, s14, s15
 80015a6:	edc3 7a18 	vstr	s15, [r3, #96]	@ 0x60
 80015aa:	4770      	bx	lr
 80015ac:	20000224 	.word	0x20000224

080015b0 <Calc_GetTypicalPaticleSize>:
 80015b0:	4b14      	ldr	r3, [pc, #80]	@ (8001604 <Calc_GetTypicalPaticleSize+0x54>)
 80015b2:	ed9f 7a15 	vldr	s14, [pc, #84]	@ 8001608 <Calc_GetTypicalPaticleSize+0x58>
 80015b6:	edd3 7a02 	vldr	s15, [r3, #8]
 80015ba:	ee67 7a87 	vmul.f32	s15, s15, s14
 80015be:	eeb6 7a08 	vmov.f32	s14, #104	@ 0x3f400000  0.750
 80015c2:	edc3 7a06 	vstr	s15, [r3, #24]
 80015c6:	edd3 7a0a 	vldr	s15, [r3, #40]	@ 0x28
 80015ca:	ee67 7a87 	vmul.f32	s15, s15, s14
 80015ce:	eeb7 7a0c 	vmov.f32	s14, #124	@ 0x3fe00000  1.750
 80015d2:	edc3 7a0e 	vstr	s15, [r3, #56]	@ 0x38
 80015d6:	edd3 7a12 	vldr	s15, [r3, #72]	@ 0x48
 80015da:	ee67 7a87 	vmul.f32	s15, s15, s14
 80015de:	eeb0 7a0a 	vmov.f32	s14, #10	@ 0x40500000  3.250
 80015e2:	edc3 7a16 	vstr	s15, [r3, #88]	@ 0x58
 80015e6:	edd3 7a1a 	vldr	s15, [r3, #104]	@ 0x68
 80015ea:	ee67 7a87 	vmul.f32	s15, s15, s14
 80015ee:	eeb1 7a0c 	vmov.f32	s14, #28	@ 0x40e00000  7.0
 80015f2:	edc3 7a1e 	vstr	s15, [r3, #120]	@ 0x78
 80015f6:	edd3 7a22 	vldr	s15, [r3, #136]	@ 0x88
 80015fa:	ee67 7a87 	vmul.f32	s15, s15, s14
 80015fe:	edc3 7a26 	vstr	s15, [r3, #152]	@ 0x98
 8001602:	4770      	bx	lr
 8001604:	20000224 	.word	0x20000224
 8001608:	3ecccccd 	.word	0x3ecccccd

0800160c <SetCfg_CurrentFanUseTime>:
 800160c:	4601      	mov	r1, r0
 800160e:	2023      	movs	r0, #35	@ 0x23
 8001610:	f7ff bc65 	b.w	8000ede <I2C_EEP_WRITE_U32>

08001614 <GetCfg_CurrentFanUseTime>:
 8001614:	2023      	movs	r0, #35	@ 0x23
 8001616:	f7ff bc0f 	b.w	8000e38 <I2C_EEP_READ_U32>

0800161a <SetCfg_CurrentFanInterValTime>:
 800161a:	4601      	mov	r1, r0
 800161c:	2027      	movs	r0, #39	@ 0x27
 800161e:	f7ff bc5e 	b.w	8000ede <I2C_EEP_WRITE_U32>

08001622 <GetCfg_CurrentFanInterValTime>:
 8001622:	2027      	movs	r0, #39	@ 0x27
 8001624:	f7ff bc08 	b.w	8000e38 <I2C_EEP_READ_U32>

08001628 <SetCfg_Device_ProcType>:
 8001628:	b538      	push	{r3, r4, r5, lr}
 800162a:	1e45      	subs	r5, r0, #1
 800162c:	2406      	movs	r4, #6
 800162e:	4620      	mov	r0, r4
 8001630:	f815 1f01 	ldrb.w	r1, [r5, #1]!
 8001634:	3401      	adds	r4, #1
 8001636:	f7ff fc2d 	bl	8000e94 <I2C_EEP_WRITE_U08>
 800163a:	2c0e      	cmp	r4, #14
 800163c:	d1f7      	bne.n	800162e <SetCfg_Device_ProcType+0x6>
 800163e:	bd38      	pop	{r3, r4, r5, pc}

08001640 <GetCfg_Device_ProcType>:
 8001640:	b538      	push	{r3, r4, r5, lr}
 8001642:	1e45      	subs	r5, r0, #1
 8001644:	2406      	movs	r4, #6
 8001646:	4620      	mov	r0, r4
 8001648:	f7ff fbe8 	bl	8000e1c <I2C_EEP_READ_U08>
 800164c:	3401      	adds	r4, #1
 800164e:	2c0e      	cmp	r4, #14
 8001650:	f805 0f01 	strb.w	r0, [r5, #1]!
 8001654:	d1f7      	bne.n	8001646 <GetCfg_Device_ProcType+0x6>
 8001656:	bd38      	pop	{r3, r4, r5, pc}

08001658 <SetCfg_Device_ProcSerial>:
 8001658:	b538      	push	{r3, r4, r5, lr}
 800165a:	1e45      	subs	r5, r0, #1
 800165c:	240e      	movs	r4, #14
 800165e:	4620      	mov	r0, r4
 8001660:	f815 1f01 	ldrb.w	r1, [r5, #1]!
 8001664:	3401      	adds	r4, #1
 8001666:	f7ff fc15 	bl	8000e94 <I2C_EEP_WRITE_U08>
 800166a:	2c1e      	cmp	r4, #30
 800166c:	d1f7      	bne.n	800165e <SetCfg_Device_ProcSerial+0x6>
 800166e:	bd38      	pop	{r3, r4, r5, pc}

08001670 <GetCfg_Device_ProcSerial>:
 8001670:	b538      	push	{r3, r4, r5, lr}
 8001672:	1e45      	subs	r5, r0, #1
 8001674:	240e      	movs	r4, #14
 8001676:	4620      	mov	r0, r4
 8001678:	f7ff fbd0 	bl	8000e1c <I2C_EEP_READ_U08>
 800167c:	3401      	adds	r4, #1
 800167e:	2c1e      	cmp	r4, #30
 8001680:	f805 0f01 	strb.w	r0, [r5, #1]!
 8001684:	d1f7      	bne.n	8001676 <GetCfg_Device_ProcSerial+0x6>
 8001686:	bd38      	pop	{r3, r4, r5, pc}

08001688 <SetCfg_Device_ProcVer>:
 8001688:	b538      	push	{r3, r4, r5, lr}
 800168a:	1e45      	subs	r5, r0, #1
 800168c:	241e      	movs	r4, #30
 800168e:	4620      	mov	r0, r4
 8001690:	f815 1f01 	ldrb.w	r1, [r5, #1]!
 8001694:	3401      	adds	r4, #1
 8001696:	f7ff fbfd 	bl	8000e94 <I2C_EEP_WRITE_U08>
 800169a:	2c23      	cmp	r4, #35	@ 0x23
 800169c:	d1f7      	bne.n	800168e <SetCfg_Device_ProcVer+0x6>
 800169e:	bd38      	pop	{r3, r4, r5, pc}

080016a0 <Default_FactorySet>:
 80016a0:	b530      	push	{r4, r5, lr}
 80016a2:	f04f 6300 	mov.w	r3, #134217728	@ 0x8000000
 80016a6:	b089      	sub	sp, #36	@ 0x24
 80016a8:	2400      	movs	r4, #0
 80016aa:	e9cd 3402 	strd	r3, r4, [sp, #8]
 80016ae:	e9cd 3404 	strd	r3, r4, [sp, #16]
 80016b2:	4620      	mov	r0, r4
 80016b4:	4b3b      	ldr	r3, [pc, #236]	@ (80017a4 <Default_FactorySet+0x104>)
 80016b6:	9300      	str	r3, [sp, #0]
 80016b8:	e9cd 4406 	strd	r4, r4, [sp, #24]
 80016bc:	f88d 4004 	strb.w	r4, [sp, #4]
 80016c0:	f7ff ffa4 	bl	800160c <SetCfg_CurrentFanUseTime>
 80016c4:	4838      	ldr	r0, [pc, #224]	@ (80017a8 <Default_FactorySet+0x108>)
 80016c6:	f7ff ffa8 	bl	800161a <SetCfg_CurrentFanInterValTime>
 80016ca:	b2e5      	uxtb	r5, r4
 80016cc:	2d08      	cmp	r5, #8
 80016ce:	d821      	bhi.n	8001714 <Default_FactorySet+0x74>
 80016d0:	e8df f005 	tbb	[pc, r5]
 80016d4:	110e0b05 	.word	0x110e0b05
 80016d8:	201d1915 	.word	0x201d1915
 80016dc:	24          	.byte	0x24
 80016dd:	00          	.byte	0x00
 80016de:	2110      	movs	r1, #16
 80016e0:	2044      	movs	r0, #68	@ 0x44
 80016e2:	f7ff fbe3 	bl	8000eac <I2C_EEP_WRITE_U16>
 80016e6:	3401      	adds	r4, #1
 80016e8:	e7ef      	b.n	80016ca <Default_FactorySet+0x2a>
 80016ea:	211c      	movs	r1, #28
 80016ec:	2046      	movs	r0, #70	@ 0x46
 80016ee:	e7f8      	b.n	80016e2 <Default_FactorySet+0x42>
 80016f0:	216f      	movs	r1, #111	@ 0x6f
 80016f2:	2048      	movs	r0, #72	@ 0x48
 80016f4:	e7f5      	b.n	80016e2 <Default_FactorySet+0x42>
 80016f6:	f44f 7184 	mov.w	r1, #264	@ 0x108
 80016fa:	204a      	movs	r0, #74	@ 0x4a
 80016fc:	e7f1      	b.n	80016e2 <Default_FactorySet+0x42>
 80016fe:	f240 51fa 	movw	r1, #1530	@ 0x5fa
 8001702:	204c      	movs	r0, #76	@ 0x4c
 8001704:	e7ed      	b.n	80016e2 <Default_FactorySet+0x42>
 8001706:	f640 41e4 	movw	r1, #3300	@ 0xce4
 800170a:	204e      	movs	r0, #78	@ 0x4e
 800170c:	e7e9      	b.n	80016e2 <Default_FactorySet+0x42>
 800170e:	2164      	movs	r1, #100	@ 0x64
 8001710:	2050      	movs	r0, #80	@ 0x50
 8001712:	e7e6      	b.n	80016e2 <Default_FactorySet+0x42>
 8001714:	f44f 7196 	mov.w	r1, #300	@ 0x12c
 8001718:	2052      	movs	r0, #82	@ 0x52
 800171a:	e7e2      	b.n	80016e2 <Default_FactorySet+0x42>
 800171c:	a802      	add	r0, sp, #8
 800171e:	3d01      	subs	r5, #1
 8001720:	f7ff ff82 	bl	8001628 <SetCfg_Device_ProcType>
 8001724:	f015 05ff 	ands.w	r5, r5, #255	@ 0xff
 8001728:	d1f8      	bne.n	800171c <Default_FactorySet+0x7c>
 800172a:	2410      	movs	r4, #16
 800172c:	a804      	add	r0, sp, #16
 800172e:	3c01      	subs	r4, #1
 8001730:	f7ff ff92 	bl	8001658 <SetCfg_Device_ProcSerial>
 8001734:	f014 04ff 	ands.w	r4, r4, #255	@ 0xff
 8001738:	d1f8      	bne.n	800172c <Default_FactorySet+0x8c>
 800173a:	4668      	mov	r0, sp
 800173c:	f7ff ffa4 	bl	8001688 <SetCfg_Device_ProcVer>
 8001740:	4668      	mov	r0, sp
 8001742:	f7ff ffa1 	bl	8001688 <SetCfg_Device_ProcVer>
 8001746:	4668      	mov	r0, sp
 8001748:	f7ff ff9e 	bl	8001688 <SetCfg_Device_ProcVer>
 800174c:	4668      	mov	r0, sp
 800174e:	f7ff ff9b 	bl	8001688 <SetCfg_Device_ProcVer>
 8001752:	4668      	mov	r0, sp
 8001754:	f7ff ff98 	bl	8001688 <SetCfg_Device_ProcVer>
 8001758:	eeb7 0a00 	vmov.f32	s0, #112	@ 0x3f800000  1.0
 800175c:	2084      	movs	r0, #132	@ 0x84
 800175e:	f7ff fbf0 	bl	8000f42 <I2C_EEP_WRITE_FLOAT>
 8001762:	eeb7 0a00 	vmov.f32	s0, #112	@ 0x3f800000  1.0
 8001766:	2088      	movs	r0, #136	@ 0x88
 8001768:	f7ff fbeb 	bl	8000f42 <I2C_EEP_WRITE_FLOAT>
 800176c:	eeb7 0a00 	vmov.f32	s0, #112	@ 0x3f800000  1.0
 8001770:	208c      	movs	r0, #140	@ 0x8c
 8001772:	f7ff fbe6 	bl	8000f42 <I2C_EEP_WRITE_FLOAT>
 8001776:	eeb7 0a00 	vmov.f32	s0, #112	@ 0x3f800000  1.0
 800177a:	2090      	movs	r0, #144	@ 0x90
 800177c:	f7ff fbe1 	bl	8000f42 <I2C_EEP_WRITE_FLOAT>
 8001780:	eeb7 0a00 	vmov.f32	s0, #112	@ 0x3f800000  1.0
 8001784:	2094      	movs	r0, #148	@ 0x94
 8001786:	f7ff fbdc 	bl	8000f42 <I2C_EEP_WRITE_FLOAT>
 800178a:	eeb7 0a00 	vmov.f32	s0, #112	@ 0x3f800000  1.0
 800178e:	2098      	movs	r0, #152	@ 0x98
 8001790:	f7ff fbd7 	bl	8000f42 <I2C_EEP_WRITE_FLOAT>
 8001794:	eeb7 0a00 	vmov.f32	s0, #112	@ 0x3f800000  1.0
 8001798:	209c      	movs	r0, #156	@ 0x9c
 800179a:	b009      	add	sp, #36	@ 0x24
 800179c:	e8bd 4030 	ldmia.w	sp!, {r4, r5, lr}
 80017a0:	f7ff bbcf 	b.w	8000f42 <I2C_EEP_WRITE_FLOAT>
 80017a4:	01000001 	.word	0x01000001
 80017a8:	00093a80 	.word	0x00093a80

080017ac <GetCfg_Device_ProcVer>:
 80017ac:	b538      	push	{r3, r4, r5, lr}
 80017ae:	1e45      	subs	r5, r0, #1
 80017b0:	241e      	movs	r4, #30
 80017b2:	4620      	mov	r0, r4
 80017b4:	f7ff fb32 	bl	8000e1c <I2C_EEP_READ_U08>
 80017b8:	3401      	adds	r4, #1
 80017ba:	2c23      	cmp	r4, #35	@ 0x23
 80017bc:	f805 0f01 	strb.w	r0, [r5, #1]!
 80017c0:	d1f7      	bne.n	80017b2 <GetCfg_Device_ProcVer+0x6>
 80017c2:	bd38      	pop	{r3, r4, r5, pc}

080017c4 <SetCfg_DeviceUseCount>:
 80017c4:	b510      	push	{r4, lr}
 80017c6:	0e01      	lsrs	r1, r0, #24
 80017c8:	4604      	mov	r4, r0
 80017ca:	2002      	movs	r0, #2
 80017cc:	f7ff fb62 	bl	8000e94 <I2C_EEP_WRITE_U08>
 80017d0:	f3c4 4107 	ubfx	r1, r4, #16, #8
 80017d4:	2003      	movs	r0, #3
 80017d6:	f7ff fb5d 	bl	8000e94 <I2C_EEP_WRITE_U08>
 80017da:	f3c4 2107 	ubfx	r1, r4, #8, #8
 80017de:	2004      	movs	r0, #4
 80017e0:	f7ff fb58 	bl	8000e94 <I2C_EEP_WRITE_U08>
 80017e4:	b2e1      	uxtb	r1, r4
 80017e6:	2005      	movs	r0, #5
 80017e8:	e8bd 4010 	ldmia.w	sp!, {r4, lr}
 80017ec:	f7ff bb52 	b.w	8000e94 <I2C_EEP_WRITE_U08>

080017f0 <GetCfg_DeviceUseCount>:
 80017f0:	b538      	push	{r3, r4, r5, lr}
 80017f2:	2002      	movs	r0, #2
 80017f4:	f7ff fb12 	bl	8000e1c <I2C_EEP_READ_U08>
 80017f8:	0604      	lsls	r4, r0, #24
 80017fa:	2003      	movs	r0, #3
 80017fc:	f7ff fb0e 	bl	8000e1c <I2C_EEP_READ_U08>
 8001800:	ea44 4400 	orr.w	r4, r4, r0, lsl #16
 8001804:	2004      	movs	r0, #4
 8001806:	f7ff fb09 	bl	8000e1c <I2C_EEP_READ_U08>
 800180a:	4605      	mov	r5, r0
 800180c:	2005      	movs	r0, #5
 800180e:	f7ff fb05 	bl	8000e1c <I2C_EEP_READ_U08>
 8001812:	4320      	orrs	r0, r4
 8001814:	ea40 2005 	orr.w	r0, r0, r5, lsl #8
 8001818:	bd38      	pop	{r3, r4, r5, pc}

0800181a <SetCfg_Flash_Firmware_Write>:
 800181a:	2100      	movs	r1, #0
 800181c:	2032      	movs	r0, #50	@ 0x32
 800181e:	f7ff bb39 	b.w	8000e94 <I2C_EEP_WRITE_U08>

08001822 <SetParam_BoundaryVolt>:
 8001822:	2807      	cmp	r0, #7
 8001824:	d816      	bhi.n	8001854 <SetParam_BoundaryVolt+0x32>
 8001826:	e8df f000 	tbb	[pc, r0]
 800182a:	0704      	.short	0x0704
 800182c:	0f0d0b09 	.word	0x0f0d0b09
 8001830:	1311      	.short	0x1311
 8001832:	2044      	movs	r0, #68	@ 0x44
 8001834:	f7ff bb3a 	b.w	8000eac <I2C_EEP_WRITE_U16>
 8001838:	2046      	movs	r0, #70	@ 0x46
 800183a:	e7fb      	b.n	8001834 <SetParam_BoundaryVolt+0x12>
 800183c:	2048      	movs	r0, #72	@ 0x48
 800183e:	e7f9      	b.n	8001834 <SetParam_BoundaryVolt+0x12>
 8001840:	204a      	movs	r0, #74	@ 0x4a
 8001842:	e7f7      	b.n	8001834 <SetParam_BoundaryVolt+0x12>
 8001844:	204c      	movs	r0, #76	@ 0x4c
 8001846:	e7f5      	b.n	8001834 <SetParam_BoundaryVolt+0x12>
 8001848:	204e      	movs	r0, #78	@ 0x4e
 800184a:	e7f3      	b.n	8001834 <SetParam_BoundaryVolt+0x12>
 800184c:	2050      	movs	r0, #80	@ 0x50
 800184e:	e7f1      	b.n	8001834 <SetParam_BoundaryVolt+0x12>
 8001850:	2052      	movs	r0, #82	@ 0x52
 8001852:	e7ef      	b.n	8001834 <SetParam_BoundaryVolt+0x12>
 8001854:	4770      	bx	lr

08001856 <SetParam_AdjCal>:
 8001856:	2806      	cmp	r0, #6
 8001858:	d814      	bhi.n	8001884 <SetParam_AdjCal+0x2e>
 800185a:	e8df f000 	tbb	[pc, r0]
 800185e:	0704      	.short	0x0704
 8001860:	0f0d0b09 	.word	0x0f0d0b09
 8001864:	11          	.byte	0x11
 8001865:	00          	.byte	0x00
 8001866:	2084      	movs	r0, #132	@ 0x84
 8001868:	f7ff bb6b 	b.w	8000f42 <I2C_EEP_WRITE_FLOAT>
 800186c:	2088      	movs	r0, #136	@ 0x88
 800186e:	e7fb      	b.n	8001868 <SetParam_AdjCal+0x12>
 8001870:	208c      	movs	r0, #140	@ 0x8c
 8001872:	e7f9      	b.n	8001868 <SetParam_AdjCal+0x12>
 8001874:	2090      	movs	r0, #144	@ 0x90
 8001876:	e7f7      	b.n	8001868 <SetParam_AdjCal+0x12>
 8001878:	2094      	movs	r0, #148	@ 0x94
 800187a:	e7f5      	b.n	8001868 <SetParam_AdjCal+0x12>
 800187c:	2098      	movs	r0, #152	@ 0x98
 800187e:	e7f3      	b.n	8001868 <SetParam_AdjCal+0x12>
 8001880:	209c      	movs	r0, #156	@ 0x9c
 8001882:	e7f1      	b.n	8001868 <SetParam_AdjCal+0x12>
 8001884:	4770      	bx	lr
	...

08001888 <PARAM_Init>:
 8001888:	b510      	push	{r4, lr}
 800188a:	21a0      	movs	r1, #160	@ 0xa0
 800188c:	f7ff faae 	bl	8000dec <I2C_EEP_Init>
 8001890:	4b06      	ldr	r3, [pc, #24]	@ (80018ac <PARAM_Init+0x24>)
 8001892:	2400      	movs	r4, #0
 8001894:	4618      	mov	r0, r3
 8001896:	2228      	movs	r2, #40	@ 0x28
 8001898:	2100      	movs	r1, #0
 800189a:	f005 f95d 	bl	8006b58 <memset>
 800189e:	3401      	adds	r4, #1
 80018a0:	4603      	mov	r3, r0
 80018a2:	2c06      	cmp	r4, #6
 80018a4:	f103 0328 	add.w	r3, r3, #40	@ 0x28
 80018a8:	d1f4      	bne.n	8001894 <PARAM_Init+0xc>
 80018aa:	bd10      	pop	{r4, pc}
 80018ac:	200000cc 	.word	0x200000cc

080018b0 <PARAM_Process>:
 80018b0:	b538      	push	{r3, r4, r5, lr}
 80018b2:	2001      	movs	r0, #1
 80018b4:	f7ff fab2 	bl	8000e1c <I2C_EEP_READ_U08>
 80018b8:	2801      	cmp	r0, #1
 80018ba:	d005      	beq.n	80018c8 <PARAM_Process+0x18>
 80018bc:	f7ff fef0 	bl	80016a0 <Default_FactorySet>
 80018c0:	2101      	movs	r1, #1
 80018c2:	4608      	mov	r0, r1
 80018c4:	f7ff fae6 	bl	8000e94 <I2C_EEP_WRITE_U08>
 80018c8:	f7ff fea4 	bl	8001614 <GetCfg_CurrentFanUseTime>
 80018cc:	4c42      	ldr	r4, [pc, #264]	@ (80019d8 <PARAM_Process+0x128>)
 80018ce:	60a0      	str	r0, [r4, #8]
 80018d0:	f7ff fea7 	bl	8001622 <GetCfg_CurrentFanInterValTime>
 80018d4:	60e0      	str	r0, [r4, #12]
 80018d6:	3800      	subs	r0, #0
 80018d8:	bf18      	it	ne
 80018da:	2001      	movne	r0, #1
 80018dc:	71a0      	strb	r0, [r4, #6]
 80018de:	4c3f      	ldr	r4, [pc, #252]	@ (80019dc <PARAM_Process+0x12c>)
 80018e0:	2500      	movs	r5, #0
 80018e2:	b2eb      	uxtb	r3, r5
 80018e4:	2b08      	cmp	r3, #8
 80018e6:	d83e      	bhi.n	8001966 <PARAM_Process+0xb6>
 80018e8:	e8df f003 	tbb	[pc, r3]
 80018ec:	1a120b05 	.word	0x1a120b05
 80018f0:	3d372c22 	.word	0x3d372c22
 80018f4:	43          	.byte	0x43
 80018f5:	00          	.byte	0x00
 80018f6:	2044      	movs	r0, #68	@ 0x44
 80018f8:	f7ff fa92 	bl	8000e20 <I2C_EEP_READ_U16>
 80018fc:	60a0      	str	r0, [r4, #8]
 80018fe:	3501      	adds	r5, #1
 8001900:	e7ef      	b.n	80018e2 <PARAM_Process+0x32>
 8001902:	68a3      	ldr	r3, [r4, #8]
 8001904:	60e3      	str	r3, [r4, #12]
 8001906:	2046      	movs	r0, #70	@ 0x46
 8001908:	f7ff fa8a 	bl	8000e20 <I2C_EEP_READ_U16>
 800190c:	6120      	str	r0, [r4, #16]
 800190e:	e7f6      	b.n	80018fe <PARAM_Process+0x4e>
 8001910:	6923      	ldr	r3, [r4, #16]
 8001912:	2048      	movs	r0, #72	@ 0x48
 8001914:	3301      	adds	r3, #1
 8001916:	6363      	str	r3, [r4, #52]	@ 0x34
 8001918:	f7ff fa82 	bl	8000e20 <I2C_EEP_READ_U16>
 800191c:	63a0      	str	r0, [r4, #56]	@ 0x38
 800191e:	e7ee      	b.n	80018fe <PARAM_Process+0x4e>
 8001920:	6ba3      	ldr	r3, [r4, #56]	@ 0x38
 8001922:	204a      	movs	r0, #74	@ 0x4a
 8001924:	3301      	adds	r3, #1
 8001926:	65e3      	str	r3, [r4, #92]	@ 0x5c
 8001928:	f7ff fa7a 	bl	8000e20 <I2C_EEP_READ_U16>
 800192c:	6620      	str	r0, [r4, #96]	@ 0x60
 800192e:	e7e6      	b.n	80018fe <PARAM_Process+0x4e>
 8001930:	6e23      	ldr	r3, [r4, #96]	@ 0x60
 8001932:	204c      	movs	r0, #76	@ 0x4c
 8001934:	3301      	adds	r3, #1
 8001936:	f8c4 3084 	str.w	r3, [r4, #132]	@ 0x84
 800193a:	f7ff fa71 	bl	8000e20 <I2C_EEP_READ_U16>
 800193e:	f8c4 0088 	str.w	r0, [r4, #136]	@ 0x88
 8001942:	e7dc      	b.n	80018fe <PARAM_Process+0x4e>
 8001944:	f8d4 3088 	ldr.w	r3, [r4, #136]	@ 0x88
 8001948:	204e      	movs	r0, #78	@ 0x4e
 800194a:	3301      	adds	r3, #1
 800194c:	f8c4 30ac 	str.w	r3, [r4, #172]	@ 0xac
 8001950:	f7ff fa66 	bl	8000e20 <I2C_EEP_READ_U16>
 8001954:	f8c4 00b0 	str.w	r0, [r4, #176]	@ 0xb0
 8001958:	e7d1      	b.n	80018fe <PARAM_Process+0x4e>
 800195a:	2050      	movs	r0, #80	@ 0x50
 800195c:	f7ff fa60 	bl	8000e20 <I2C_EEP_READ_U16>
 8001960:	f8c4 00d4 	str.w	r0, [r4, #212]	@ 0xd4
 8001964:	e7cb      	b.n	80018fe <PARAM_Process+0x4e>
 8001966:	2052      	movs	r0, #82	@ 0x52
 8001968:	f7ff fa5a 	bl	8000e20 <I2C_EEP_READ_U16>
 800196c:	f8c4 00d8 	str.w	r0, [r4, #216]	@ 0xd8
 8001970:	e7c5      	b.n	80018fe <PARAM_Process+0x4e>
 8001972:	4d1b      	ldr	r5, [pc, #108]	@ (80019e0 <PARAM_Process+0x130>)
 8001974:	4628      	mov	r0, r5
 8001976:	f7ff fe63 	bl	8001640 <GetCfg_Device_ProcType>
 800197a:	f105 0008 	add.w	r0, r5, #8
 800197e:	f7ff fe77 	bl	8001670 <GetCfg_Device_ProcSerial>
 8001982:	f105 0018 	add.w	r0, r5, #24
 8001986:	f7ff ff11 	bl	80017ac <GetCfg_Device_ProcVer>
 800198a:	f7ff ff31 	bl	80017f0 <GetCfg_DeviceUseCount>
 800198e:	6268      	str	r0, [r5, #36]	@ 0x24
 8001990:	2084      	movs	r0, #132	@ 0x84
 8001992:	f7ff fa66 	bl	8000e62 <I2C_EEP_READ_FLOAT>
 8001996:	2088      	movs	r0, #136	@ 0x88
 8001998:	ed84 0a07 	vstr	s0, [r4, #28]
 800199c:	f7ff fa61 	bl	8000e62 <I2C_EEP_READ_FLOAT>
 80019a0:	208c      	movs	r0, #140	@ 0x8c
 80019a2:	ed84 0a08 	vstr	s0, [r4, #32]
 80019a6:	f7ff fa5c 	bl	8000e62 <I2C_EEP_READ_FLOAT>
 80019aa:	2090      	movs	r0, #144	@ 0x90
 80019ac:	ed84 0a12 	vstr	s0, [r4, #72]	@ 0x48
 80019b0:	f7ff fa57 	bl	8000e62 <I2C_EEP_READ_FLOAT>
 80019b4:	2094      	movs	r0, #148	@ 0x94
 80019b6:	ed84 0a1c 	vstr	s0, [r4, #112]	@ 0x70
 80019ba:	f7ff fa52 	bl	8000e62 <I2C_EEP_READ_FLOAT>
 80019be:	2098      	movs	r0, #152	@ 0x98
 80019c0:	ed84 0a26 	vstr	s0, [r4, #152]	@ 0x98
 80019c4:	f7ff fa4d 	bl	8000e62 <I2C_EEP_READ_FLOAT>
 80019c8:	209c      	movs	r0, #156	@ 0x9c
 80019ca:	ed84 0a30 	vstr	s0, [r4, #192]	@ 0xc0
 80019ce:	f7ff fa48 	bl	8000e62 <I2C_EEP_READ_FLOAT>
 80019d2:	ed84 0a3b 	vstr	s0, [r4, #236]	@ 0xec
 80019d6:	bd38      	pop	{r3, r4, r5, pc}
 80019d8:	200000b4 	.word	0x200000b4
 80019dc:	200000cc 	.word	0x200000cc
 80019e0:	20000030 	.word	0x20000030

080019e4 <DeviceInfo.part.0>:
 80019e4:	4b08      	ldr	r3, [pc, #32]	@ (8001a08 <DeviceInfo.part.0+0x24>)
 80019e6:	b430      	push	{r4, r5}
 80019e8:	4c08      	ldr	r4, [pc, #32]	@ (8001a0c <DeviceInfo.part.0+0x28>)
 80019ea:	f103 0510 	add.w	r5, r3, #16
 80019ee:	6818      	ldr	r0, [r3, #0]
 80019f0:	6859      	ldr	r1, [r3, #4]
 80019f2:	4622      	mov	r2, r4
 80019f4:	c203      	stmia	r2!, {r0, r1}
 80019f6:	3308      	adds	r3, #8
 80019f8:	42ab      	cmp	r3, r5
 80019fa:	4614      	mov	r4, r2
 80019fc:	d1f7      	bne.n	80019ee <DeviceInfo.part.0+0xa>
 80019fe:	bc30      	pop	{r4, r5}
 8001a00:	4802      	ldr	r0, [pc, #8]	@ (8001a0c <DeviceInfo.part.0+0x28>)
 8001a02:	f7ff be29 	b.w	8001658 <SetCfg_Device_ProcSerial>
 8001a06:	bf00      	nop
 8001a08:	200002e8 	.word	0x200002e8
 8001a0c:	20000038 	.word	0x20000038

08001a10 <PROC_Init>:
 8001a10:	b510      	push	{r4, lr}
 8001a12:	2420      	movs	r4, #32
 8001a14:	4622      	mov	r2, r4
 8001a16:	2100      	movs	r1, #0
 8001a18:	4809      	ldr	r0, [pc, #36]	@ (8001a40 <PROC_Init+0x30>)
 8001a1a:	f005 f89d 	bl	8006b58 <memset>
 8001a1e:	2210      	movs	r2, #16
 8001a20:	2100      	movs	r1, #0
 8001a22:	4808      	ldr	r0, [pc, #32]	@ (8001a44 <PROC_Init+0x34>)
 8001a24:	f005 f898 	bl	8006b58 <memset>
 8001a28:	4622      	mov	r2, r4
 8001a2a:	4807      	ldr	r0, [pc, #28]	@ (8001a48 <PROC_Init+0x38>)
 8001a2c:	2100      	movs	r1, #0
 8001a2e:	f005 f893 	bl	8006b58 <memset>
 8001a32:	4a06      	ldr	r2, [pc, #24]	@ (8001a4c <PROC_Init+0x3c>)
 8001a34:	2300      	movs	r3, #0
 8001a36:	7013      	strb	r3, [r2, #0]
 8001a38:	4a05      	ldr	r2, [pc, #20]	@ (8001a50 <PROC_Init+0x40>)
 8001a3a:	7013      	strb	r3, [r2, #0]
 8001a3c:	bd10      	pop	{r4, pc}
 8001a3e:	bf00      	nop
 8001a40:	20000224 	.word	0x20000224
 8001a44:	20000214 	.word	0x20000214
 8001a48:	200001f4 	.word	0x200001f4
 8001a4c:	200001c9 	.word	0x200001c9
 8001a50:	200001c8 	.word	0x200001c8

08001a54 <WaitTime_Init>:
 8001a54:	4a04      	ldr	r2, [pc, #16]	@ (8001a68 <WaitTime_Init+0x14>)
 8001a56:	2300      	movs	r3, #0
 8001a58:	7393      	strb	r3, [r2, #14]
 8001a5a:	8253      	strh	r3, [r2, #18]
 8001a5c:	6193      	str	r3, [r2, #24]
 8001a5e:	6213      	str	r3, [r2, #32]
 8001a60:	4a02      	ldr	r2, [pc, #8]	@ (8001a6c <WaitTime_Init+0x18>)
 8001a62:	6013      	str	r3, [r2, #0]
 8001a64:	4770      	bx	lr
 8001a66:	bf00      	nop
 8001a68:	200001cc 	.word	0x200001cc
 8001a6c:	200008b4 	.word	0x200008b4

08001a70 <WaitHoldTime_Sec>:
 8001a70:	b510      	push	{r4, lr}
 8001a72:	4c08      	ldr	r4, [pc, #32]	@ (8001a94 <WaitHoldTime_Sec+0x24>)
 8001a74:	b920      	cbnz	r0, 8001a80 <WaitHoldTime_Sec+0x10>
 8001a76:	f7ff ffed 	bl	8001a54 <WaitTime_Init>
 8001a7a:	7520      	strb	r0, [r4, #20]
 8001a7c:	2000      	movs	r0, #0
 8001a7e:	bd10      	pop	{r4, pc}
 8001a80:	69a3      	ldr	r3, [r4, #24]
 8001a82:	2001      	movs	r0, #1
 8001a84:	428b      	cmp	r3, r1
 8001a86:	7520      	strb	r0, [r4, #20]
 8001a88:	d3f8      	bcc.n	8001a7c <WaitHoldTime_Sec+0xc>
 8001a8a:	2300      	movs	r3, #0
 8001a8c:	61a3      	str	r3, [r4, #24]
 8001a8e:	7523      	strb	r3, [r4, #20]
 8001a90:	e7f5      	b.n	8001a7e <WaitHoldTime_Sec+0xe>
 8001a92:	bf00      	nop
 8001a94:	200001cc 	.word	0x200001cc

08001a98 <WaitHoldTime_mSec>:
 8001a98:	b510      	push	{r4, lr}
 8001a9a:	4c08      	ldr	r4, [pc, #32]	@ (8001abc <WaitHoldTime_mSec+0x24>)
 8001a9c:	b920      	cbnz	r0, 8001aa8 <WaitHoldTime_mSec+0x10>
 8001a9e:	f7ff ffd9 	bl	8001a54 <WaitTime_Init>
 8001aa2:	7720      	strb	r0, [r4, #28]
 8001aa4:	2000      	movs	r0, #0
 8001aa6:	bd10      	pop	{r4, pc}
 8001aa8:	6a23      	ldr	r3, [r4, #32]
 8001aaa:	2001      	movs	r0, #1
 8001aac:	428b      	cmp	r3, r1
 8001aae:	7720      	strb	r0, [r4, #28]
 8001ab0:	d3f8      	bcc.n	8001aa4 <WaitHoldTime_mSec+0xc>
 8001ab2:	2300      	movs	r3, #0
 8001ab4:	6223      	str	r3, [r4, #32]
 8001ab6:	7723      	strb	r3, [r4, #28]
 8001ab8:	e7f5      	b.n	8001aa6 <WaitHoldTime_mSec+0xe>
 8001aba:	bf00      	nop
 8001abc:	200001cc 	.word	0x200001cc

08001ac0 <MCU_AlarmTempMonitor>:
 8001ac0:	b508      	push	{r3, lr}
 8001ac2:	b328      	cbz	r0, 8001b10 <MCU_AlarmTempMonitor+0x50>
 8001ac4:	ee07 0a90 	vmov	s15, r0
 8001ac8:	eddf 6a13 	vldr	s13, [pc, #76]	@ 8001b18 <MCU_AlarmTempMonitor+0x58>
 8001acc:	eef8 7a67 	vcvt.f32.u32	s15, s15
 8001ad0:	ee87 7aa6 	vdiv.f32	s14, s15, s13
 8001ad4:	eddf 7a11 	vldr	s15, [pc, #68]	@ 8001b1c <MCU_AlarmTempMonitor+0x5c>
 8001ad8:	ee67 7a27 	vmul.f32	s15, s14, s15
 8001adc:	ee17 0a90 	vmov	r0, s15
 8001ae0:	f7fe fcda 	bl	8000498 <__aeabi_f2d>
 8001ae4:	4b0e      	ldr	r3, [pc, #56]	@ (8001b20 <MCU_AlarmTempMonitor+0x60>)
 8001ae6:	2200      	movs	r2, #0
 8001ae8:	f7fe fb76 	bl	80001d8 <__aeabi_dsub>
 8001aec:	4b0d      	ldr	r3, [pc, #52]	@ (8001b24 <MCU_AlarmTempMonitor+0x64>)
 8001aee:	2200      	movs	r2, #0
 8001af0:	f7fe fe54 	bl	800079c <__aeabi_ddiv>
 8001af4:	f7fe ff3a 	bl	800096c <__aeabi_d2f>
 8001af8:	eddf 7a0b 	vldr	s15, [pc, #44]	@ 8001b28 <MCU_AlarmTempMonitor+0x68>
 8001afc:	ee07 0a10 	vmov	s14, r0
 8001b00:	eeb4 7ae7 	vcmpe.f32	s14, s15
 8001b04:	eef1 fa10 	vmrs	APSR_nzcv, fpscr
 8001b08:	bfcc      	ite	gt
 8001b0a:	2001      	movgt	r0, #1
 8001b0c:	2000      	movle	r0, #0
 8001b0e:	0240      	lsls	r0, r0, #9
 8001b10:	4b06      	ldr	r3, [pc, #24]	@ (8001b2c <MCU_AlarmTempMonitor+0x6c>)
 8001b12:	8398      	strh	r0, [r3, #28]
 8001b14:	2000      	movs	r0, #0
 8001b16:	bd08      	pop	{r3, pc}
 8001b18:	457ff000 	.word	0x457ff000
 8001b1c:	454e4000 	.word	0x454e4000
 8001b20:	4087c000 	.word	0x4087c000
 8001b24:	40040000 	.word	0x40040000
 8001b28:	42700000 	.word	0x42700000
 8001b2c:	200001f4 	.word	0x200001f4

08001b30 <FanCleanCtrl>:
 8001b30:	e92d 41f0 	stmdb	sp!, {r4, r5, r6, r7, r8, lr}
 8001b34:	4f3c      	ldr	r7, [pc, #240]	@ (8001c28 <FanCleanCtrl+0xf8>)
 8001b36:	7a3c      	ldrb	r4, [r7, #8]
 8001b38:	b984      	cbnz	r4, 8001b5c <FanCleanCtrl+0x2c>
 8001b3a:	2501      	movs	r5, #1
 8001b3c:	4620      	mov	r0, r4
 8001b3e:	f7ff ff89 	bl	8001a54 <WaitTime_Init>
 8001b42:	723d      	strb	r5, [r7, #8]
 8001b44:	f7ff fa32 	bl	8000fac <EXT_LD_Ctrl>
 8001b48:	4620      	mov	r0, r4
 8001b4a:	f7ff fa49 	bl	8000fe0 <EXT_HV_Ctrl>
 8001b4e:	4620      	mov	r0, r4
 8001b50:	f7ff fa60 	bl	8001014 <EXT_PD_Ctrl>
 8001b54:	4629      	mov	r1, r5
 8001b56:	4628      	mov	r0, r5
 8001b58:	f7ff fbd2 	bl	8001300 <FAN_Ctrl>
 8001b5c:	210a      	movs	r1, #10
 8001b5e:	2001      	movs	r0, #1
 8001b60:	f7ff ff86 	bl	8001a70 <WaitHoldTime_Sec>
 8001b64:	2801      	cmp	r0, #1
 8001b66:	4605      	mov	r5, r0
 8001b68:	d15c      	bne.n	8001c24 <FanCleanCtrl+0xf4>
 8001b6a:	4c30      	ldr	r4, [pc, #192]	@ (8001c2c <FanCleanCtrl+0xfc>)
 8001b6c:	f894 3102 	ldrb.w	r3, [r4, #258]	@ 0x102
 8001b70:	18e2      	adds	r2, r4, r3
 8001b72:	21c0      	movs	r1, #192	@ 0xc0
 8001b74:	f882 1080 	strb.w	r1, [r2, #128]	@ 0x80
 8001b78:	1c5a      	adds	r2, r3, #1
 8001b7a:	fa54 f282 	uxtab	r2, r4, r2
 8001b7e:	f04f 0800 	mov.w	r8, #0
 8001b82:	f882 8080 	strb.w	r8, [r2, #128]	@ 0x80
 8001b86:	1c9a      	adds	r2, r3, #2
 8001b88:	fa54 f282 	uxtab	r2, r4, r2
 8001b8c:	2104      	movs	r1, #4
 8001b8e:	f882 1080 	strb.w	r1, [r2, #128]	@ 0x80
 8001b92:	1cda      	adds	r2, r3, #3
 8001b94:	fa54 f282 	uxtab	r2, r4, r2
 8001b98:	f894 110a 	ldrb.w	r1, [r4, #266]	@ 0x10a
 8001b9c:	f882 1080 	strb.w	r1, [r2, #128]	@ 0x80
 8001ba0:	1d5e      	adds	r6, r3, #5
 8001ba2:	1d1a      	adds	r2, r3, #4
 8001ba4:	fa54 f282 	uxtab	r2, r4, r2
 8001ba8:	b2f6      	uxtb	r6, r6
 8001baa:	3306      	adds	r3, #6
 8001bac:	4631      	mov	r1, r6
 8001bae:	f104 0080 	add.w	r0, r4, #128	@ 0x80
 8001bb2:	f882 8080 	strb.w	r8, [r2, #128]	@ 0x80
 8001bb6:	f884 3102 	strb.w	r3, [r4, #258]	@ 0x102
 8001bba:	f001 fc15 	bl	80033e8 <UART_Chksum>
 8001bbe:	4426      	add	r6, r4
 8001bc0:	f886 0080 	strb.w	r0, [r6, #128]	@ 0x80
 8001bc4:	f001 fbb0 	bl	8003328 <UART_StuffAssambly>
 8001bc8:	f894 3102 	ldrb.w	r3, [r4, #258]	@ 0x102
 8001bcc:	1c5a      	adds	r2, r3, #1
 8001bce:	4423      	add	r3, r4
 8001bd0:	f884 2102 	strb.w	r2, [r4, #258]	@ 0x102
 8001bd4:	22c2      	movs	r2, #194	@ 0xc2
 8001bd6:	f883 2080 	strb.w	r2, [r3, #128]	@ 0x80
 8001bda:	7afb      	ldrb	r3, [r7, #11]
 8001bdc:	2b01      	cmp	r3, #1
 8001bde:	d11c      	bne.n	8001c1a <FanCleanCtrl+0xea>
 8001be0:	4629      	mov	r1, r5
 8001be2:	4640      	mov	r0, r8
 8001be4:	f7ff fb8c 	bl	8001300 <FAN_Ctrl>
 8001be8:	4628      	mov	r0, r5
 8001bea:	f7ff f9df 	bl	8000fac <EXT_LD_Ctrl>
 8001bee:	4628      	mov	r0, r5
 8001bf0:	f7ff f9f6 	bl	8000fe0 <EXT_HV_Ctrl>
 8001bf4:	4628      	mov	r0, r5
 8001bf6:	f7ff fa0d 	bl	8001014 <EXT_PD_Ctrl>
 8001bfa:	2600      	movs	r6, #0
 8001bfc:	4b0c      	ldr	r3, [pc, #48]	@ (8001c30 <FanCleanCtrl+0x100>)
 8001bfe:	4630      	mov	r0, r6
 8001c00:	609e      	str	r6, [r3, #8]
 8001c02:	f7ff fd03 	bl	800160c <SetCfg_CurrentFanUseTime>
 8001c06:	2301      	movs	r3, #1
 8001c08:	f884 3100 	strb.w	r3, [r4, #256]	@ 0x100
 8001c0c:	737e      	strb	r6, [r7, #13]
 8001c0e:	f7ff ff21 	bl	8001a54 <WaitTime_Init>
 8001c12:	723e      	strb	r6, [r7, #8]
 8001c14:	4628      	mov	r0, r5
 8001c16:	e8bd 81f0 	ldmia.w	sp!, {r4, r5, r6, r7, r8, pc}
 8001c1a:	4641      	mov	r1, r8
 8001c1c:	4640      	mov	r0, r8
 8001c1e:	f7ff fb6f 	bl	8001300 <FAN_Ctrl>
 8001c22:	e7ea      	b.n	8001bfa <FanCleanCtrl+0xca>
 8001c24:	2500      	movs	r5, #0
 8001c26:	e7f5      	b.n	8001c14 <FanCleanCtrl+0xe4>
 8001c28:	200001f4 	.word	0x200001f4
 8001c2c:	200002e4 	.word	0x200002e4
 8001c30:	200000b4 	.word	0x200000b4

08001c34 <Measure_Start>:
 8001c34:	b538      	push	{r3, r4, r5, lr}
 8001c36:	4c0f      	ldr	r4, [pc, #60]	@ (8001c74 <Measure_Start+0x40>)
 8001c38:	7825      	ldrb	r5, [r4, #0]
 8001c3a:	b925      	cbnz	r5, 8001c46 <Measure_Start+0x12>
 8001c3c:	2001      	movs	r0, #1
 8001c3e:	f7ff f9b5 	bl	8000fac <EXT_LD_Ctrl>
 8001c42:	80e5      	strh	r5, [r4, #6]
 8001c44:	60a5      	str	r5, [r4, #8]
 8001c46:	4b0c      	ldr	r3, [pc, #48]	@ (8001c78 <Measure_Start+0x44>)
 8001c48:	781c      	ldrb	r4, [r3, #0]
 8001c4a:	b934      	cbnz	r4, 8001c5a <Measure_Start+0x26>
 8001c4c:	2101      	movs	r1, #1
 8001c4e:	4620      	mov	r0, r4
 8001c50:	f7ff fb56 	bl	8001300 <FAN_Ctrl>
 8001c54:	4b09      	ldr	r3, [pc, #36]	@ (8001c7c <Measure_Start+0x48>)
 8001c56:	80dc      	strh	r4, [r3, #6]
 8001c58:	609c      	str	r4, [r3, #8]
 8001c5a:	4c09      	ldr	r4, [pc, #36]	@ (8001c80 <Measure_Start+0x4c>)
 8001c5c:	7825      	ldrb	r5, [r4, #0]
 8001c5e:	b925      	cbnz	r5, 8001c6a <Measure_Start+0x36>
 8001c60:	2001      	movs	r0, #1
 8001c62:	f7ff f9bd 	bl	8000fe0 <EXT_HV_Ctrl>
 8001c66:	80e5      	strh	r5, [r4, #6]
 8001c68:	60a5      	str	r5, [r4, #8]
 8001c6a:	4b06      	ldr	r3, [pc, #24]	@ (8001c84 <Measure_Start+0x50>)
 8001c6c:	2201      	movs	r2, #1
 8001c6e:	71da      	strb	r2, [r3, #7]
 8001c70:	bd38      	pop	{r3, r4, r5, pc}
 8001c72:	bf00      	nop
 8001c74:	20000094 	.word	0x20000094
 8001c78:	200000b4 	.word	0x200000b4
 8001c7c:	200000a4 	.word	0x200000a4
 8001c80:	20000084 	.word	0x20000084
 8001c84:	200001f4 	.word	0x200001f4

08001c88 <Measure_Stop>:
 8001c88:	b510      	push	{r4, lr}
 8001c8a:	4c12      	ldr	r4, [pc, #72]	@ (8001cd4 <Measure_Stop+0x4c>)
 8001c8c:	7823      	ldrb	r3, [r4, #0]
 8001c8e:	2b01      	cmp	r3, #1
 8001c90:	d105      	bne.n	8001c9e <Measure_Stop+0x16>
 8001c92:	2000      	movs	r0, #0
 8001c94:	f7ff f98a 	bl	8000fac <EXT_LD_Ctrl>
 8001c98:	2300      	movs	r3, #0
 8001c9a:	80e3      	strh	r3, [r4, #6]
 8001c9c:	60a3      	str	r3, [r4, #8]
 8001c9e:	4b0e      	ldr	r3, [pc, #56]	@ (8001cd8 <Measure_Stop+0x50>)
 8001ca0:	781b      	ldrb	r3, [r3, #0]
 8001ca2:	2b01      	cmp	r3, #1
 8001ca4:	d107      	bne.n	8001cb6 <Measure_Stop+0x2e>
 8001ca6:	2100      	movs	r1, #0
 8001ca8:	4608      	mov	r0, r1
 8001caa:	f7ff fb29 	bl	8001300 <FAN_Ctrl>
 8001cae:	4b0b      	ldr	r3, [pc, #44]	@ (8001cdc <Measure_Stop+0x54>)
 8001cb0:	2200      	movs	r2, #0
 8001cb2:	80da      	strh	r2, [r3, #6]
 8001cb4:	609a      	str	r2, [r3, #8]
 8001cb6:	4c0a      	ldr	r4, [pc, #40]	@ (8001ce0 <Measure_Stop+0x58>)
 8001cb8:	7823      	ldrb	r3, [r4, #0]
 8001cba:	2b01      	cmp	r3, #1
 8001cbc:	d105      	bne.n	8001cca <Measure_Stop+0x42>
 8001cbe:	2000      	movs	r0, #0
 8001cc0:	f7ff f98e 	bl	8000fe0 <EXT_HV_Ctrl>
 8001cc4:	2300      	movs	r3, #0
 8001cc6:	80e3      	strh	r3, [r4, #6]
 8001cc8:	60a3      	str	r3, [r4, #8]
 8001cca:	4b06      	ldr	r3, [pc, #24]	@ (8001ce4 <Measure_Stop+0x5c>)
 8001ccc:	2200      	movs	r2, #0
 8001cce:	71da      	strb	r2, [r3, #7]
 8001cd0:	bd10      	pop	{r4, pc}
 8001cd2:	bf00      	nop
 8001cd4:	20000094 	.word	0x20000094
 8001cd8:	200000b4 	.word	0x200000b4
 8001cdc:	200000a4 	.word	0x200000a4
 8001ce0:	20000084 	.word	0x20000084
 8001ce4:	200001f4 	.word	0x200001f4

08001ce8 <AssmTxMsg_GetBoundaryVolt>:
 8001ce8:	b510      	push	{r4, lr}
 8001cea:	2807      	cmp	r0, #7
 8001cec:	d821      	bhi.n	8001d32 <AssmTxMsg_GetBoundaryVolt+0x4a>
 8001cee:	e8df f000 	tbb	[pc, r0]
 8001cf2:	2104      	.short	0x2104
 8001cf4:	21212121 	.word	0x21212121
 8001cf8:	4534      	.short	0x4534
 8001cfa:	4a29      	ldr	r2, [pc, #164]	@ (8001da0 <AssmTxMsg_GetBoundaryVolt+0xb8>)
 8001cfc:	f892 3102 	ldrb.w	r3, [r2, #258]	@ 0x102
 8001d00:	18d1      	adds	r1, r2, r3
 8001d02:	2000      	movs	r0, #0
 8001d04:	f881 0080 	strb.w	r0, [r1, #128]	@ 0x80
 8001d08:	1c59      	adds	r1, r3, #1
 8001d0a:	fa52 f181 	uxtab	r1, r2, r1
 8001d0e:	f881 0080 	strb.w	r0, [r1, #128]	@ 0x80
 8001d12:	4924      	ldr	r1, [pc, #144]	@ (8001da4 <AssmTxMsg_GetBoundaryVolt+0xbc>)
 8001d14:	6888      	ldr	r0, [r1, #8]
 8001d16:	1c99      	adds	r1, r3, #2
 8001d18:	fa52 f181 	uxtab	r1, r2, r1
 8001d1c:	0a04      	lsrs	r4, r0, #8
 8001d1e:	f881 4080 	strb.w	r4, [r1, #128]	@ 0x80
 8001d22:	1d19      	adds	r1, r3, #4
 8001d24:	3303      	adds	r3, #3
 8001d26:	fa52 f383 	uxtab	r3, r2, r3
 8001d2a:	f882 1102 	strb.w	r1, [r2, #258]	@ 0x102
 8001d2e:	f883 0080 	strb.w	r0, [r3, #128]	@ 0x80
 8001d32:	bd10      	pop	{r4, pc}
 8001d34:	4a1a      	ldr	r2, [pc, #104]	@ (8001da0 <AssmTxMsg_GetBoundaryVolt+0xb8>)
 8001d36:	f892 3102 	ldrb.w	r3, [r2, #258]	@ 0x102
 8001d3a:	18d1      	adds	r1, r2, r3
 8001d3c:	2400      	movs	r4, #0
 8001d3e:	f881 4080 	strb.w	r4, [r1, #128]	@ 0x80
 8001d42:	1c59      	adds	r1, r3, #1
 8001d44:	fa52 f181 	uxtab	r1, r2, r1
 8001d48:	2428      	movs	r4, #40	@ 0x28
 8001d4a:	f881 0080 	strb.w	r0, [r1, #128]	@ 0x80
 8001d4e:	4915      	ldr	r1, [pc, #84]	@ (8001da4 <AssmTxMsg_GetBoundaryVolt+0xbc>)
 8001d50:	3801      	subs	r0, #1
 8001d52:	fb04 1100 	mla	r1, r4, r0, r1
 8001d56:	6908      	ldr	r0, [r1, #16]
 8001d58:	e7dd      	b.n	8001d16 <AssmTxMsg_GetBoundaryVolt+0x2e>
 8001d5a:	4a11      	ldr	r2, [pc, #68]	@ (8001da0 <AssmTxMsg_GetBoundaryVolt+0xb8>)
 8001d5c:	f892 3102 	ldrb.w	r3, [r2, #258]	@ 0x102
 8001d60:	18d1      	adds	r1, r2, r3
 8001d62:	2000      	movs	r0, #0
 8001d64:	f881 0080 	strb.w	r0, [r1, #128]	@ 0x80
 8001d68:	1c59      	adds	r1, r3, #1
 8001d6a:	fa52 f181 	uxtab	r1, r2, r1
 8001d6e:	2006      	movs	r0, #6
 8001d70:	f881 0080 	strb.w	r0, [r1, #128]	@ 0x80
 8001d74:	490b      	ldr	r1, [pc, #44]	@ (8001da4 <AssmTxMsg_GetBoundaryVolt+0xbc>)
 8001d76:	f8d1 00d4 	ldr.w	r0, [r1, #212]	@ 0xd4
 8001d7a:	e7cc      	b.n	8001d16 <AssmTxMsg_GetBoundaryVolt+0x2e>
 8001d7c:	4a08      	ldr	r2, [pc, #32]	@ (8001da0 <AssmTxMsg_GetBoundaryVolt+0xb8>)
 8001d7e:	f892 3102 	ldrb.w	r3, [r2, #258]	@ 0x102
 8001d82:	18d1      	adds	r1, r2, r3
 8001d84:	2000      	movs	r0, #0
 8001d86:	f881 0080 	strb.w	r0, [r1, #128]	@ 0x80
 8001d8a:	1c59      	adds	r1, r3, #1
 8001d8c:	fa52 f181 	uxtab	r1, r2, r1
 8001d90:	2007      	movs	r0, #7
 8001d92:	f881 0080 	strb.w	r0, [r1, #128]	@ 0x80
 8001d96:	4903      	ldr	r1, [pc, #12]	@ (8001da4 <AssmTxMsg_GetBoundaryVolt+0xbc>)
 8001d98:	f8d1 00d8 	ldr.w	r0, [r1, #216]	@ 0xd8
 8001d9c:	e7bb      	b.n	8001d16 <AssmTxMsg_GetBoundaryVolt+0x2e>
 8001d9e:	bf00      	nop
 8001da0:	200002e4 	.word	0x200002e4
 8001da4:	200000cc 	.word	0x200000cc

08001da8 <SetBoundaryVolt>:
 8001da8:	b510      	push	{r4, lr}
 8001daa:	2807      	cmp	r0, #7
 8001dac:	d811      	bhi.n	8001dd2 <SetBoundaryVolt+0x2a>
 8001dae:	e8df f000 	tbb	[pc, r0]
 8001db2:	1104      	.short	0x1104
 8001db4:	11111111 	.word	0x11111111
 8001db8:	281f      	.short	0x281f
 8001dba:	4b16      	ldr	r3, [pc, #88]	@ (8001e14 <SetBoundaryVolt+0x6c>)
 8001dbc:	4c16      	ldr	r4, [pc, #88]	@ (8001e18 <SetBoundaryVolt+0x70>)
 8001dbe:	88d9      	ldrh	r1, [r3, #6]
 8001dc0:	ba49      	rev16	r1, r1
 8001dc2:	b289      	uxth	r1, r1
 8001dc4:	2000      	movs	r0, #0
 8001dc6:	60a1      	str	r1, [r4, #8]
 8001dc8:	f7ff fd2b 	bl	8001822 <SetParam_BoundaryVolt>
 8001dcc:	68a3      	ldr	r3, [r4, #8]
 8001dce:	3301      	adds	r3, #1
 8001dd0:	60e3      	str	r3, [r4, #12]
 8001dd2:	bd10      	pop	{r4, pc}
 8001dd4:	4b0f      	ldr	r3, [pc, #60]	@ (8001e14 <SetBoundaryVolt+0x6c>)
 8001dd6:	88d9      	ldrh	r1, [r3, #6]
 8001dd8:	4b0f      	ldr	r3, [pc, #60]	@ (8001e18 <SetBoundaryVolt+0x70>)
 8001dda:	1e42      	subs	r2, r0, #1
 8001ddc:	2428      	movs	r4, #40	@ 0x28
 8001dde:	ba49      	rev16	r1, r1
 8001de0:	fb04 3302 	mla	r3, r4, r2, r3
 8001de4:	b289      	uxth	r1, r1
 8001de6:	6119      	str	r1, [r3, #16]
 8001de8:	e8bd 4010 	ldmia.w	sp!, {r4, lr}
 8001dec:	f7ff bd19 	b.w	8001822 <SetParam_BoundaryVolt>
 8001df0:	4b08      	ldr	r3, [pc, #32]	@ (8001e14 <SetBoundaryVolt+0x6c>)
 8001df2:	88d9      	ldrh	r1, [r3, #6]
 8001df4:	4b08      	ldr	r3, [pc, #32]	@ (8001e18 <SetBoundaryVolt+0x70>)
 8001df6:	ba49      	rev16	r1, r1
 8001df8:	b289      	uxth	r1, r1
 8001dfa:	f8c3 10d4 	str.w	r1, [r3, #212]	@ 0xd4
 8001dfe:	2006      	movs	r0, #6
 8001e00:	e7f2      	b.n	8001de8 <SetBoundaryVolt+0x40>
 8001e02:	4b04      	ldr	r3, [pc, #16]	@ (8001e14 <SetBoundaryVolt+0x6c>)
 8001e04:	88d9      	ldrh	r1, [r3, #6]
 8001e06:	4b04      	ldr	r3, [pc, #16]	@ (8001e18 <SetBoundaryVolt+0x70>)
 8001e08:	ba49      	rev16	r1, r1
 8001e0a:	b289      	uxth	r1, r1
 8001e0c:	f8c3 10d8 	str.w	r1, [r3, #216]	@ 0xd8
 8001e10:	2007      	movs	r0, #7
 8001e12:	e7e9      	b.n	8001de8 <SetBoundaryVolt+0x40>
 8001e14:	200002e4 	.word	0x200002e4
 8001e18:	200000cc 	.word	0x200000cc

08001e1c <AssmTxMsg_GetAdjustCal>:
 8001e1c:	b510      	push	{r4, lr}
 8001e1e:	bb10      	cbnz	r0, 8001e66 <AssmTxMsg_GetAdjustCal+0x4a>
 8001e20:	4b19      	ldr	r3, [pc, #100]	@ (8001e88 <AssmTxMsg_GetAdjustCal+0x6c>)
 8001e22:	69da      	ldr	r2, [r3, #28]
 8001e24:	4919      	ldr	r1, [pc, #100]	@ (8001e8c <AssmTxMsg_GetAdjustCal+0x70>)
 8001e26:	f891 3102 	ldrb.w	r3, [r1, #258]	@ 0x102
 8001e2a:	18cc      	adds	r4, r1, r3
 8001e2c:	f884 0080 	strb.w	r0, [r4, #128]	@ 0x80
 8001e30:	1c58      	adds	r0, r3, #1
 8001e32:	fa51 f080 	uxtab	r0, r1, r0
 8001e36:	0e14      	lsrs	r4, r2, #24
 8001e38:	f880 4080 	strb.w	r4, [r0, #128]	@ 0x80
 8001e3c:	1c98      	adds	r0, r3, #2
 8001e3e:	fa51 f080 	uxtab	r0, r1, r0
 8001e42:	0c14      	lsrs	r4, r2, #16
 8001e44:	f880 4080 	strb.w	r4, [r0, #128]	@ 0x80
 8001e48:	1cd8      	adds	r0, r3, #3
 8001e4a:	fa51 f080 	uxtab	r0, r1, r0
 8001e4e:	0a14      	lsrs	r4, r2, #8
 8001e50:	f880 4080 	strb.w	r4, [r0, #128]	@ 0x80
 8001e54:	1d58      	adds	r0, r3, #5
 8001e56:	3304      	adds	r3, #4
 8001e58:	fa51 f383 	uxtab	r3, r1, r3
 8001e5c:	f881 0102 	strb.w	r0, [r1, #258]	@ 0x102
 8001e60:	f883 2080 	strb.w	r2, [r3, #128]	@ 0x80
 8001e64:	bd10      	pop	{r4, pc}
 8001e66:	1e43      	subs	r3, r0, #1
 8001e68:	b2da      	uxtb	r2, r3
 8001e6a:	2a04      	cmp	r2, #4
 8001e6c:	d804      	bhi.n	8001e78 <AssmTxMsg_GetAdjustCal+0x5c>
 8001e6e:	2228      	movs	r2, #40	@ 0x28
 8001e70:	4353      	muls	r3, r2
 8001e72:	4a07      	ldr	r2, [pc, #28]	@ (8001e90 <AssmTxMsg_GetAdjustCal+0x74>)
 8001e74:	58d2      	ldr	r2, [r2, r3]
 8001e76:	e7d5      	b.n	8001e24 <AssmTxMsg_GetAdjustCal+0x8>
 8001e78:	2806      	cmp	r0, #6
 8001e7a:	bf0a      	itet	eq
 8001e7c:	4b02      	ldreq	r3, [pc, #8]	@ (8001e88 <AssmTxMsg_GetAdjustCal+0x6c>)
 8001e7e:	2200      	movne	r2, #0
 8001e80:	f8d3 20ec 	ldreq.w	r2, [r3, #236]	@ 0xec
 8001e84:	e7ce      	b.n	8001e24 <AssmTxMsg_GetAdjustCal+0x8>
 8001e86:	bf00      	nop
 8001e88:	200000cc 	.word	0x200000cc
 8001e8c:	200002e4 	.word	0x200002e4
 8001e90:	200000ec 	.word	0x200000ec

08001e94 <SetAdjustCal>:
 8001e94:	b410      	push	{r4}
 8001e96:	4b14      	ldr	r3, [pc, #80]	@ (8001ee8 <SetAdjustCal+0x54>)
 8001e98:	f8d3 3006 	ldr.w	r3, [r3, #6]
 8001e9c:	ba1b      	rev	r3, r3
 8001e9e:	b940      	cbnz	r0, 8001eb2 <SetAdjustCal+0x1e>
 8001ea0:	ee00 3a10 	vmov	s0, r3
 8001ea4:	4b11      	ldr	r3, [pc, #68]	@ (8001eec <SetAdjustCal+0x58>)
 8001ea6:	ed83 0a07 	vstr	s0, [r3, #28]
 8001eaa:	f85d 4b04 	ldr.w	r4, [sp], #4
 8001eae:	f7ff bcd2 	b.w	8001856 <SetParam_AdjCal>
 8001eb2:	1e41      	subs	r1, r0, #1
 8001eb4:	b2cc      	uxtb	r4, r1
 8001eb6:	2c04      	cmp	r4, #4
 8001eb8:	d808      	bhi.n	8001ecc <SetAdjustCal+0x38>
 8001eba:	ee00 3a10 	vmov	s0, r3
 8001ebe:	4b0b      	ldr	r3, [pc, #44]	@ (8001eec <SetAdjustCal+0x58>)
 8001ec0:	2228      	movs	r2, #40	@ 0x28
 8001ec2:	fb02 3301 	mla	r3, r2, r1, r3
 8001ec6:	ed83 0a08 	vstr	s0, [r3, #32]
 8001eca:	e7ee      	b.n	8001eaa <SetAdjustCal+0x16>
 8001ecc:	2806      	cmp	r0, #6
 8001ece:	d108      	bne.n	8001ee2 <SetAdjustCal+0x4e>
 8001ed0:	4a06      	ldr	r2, [pc, #24]	@ (8001eec <SetAdjustCal+0x58>)
 8001ed2:	f85d 4b04 	ldr.w	r4, [sp], #4
 8001ed6:	f8b2 10d4 	ldrh.w	r1, [r2, #212]	@ 0xd4
 8001eda:	f8c2 30ec 	str.w	r3, [r2, #236]	@ 0xec
 8001ede:	f7ff bca0 	b.w	8001822 <SetParam_BoundaryVolt>
 8001ee2:	f85d 4b04 	ldr.w	r4, [sp], #4
 8001ee6:	4770      	bx	lr
 8001ee8:	200002e4 	.word	0x200002e4
 8001eec:	200000cc 	.word	0x200000cc

08001ef0 <AssmTxMsg_DeviceInfo>:
 8001ef0:	b530      	push	{r4, r5, lr}
 8001ef2:	2803      	cmp	r0, #3
 8001ef4:	d828      	bhi.n	8001f48 <AssmTxMsg_DeviceInfo+0x58>
 8001ef6:	e8df f000 	tbb	[pc, r0]
 8001efa:	1702      	.short	0x1702
 8001efc:	2817      	.short	0x2817
 8001efe:	4a1e      	ldr	r2, [pc, #120]	@ (8001f78 <AssmTxMsg_DeviceInfo+0x88>)
 8001f00:	4c1e      	ldr	r4, [pc, #120]	@ (8001f7c <AssmTxMsg_DeviceInfo+0x8c>)
 8001f02:	f892 3102 	ldrb.w	r3, [r2, #258]	@ 0x102
 8001f06:	18d1      	adds	r1, r2, r3
 8001f08:	2008      	movs	r0, #8
 8001f0a:	f881 0080 	strb.w	r0, [r1, #128]	@ 0x80
 8001f0e:	2101      	movs	r1, #1
 8001f10:	1858      	adds	r0, r3, r1
 8001f12:	fa52 f080 	uxtab	r0, r2, r0
 8001f16:	3101      	adds	r1, #1
 8001f18:	f814 5b01 	ldrb.w	r5, [r4], #1
 8001f1c:	f880 5080 	strb.w	r5, [r0, #128]	@ 0x80
 8001f20:	2909      	cmp	r1, #9
 8001f22:	d1f5      	bne.n	8001f10 <AssmTxMsg_DeviceInfo+0x20>
 8001f24:	3309      	adds	r3, #9
 8001f26:	e024      	b.n	8001f72 <AssmTxMsg_DeviceInfo+0x82>
 8001f28:	4a13      	ldr	r2, [pc, #76]	@ (8001f78 <AssmTxMsg_DeviceInfo+0x88>)
 8001f2a:	f892 3102 	ldrb.w	r3, [r2, #258]	@ 0x102
 8001f2e:	18d1      	adds	r1, r2, r3
 8001f30:	2001      	movs	r0, #1
 8001f32:	f881 0080 	strb.w	r0, [r1, #128]	@ 0x80
 8001f36:	1c99      	adds	r1, r3, #2
 8001f38:	4403      	add	r3, r0
 8001f3a:	fa52 f383 	uxtab	r3, r2, r3
 8001f3e:	f882 1102 	strb.w	r1, [r2, #258]	@ 0x102
 8001f42:	2200      	movs	r2, #0
 8001f44:	f883 2080 	strb.w	r2, [r3, #128]	@ 0x80
 8001f48:	bd30      	pop	{r4, r5, pc}
 8001f4a:	4a0b      	ldr	r2, [pc, #44]	@ (8001f78 <AssmTxMsg_DeviceInfo+0x88>)
 8001f4c:	4c0c      	ldr	r4, [pc, #48]	@ (8001f80 <AssmTxMsg_DeviceInfo+0x90>)
 8001f4e:	f892 3102 	ldrb.w	r3, [r2, #258]	@ 0x102
 8001f52:	18d1      	adds	r1, r2, r3
 8001f54:	2010      	movs	r0, #16
 8001f56:	f881 0080 	strb.w	r0, [r1, #128]	@ 0x80
 8001f5a:	2101      	movs	r1, #1
 8001f5c:	1858      	adds	r0, r3, r1
 8001f5e:	fa52 f080 	uxtab	r0, r2, r0
 8001f62:	3101      	adds	r1, #1
 8001f64:	f814 5f01 	ldrb.w	r5, [r4, #1]!
 8001f68:	f880 5080 	strb.w	r5, [r0, #128]	@ 0x80
 8001f6c:	2911      	cmp	r1, #17
 8001f6e:	d1f5      	bne.n	8001f5c <AssmTxMsg_DeviceInfo+0x6c>
 8001f70:	3311      	adds	r3, #17
 8001f72:	f882 3102 	strb.w	r3, [r2, #258]	@ 0x102
 8001f76:	e7e7      	b.n	8001f48 <AssmTxMsg_DeviceInfo+0x58>
 8001f78:	200002e4 	.word	0x200002e4
 8001f7c:	20000030 	.word	0x20000030
 8001f80:	20000037 	.word	0x20000037

08001f84 <DeviceInfo>:
 8001f84:	b940      	cbnz	r0, 8001f98 <DeviceInfo+0x14>
 8001f86:	4a07      	ldr	r2, [pc, #28]	@ (8001fa4 <DeviceInfo+0x20>)
 8001f88:	4b07      	ldr	r3, [pc, #28]	@ (8001fa8 <DeviceInfo+0x24>)
 8001f8a:	6810      	ldr	r0, [r2, #0]
 8001f8c:	6851      	ldr	r1, [r2, #4]
 8001f8e:	c303      	stmia	r3!, {r0, r1}
 8001f90:	f1a3 0008 	sub.w	r0, r3, #8
 8001f94:	f7ff bb48 	b.w	8001628 <SetCfg_Device_ProcType>
 8001f98:	2803      	cmp	r0, #3
 8001f9a:	d101      	bne.n	8001fa0 <DeviceInfo+0x1c>
 8001f9c:	f7ff bd22 	b.w	80019e4 <DeviceInfo.part.0>
 8001fa0:	4770      	bx	lr
 8001fa2:	bf00      	nop
 8001fa4:	200002e8 	.word	0x200002e8
 8001fa8:	20000030 	.word	0x20000030

08001fac <DeviceFirmwareVer>:
 8001fac:	4b06      	ldr	r3, [pc, #24]	@ (8001fc8 <DeviceFirmwareVer+0x1c>)
 8001fae:	4807      	ldr	r0, [pc, #28]	@ (8001fcc <DeviceFirmwareVer+0x20>)
 8001fb0:	799a      	ldrb	r2, [r3, #6]
 8001fb2:	7682      	strb	r2, [r0, #26]
 8001fb4:	79da      	ldrb	r2, [r3, #7]
 8001fb6:	7a1b      	ldrb	r3, [r3, #8]
 8001fb8:	7703      	strb	r3, [r0, #28]
 8001fba:	f44f 6310 	mov.w	r3, #2304	@ 0x900
 8001fbe:	76c2      	strb	r2, [r0, #27]
 8001fc0:	f820 3f18 	strh.w	r3, [r0, #24]!
 8001fc4:	f7ff bb60 	b.w	8001688 <SetCfg_Device_ProcVer>
 8001fc8:	200002e4 	.word	0x200002e4
 8001fcc:	20000030 	.word	0x20000030

08001fd0 <RspAssamblyTxMsg>:
 8001fd0:	b570      	push	{r4, r5, r6, lr}
 8001fd2:	4c81      	ldr	r4, [pc, #516]	@ (80021d8 <RspAssamblyTxMsg+0x208>)
 8001fd4:	4605      	mov	r5, r0
 8001fd6:	f001 f82b 	bl	8003030 <UART_TxInit>
 8001fda:	f894 3102 	ldrb.w	r3, [r4, #258]	@ 0x102
 8001fde:	f894 610a 	ldrb.w	r6, [r4, #266]	@ 0x10a
 8001fe2:	18e2      	adds	r2, r4, r3
 8001fe4:	21c0      	movs	r1, #192	@ 0xc0
 8001fe6:	f882 1080 	strb.w	r1, [r2, #128]	@ 0x80
 8001fea:	1c5a      	adds	r2, r3, #1
 8001fec:	fa54 f282 	uxtab	r2, r4, r2
 8001ff0:	2000      	movs	r0, #0
 8001ff2:	f882 0080 	strb.w	r0, [r2, #128]	@ 0x80
 8001ff6:	1c9a      	adds	r2, r3, #2
 8001ff8:	fa54 f282 	uxtab	r2, r4, r2
 8001ffc:	1cd9      	adds	r1, r3, #3
 8001ffe:	f882 5080 	strb.w	r5, [r2, #128]	@ 0x80
 8002002:	fa54 f181 	uxtab	r1, r4, r1
 8002006:	1d1a      	adds	r2, r3, #4
 8002008:	b2d2      	uxtb	r2, r2
 800200a:	2d10      	cmp	r5, #16
 800200c:	f884 2102 	strb.w	r2, [r4, #258]	@ 0x102
 8002010:	f881 6080 	strb.w	r6, [r1, #128]	@ 0x80
 8002014:	d80c      	bhi.n	8002030 <RspAssamblyTxMsg+0x60>
 8002016:	2d10      	cmp	r5, #16
 8002018:	d80d      	bhi.n	8002036 <RspAssamblyTxMsg+0x66>
 800201a:	e8df f005 	tbb	[pc, r5]
 800201e:	cda6      	.short	0xcda6
 8002020:	27cd0ccd 	.word	0x27cd0ccd
 8002024:	6868594e 	.word	0x6868594e
 8002028:	7b73cdcd 	.word	0x7b73cdcd
 800202c:	cda6      	.short	0xcda6
 800202e:	bb          	.byte	0xbb
 800202f:	00          	.byte	0x00
 8002030:	2df0      	cmp	r5, #240	@ 0xf0
 8002032:	f000 80c9 	beq.w	80021c8 <RspAssamblyTxMsg+0x1f8>
 8002036:	f894 5102 	ldrb.w	r5, [r4, #258]	@ 0x102
 800203a:	4868      	ldr	r0, [pc, #416]	@ (80021dc <RspAssamblyTxMsg+0x20c>)
 800203c:	1c6b      	adds	r3, r5, #1
 800203e:	4629      	mov	r1, r5
 8002040:	f884 3102 	strb.w	r3, [r4, #258]	@ 0x102
 8002044:	f001 f9d0 	bl	80033e8 <UART_Chksum>
 8002048:	4425      	add	r5, r4
 800204a:	f885 0080 	strb.w	r0, [r5, #128]	@ 0x80
 800204e:	f001 f96b 	bl	8003328 <UART_StuffAssambly>
 8002052:	f894 3102 	ldrb.w	r3, [r4, #258]	@ 0x102
 8002056:	1c5a      	adds	r2, r3, #1
 8002058:	4423      	add	r3, r4
 800205a:	f884 2102 	strb.w	r2, [r4, #258]	@ 0x102
 800205e:	22c2      	movs	r2, #194	@ 0xc2
 8002060:	f883 2080 	strb.w	r2, [r3, #128]	@ 0x80
 8002064:	2301      	movs	r3, #1
 8002066:	f884 3100 	strb.w	r3, [r4, #256]	@ 0x100
 800206a:	bd70      	pop	{r4, r5, r6, pc}
 800206c:	495c      	ldr	r1, [pc, #368]	@ (80021e0 <RspAssamblyTxMsg+0x210>)
 800206e:	7c09      	ldrb	r1, [r1, #16]
 8002070:	2901      	cmp	r1, #1
 8002072:	f040 809e 	bne.w	80021b2 <RspAssamblyTxMsg+0x1e2>
 8002076:	4422      	add	r2, r4
 8002078:	2104      	movs	r1, #4
 800207a:	f882 1080 	strb.w	r1, [r2, #128]	@ 0x80
 800207e:	4a59      	ldr	r2, [pc, #356]	@ (80021e4 <RspAssamblyTxMsg+0x214>)
 8002080:	6892      	ldr	r2, [r2, #8]
 8002082:	1d59      	adds	r1, r3, #5
 8002084:	fa54 f181 	uxtab	r1, r4, r1
 8002088:	0e10      	lsrs	r0, r2, #24
 800208a:	f881 0080 	strb.w	r0, [r1, #128]	@ 0x80
 800208e:	1d99      	adds	r1, r3, #6
 8002090:	fa54 f181 	uxtab	r1, r4, r1
 8002094:	0c10      	lsrs	r0, r2, #16
 8002096:	f881 0080 	strb.w	r0, [r1, #128]	@ 0x80
 800209a:	1dd9      	adds	r1, r3, #7
 800209c:	fa54 f181 	uxtab	r1, r4, r1
 80020a0:	0a10      	lsrs	r0, r2, #8
 80020a2:	f881 0080 	strb.w	r0, [r1, #128]	@ 0x80
 80020a6:	f103 0109 	add.w	r1, r3, #9
 80020aa:	3308      	adds	r3, #8
 80020ac:	f884 1102 	strb.w	r1, [r4, #258]	@ 0x102
 80020b0:	fa54 f383 	uxtab	r3, r4, r3
 80020b4:	f883 2080 	strb.w	r2, [r3, #128]	@ 0x80
 80020b8:	e7bd      	b.n	8002036 <RspAssamblyTxMsg+0x66>
 80020ba:	4949      	ldr	r1, [pc, #292]	@ (80021e0 <RspAssamblyTxMsg+0x210>)
 80020bc:	7c09      	ldrb	r1, [r1, #16]
 80020be:	2901      	cmp	r1, #1
 80020c0:	d177      	bne.n	80021b2 <RspAssamblyTxMsg+0x1e2>
 80020c2:	4422      	add	r2, r4
 80020c4:	2104      	movs	r1, #4
 80020c6:	f882 1080 	strb.w	r1, [r2, #128]	@ 0x80
 80020ca:	4a46      	ldr	r2, [pc, #280]	@ (80021e4 <RspAssamblyTxMsg+0x214>)
 80020cc:	68d2      	ldr	r2, [r2, #12]
 80020ce:	e7d8      	b.n	8002082 <RspAssamblyTxMsg+0xb2>
 80020d0:	4843      	ldr	r0, [pc, #268]	@ (80021e0 <RspAssamblyTxMsg+0x210>)
 80020d2:	7c01      	ldrb	r1, [r0, #16]
 80020d4:	2901      	cmp	r1, #1
 80020d6:	d16c      	bne.n	80021b2 <RspAssamblyTxMsg+0x1e2>
 80020d8:	3305      	adds	r3, #5
 80020da:	4422      	add	r2, r4
 80020dc:	f884 3102 	strb.w	r3, [r4, #258]	@ 0x102
 80020e0:	7bc0      	ldrb	r0, [r0, #15]
 80020e2:	2304      	movs	r3, #4
 80020e4:	f882 3080 	strb.w	r3, [r2, #128]	@ 0x80
 80020e8:	f7ff fdfe 	bl	8001ce8 <AssmTxMsg_GetBoundaryVolt>
 80020ec:	e7a3      	b.n	8002036 <RspAssamblyTxMsg+0x66>
 80020ee:	493c      	ldr	r1, [pc, #240]	@ (80021e0 <RspAssamblyTxMsg+0x210>)
 80020f0:	79c9      	ldrb	r1, [r1, #7]
 80020f2:	2900      	cmp	r1, #0
 80020f4:	d19f      	bne.n	8002036 <RspAssamblyTxMsg+0x66>
 80020f6:	4422      	add	r2, r4
 80020f8:	3305      	adds	r3, #5
 80020fa:	f884 3102 	strb.w	r3, [r4, #258]	@ 0x102
 80020fe:	f882 1080 	strb.w	r1, [r2, #128]	@ 0x80
 8002102:	e798      	b.n	8002036 <RspAssamblyTxMsg+0x66>
 8002104:	4836      	ldr	r0, [pc, #216]	@ (80021e0 <RspAssamblyTxMsg+0x210>)
 8002106:	7c01      	ldrb	r1, [r0, #16]
 8002108:	2901      	cmp	r1, #1
 800210a:	d152      	bne.n	80021b2 <RspAssamblyTxMsg+0x1e2>
 800210c:	7b80      	ldrb	r0, [r0, #14]
 800210e:	f7ff feef 	bl	8001ef0 <AssmTxMsg_DeviceInfo>
 8002112:	e790      	b.n	8002036 <RspAssamblyTxMsg+0x66>
 8002114:	4932      	ldr	r1, [pc, #200]	@ (80021e0 <RspAssamblyTxMsg+0x210>)
 8002116:	7c09      	ldrb	r1, [r1, #16]
 8002118:	2901      	cmp	r1, #1
 800211a:	d14a      	bne.n	80021b2 <RspAssamblyTxMsg+0x1e2>
 800211c:	4422      	add	r2, r4
 800211e:	2105      	movs	r1, #5
 8002120:	f882 1080 	strb.w	r1, [r2, #128]	@ 0x80
 8002124:	185a      	adds	r2, r3, r1
 8002126:	fa54 f282 	uxtab	r2, r4, r2
 800212a:	2100      	movs	r1, #0
 800212c:	f882 1080 	strb.w	r1, [r2, #128]	@ 0x80
 8002130:	1d9a      	adds	r2, r3, #6
 8002132:	fa54 f282 	uxtab	r2, r4, r2
 8002136:	2109      	movs	r1, #9
 8002138:	f882 1080 	strb.w	r1, [r2, #128]	@ 0x80
 800213c:	4a2a      	ldr	r2, [pc, #168]	@ (80021e8 <RspAssamblyTxMsg+0x218>)
 800213e:	1dd9      	adds	r1, r3, #7
 8002140:	fa54 f181 	uxtab	r1, r4, r1
 8002144:	7e90      	ldrb	r0, [r2, #26]
 8002146:	f881 0080 	strb.w	r0, [r1, #128]	@ 0x80
 800214a:	f103 0108 	add.w	r1, r3, #8
 800214e:	fa54 f181 	uxtab	r1, r4, r1
 8002152:	7ed0      	ldrb	r0, [r2, #27]
 8002154:	f881 0080 	strb.w	r0, [r1, #128]	@ 0x80
 8002158:	f103 010a 	add.w	r1, r3, #10
 800215c:	3309      	adds	r3, #9
 800215e:	7f12      	ldrb	r2, [r2, #28]
 8002160:	f884 1102 	strb.w	r1, [r4, #258]	@ 0x102
 8002164:	fa54 f383 	uxtab	r3, r4, r3
 8002168:	e7a4      	b.n	80020b4 <RspAssamblyTxMsg+0xe4>
 800216a:	4422      	add	r2, r4
 800216c:	2102      	movs	r1, #2
 800216e:	f882 1080 	strb.w	r1, [r2, #128]	@ 0x80
 8002172:	4a1b      	ldr	r2, [pc, #108]	@ (80021e0 <RspAssamblyTxMsg+0x210>)
 8002174:	8b91      	ldrh	r1, [r2, #28]
 8002176:	1d5a      	adds	r2, r3, #5
 8002178:	fa54 f282 	uxtab	r2, r4, r2
 800217c:	0a08      	lsrs	r0, r1, #8
 800217e:	f882 0080 	strb.w	r0, [r2, #128]	@ 0x80
 8002182:	1dda      	adds	r2, r3, #7
 8002184:	3306      	adds	r3, #6
 8002186:	fa54 f383 	uxtab	r3, r4, r3
 800218a:	f884 2102 	strb.w	r2, [r4, #258]	@ 0x102
 800218e:	f883 1080 	strb.w	r1, [r3, #128]	@ 0x80
 8002192:	e750      	b.n	8002036 <RspAssamblyTxMsg+0x66>
 8002194:	4812      	ldr	r0, [pc, #72]	@ (80021e0 <RspAssamblyTxMsg+0x210>)
 8002196:	7c01      	ldrb	r1, [r0, #16]
 8002198:	2901      	cmp	r1, #1
 800219a:	d10a      	bne.n	80021b2 <RspAssamblyTxMsg+0x1e2>
 800219c:	3305      	adds	r3, #5
 800219e:	4422      	add	r2, r4
 80021a0:	f884 3102 	strb.w	r3, [r4, #258]	@ 0x102
 80021a4:	7bc0      	ldrb	r0, [r0, #15]
 80021a6:	2305      	movs	r3, #5
 80021a8:	f882 3080 	strb.w	r3, [r2, #128]	@ 0x80
 80021ac:	f7ff fe36 	bl	8001e1c <AssmTxMsg_GetAdjustCal>
 80021b0:	e741      	b.n	8002036 <RspAssamblyTxMsg+0x66>
 80021b2:	2902      	cmp	r1, #2
 80021b4:	f47f af3f 	bne.w	8002036 <RspAssamblyTxMsg+0x66>
 80021b8:	3305      	adds	r3, #5
 80021ba:	4422      	add	r2, r4
 80021bc:	f884 3102 	strb.w	r3, [r4, #258]	@ 0x102
 80021c0:	2300      	movs	r3, #0
 80021c2:	f882 3080 	strb.w	r3, [r2, #128]	@ 0x80
 80021c6:	e736      	b.n	8002036 <RspAssamblyTxMsg+0x66>
 80021c8:	4422      	add	r2, r4
 80021ca:	3305      	adds	r3, #5
 80021cc:	f884 3102 	strb.w	r3, [r4, #258]	@ 0x102
 80021d0:	f882 0080 	strb.w	r0, [r2, #128]	@ 0x80
 80021d4:	e72f      	b.n	8002036 <RspAssamblyTxMsg+0x66>
 80021d6:	bf00      	nop
 80021d8:	200002e4 	.word	0x200002e4
 80021dc:	20000364 	.word	0x20000364
 80021e0:	200001f4 	.word	0x200001f4
 80021e4:	200000b4 	.word	0x200000b4
 80021e8:	20000030 	.word	0x20000030

080021ec <PostMessage_Proc>:
 80021ec:	b570      	push	{r4, r5, r6, lr}
 80021ee:	4c82      	ldr	r4, [pc, #520]	@ (80023f8 <PostMessage_Proc+0x20c>)
 80021f0:	f894 3101 	ldrb.w	r3, [r4, #257]	@ 0x101
 80021f4:	2b01      	cmp	r3, #1
 80021f6:	d120      	bne.n	800223a <PostMessage_Proc+0x4e>
 80021f8:	f894 0105 	ldrb.w	r0, [r4, #261]	@ 0x105
 80021fc:	2810      	cmp	r0, #16
 80021fe:	d814      	bhi.n	800222a <PostMessage_Proc+0x3e>
 8002200:	3801      	subs	r0, #1
 8002202:	280f      	cmp	r0, #15
 8002204:	d81a      	bhi.n	800223c <PostMessage_Proc+0x50>
 8002206:	e8df f010 	tbh	[pc, r0, lsl #1]
 800220a:	0020      	.short	0x0020
 800220c:	003a002b 	.word	0x003a002b
 8002210:	00430040 	.word	0x00430040
 8002214:	005f004a 	.word	0x005f004a
 8002218:	008b0073 	.word	0x008b0073
 800221c:	00a600a0 	.word	0x00a600a0
 8002220:	00c500aa 	.word	0x00c500aa
 8002224:	00ec00ce 	.word	0x00ec00ce
 8002228:	00d6      	.short	0x00d6
 800222a:	28f0      	cmp	r0, #240	@ 0xf0
 800222c:	f000 80d2 	beq.w	80023d4 <PostMessage_Proc+0x1e8>
 8002230:	f000 feee 	bl	8003010 <UART_RxInit>
 8002234:	2300      	movs	r3, #0
 8002236:	f884 3101 	strb.w	r3, [r4, #257]	@ 0x101
 800223a:	bd70      	pop	{r4, r5, r6, pc}
 800223c:	4b6f      	ldr	r3, [pc, #444]	@ (80023fc <PostMessage_Proc+0x210>)
 800223e:	2201      	movs	r2, #1
 8002240:	749a      	strb	r2, [r3, #18]
 8002242:	4b6f      	ldr	r3, [pc, #444]	@ (8002400 <PostMessage_Proc+0x214>)
 8002244:	2200      	movs	r2, #0
 8002246:	701a      	strb	r2, [r3, #0]
 8002248:	e7f2      	b.n	8002230 <PostMessage_Proc+0x44>
 800224a:	2001      	movs	r0, #1
 800224c:	f7ff fec0 	bl	8001fd0 <RspAssamblyTxMsg>
 8002250:	f7ff fcf0 	bl	8001c34 <Measure_Start>
 8002254:	4b69      	ldr	r3, [pc, #420]	@ (80023fc <PostMessage_Proc+0x210>)
 8002256:	2201      	movs	r2, #1
 8002258:	72da      	strb	r2, [r3, #11]
 800225a:	4b69      	ldr	r3, [pc, #420]	@ (8002400 <PostMessage_Proc+0x214>)
 800225c:	2250      	movs	r2, #80	@ 0x50
 800225e:	e7f2      	b.n	8002246 <PostMessage_Proc+0x5a>
 8002260:	2002      	movs	r0, #2
 8002262:	f7ff feb5 	bl	8001fd0 <RspAssamblyTxMsg>
 8002266:	f7ff fd0f 	bl	8001c88 <Measure_Stop>
 800226a:	4b64      	ldr	r3, [pc, #400]	@ (80023fc <PostMessage_Proc+0x210>)
 800226c:	2200      	movs	r2, #0
 800226e:	72da      	strb	r2, [r3, #11]
 8002270:	4b64      	ldr	r3, [pc, #400]	@ (8002404 <PostMessage_Proc+0x218>)
 8002272:	6898      	ldr	r0, [r3, #8]
 8002274:	f7ff f9ca 	bl	800160c <SetCfg_CurrentFanUseTime>
 8002278:	4b61      	ldr	r3, [pc, #388]	@ (8002400 <PostMessage_Proc+0x214>)
 800227a:	2240      	movs	r2, #64	@ 0x40
 800227c:	e7e3      	b.n	8002246 <PostMessage_Proc+0x5a>
 800227e:	f7ff fcd9 	bl	8001c34 <Measure_Start>
 8002282:	4b5e      	ldr	r3, [pc, #376]	@ (80023fc <PostMessage_Proc+0x210>)
 8002284:	2201      	movs	r2, #1
 8002286:	729a      	strb	r2, [r3, #10]
 8002288:	e7e7      	b.n	800225a <PostMessage_Proc+0x6e>
 800228a:	4b5d      	ldr	r3, [pc, #372]	@ (8002400 <PostMessage_Proc+0x214>)
 800228c:	2264      	movs	r2, #100	@ 0x64
 800228e:	e7da      	b.n	8002246 <PostMessage_Proc+0x5a>
 8002290:	4b5a      	ldr	r3, [pc, #360]	@ (80023fc <PostMessage_Proc+0x210>)
 8002292:	2201      	movs	r2, #1
 8002294:	741a      	strb	r2, [r3, #16]
 8002296:	2005      	movs	r0, #5
 8002298:	f7ff fe9a 	bl	8001fd0 <RspAssamblyTxMsg>
 800229c:	e7c8      	b.n	8002230 <PostMessage_Proc+0x44>
 800229e:	f894 3108 	ldrb.w	r3, [r4, #264]	@ 0x108
 80022a2:	2b01      	cmp	r3, #1
 80022a4:	d101      	bne.n	80022aa <PostMessage_Proc+0xbe>
 80022a6:	4a55      	ldr	r2, [pc, #340]	@ (80023fc <PostMessage_Proc+0x210>)
 80022a8:	e060      	b.n	800236c <PostMessage_Proc+0x180>
 80022aa:	2b05      	cmp	r3, #5
 80022ac:	d109      	bne.n	80022c2 <PostMessage_Proc+0xd6>
 80022ae:	4b53      	ldr	r3, [pc, #332]	@ (80023fc <PostMessage_Proc+0x210>)
 80022b0:	f8d4 0005 	ldr.w	r0, [r4, #5]
 80022b4:	2202      	movs	r2, #2
 80022b6:	741a      	strb	r2, [r3, #16]
 80022b8:	4b52      	ldr	r3, [pc, #328]	@ (8002404 <PostMessage_Proc+0x218>)
 80022ba:	ba00      	rev	r0, r0
 80022bc:	60d8      	str	r0, [r3, #12]
 80022be:	f7ff f9ac 	bl	800161a <SetCfg_CurrentFanInterValTime>
 80022c2:	f894 0105 	ldrb.w	r0, [r4, #261]	@ 0x105
 80022c6:	e7e7      	b.n	8002298 <PostMessage_Proc+0xac>
 80022c8:	f894 3108 	ldrb.w	r3, [r4, #264]	@ 0x108
 80022cc:	2b02      	cmp	r3, #2
 80022ce:	d105      	bne.n	80022dc <PostMessage_Proc+0xf0>
 80022d0:	4b4a      	ldr	r3, [pc, #296]	@ (80023fc <PostMessage_Proc+0x210>)
 80022d2:	2201      	movs	r2, #1
 80022d4:	741a      	strb	r2, [r3, #16]
 80022d6:	7962      	ldrb	r2, [r4, #5]
 80022d8:	73da      	strb	r2, [r3, #15]
 80022da:	e7f2      	b.n	80022c2 <PostMessage_Proc+0xd6>
 80022dc:	2b04      	cmp	r3, #4
 80022de:	d1f0      	bne.n	80022c2 <PostMessage_Proc+0xd6>
 80022e0:	4b46      	ldr	r3, [pc, #280]	@ (80023fc <PostMessage_Proc+0x210>)
 80022e2:	7960      	ldrb	r0, [r4, #5]
 80022e4:	73d8      	strb	r0, [r3, #15]
 80022e6:	2202      	movs	r2, #2
 80022e8:	741a      	strb	r2, [r3, #16]
 80022ea:	f7ff fd5d 	bl	8001da8 <SetBoundaryVolt>
 80022ee:	e7e8      	b.n	80022c2 <PostMessage_Proc+0xd6>
 80022f0:	4d43      	ldr	r5, [pc, #268]	@ (8002400 <PostMessage_Proc+0x214>)
 80022f2:	782b      	ldrb	r3, [r5, #0]
 80022f4:	2b50      	cmp	r3, #80	@ 0x50
 80022f6:	d09b      	beq.n	8002230 <PostMessage_Proc+0x44>
 80022f8:	7966      	ldrb	r6, [r4, #5]
 80022fa:	2e01      	cmp	r6, #1
 80022fc:	d10b      	bne.n	8002316 <PostMessage_Proc+0x12a>
 80022fe:	f7ff fc99 	bl	8001c34 <Measure_Start>
 8002302:	4631      	mov	r1, r6
 8002304:	2000      	movs	r0, #0
 8002306:	f7fe fffb 	bl	8001300 <FAN_Ctrl>
 800230a:	4b3c      	ldr	r3, [pc, #240]	@ (80023fc <PostMessage_Proc+0x210>)
 800230c:	2208      	movs	r2, #8
 800230e:	719a      	strb	r2, [r3, #6]
 8002310:	2370      	movs	r3, #112	@ 0x70
 8002312:	702b      	strb	r3, [r5, #0]
 8002314:	e78c      	b.n	8002230 <PostMessage_Proc+0x44>
 8002316:	f7ff fcb7 	bl	8001c88 <Measure_Stop>
 800231a:	2100      	movs	r1, #0
 800231c:	4608      	mov	r0, r1
 800231e:	e7f2      	b.n	8002306 <PostMessage_Proc+0x11a>
 8002320:	4d37      	ldr	r5, [pc, #220]	@ (8002400 <PostMessage_Proc+0x214>)
 8002322:	782b      	ldrb	r3, [r5, #0]
 8002324:	2b50      	cmp	r3, #80	@ 0x50
 8002326:	d083      	beq.n	8002230 <PostMessage_Proc+0x44>
 8002328:	7966      	ldrb	r6, [r4, #5]
 800232a:	2e01      	cmp	r6, #1
 800232c:	d108      	bne.n	8002340 <PostMessage_Proc+0x154>
 800232e:	f7ff fc81 	bl	8001c34 <Measure_Start>
 8002332:	4631      	mov	r1, r6
 8002334:	2000      	movs	r0, #0
 8002336:	f7fe ffe3 	bl	8001300 <FAN_Ctrl>
 800233a:	4b30      	ldr	r3, [pc, #192]	@ (80023fc <PostMessage_Proc+0x210>)
 800233c:	2209      	movs	r2, #9
 800233e:	e7e6      	b.n	800230e <PostMessage_Proc+0x122>
 8002340:	f7ff fca2 	bl	8001c88 <Measure_Stop>
 8002344:	2100      	movs	r1, #0
 8002346:	4608      	mov	r0, r1
 8002348:	e7f5      	b.n	8002336 <PostMessage_Proc+0x14a>
 800234a:	200a      	movs	r0, #10
 800234c:	f7ff fe40 	bl	8001fd0 <RspAssamblyTxMsg>
 8002350:	4b2b      	ldr	r3, [pc, #172]	@ (8002400 <PostMessage_Proc+0x214>)
 8002352:	2260      	movs	r2, #96	@ 0x60
 8002354:	e777      	b.n	8002246 <PostMessage_Proc+0x5a>
 8002356:	200b      	movs	r0, #11
 8002358:	f7ff fe3a 	bl	8001fd0 <RspAssamblyTxMsg>
 800235c:	e78c      	b.n	8002278 <PostMessage_Proc+0x8c>
 800235e:	f894 3108 	ldrb.w	r3, [r4, #264]	@ 0x108
 8002362:	2b01      	cmp	r3, #1
 8002364:	d104      	bne.n	8002370 <PostMessage_Proc+0x184>
 8002366:	4a25      	ldr	r2, [pc, #148]	@ (80023fc <PostMessage_Proc+0x210>)
 8002368:	7921      	ldrb	r1, [r4, #4]
 800236a:	7391      	strb	r1, [r2, #14]
 800236c:	7413      	strb	r3, [r2, #16]
 800236e:	e7a8      	b.n	80022c2 <PostMessage_Proc+0xd6>
 8002370:	2b08      	cmp	r3, #8
 8002372:	d105      	bne.n	8002380 <PostMessage_Proc+0x194>
 8002374:	2000      	movs	r0, #0
 8002376:	f7ff fe05 	bl	8001f84 <DeviceInfo>
 800237a:	4b20      	ldr	r3, [pc, #128]	@ (80023fc <PostMessage_Proc+0x210>)
 800237c:	2202      	movs	r2, #2
 800237e:	741a      	strb	r2, [r3, #16]
 8002380:	f894 3108 	ldrb.w	r3, [r4, #264]	@ 0x108
 8002384:	2b10      	cmp	r3, #16
 8002386:	d19c      	bne.n	80022c2 <PostMessage_Proc+0xd6>
 8002388:	f7ff fb2c 	bl	80019e4 <DeviceInfo.part.0>
 800238c:	4b1b      	ldr	r3, [pc, #108]	@ (80023fc <PostMessage_Proc+0x210>)
 800238e:	2202      	movs	r2, #2
 8002390:	741a      	strb	r2, [r3, #16]
 8002392:	e796      	b.n	80022c2 <PostMessage_Proc+0xd6>
 8002394:	f894 3108 	ldrb.w	r3, [r4, #264]	@ 0x108
 8002398:	2b01      	cmp	r3, #1
 800239a:	d084      	beq.n	80022a6 <PostMessage_Proc+0xba>
 800239c:	2b05      	cmp	r3, #5
 800239e:	d190      	bne.n	80022c2 <PostMessage_Proc+0xd6>
 80023a0:	f7ff fe04 	bl	8001fac <DeviceFirmwareVer>
 80023a4:	e7f2      	b.n	800238c <PostMessage_Proc+0x1a0>
 80023a6:	f894 3108 	ldrb.w	r3, [r4, #264]	@ 0x108
 80023aa:	b913      	cbnz	r3, 80023b2 <PostMessage_Proc+0x1c6>
 80023ac:	4b13      	ldr	r3, [pc, #76]	@ (80023fc <PostMessage_Proc+0x210>)
 80023ae:	2201      	movs	r2, #1
 80023b0:	741a      	strb	r2, [r3, #16]
 80023b2:	200e      	movs	r0, #14
 80023b4:	e770      	b.n	8002298 <PostMessage_Proc+0xac>
 80023b6:	f894 3108 	ldrb.w	r3, [r4, #264]	@ 0x108
 80023ba:	2b02      	cmp	r3, #2
 80023bc:	d088      	beq.n	80022d0 <PostMessage_Proc+0xe4>
 80023be:	2b06      	cmp	r3, #6
 80023c0:	f47f af7f 	bne.w	80022c2 <PostMessage_Proc+0xd6>
 80023c4:	4b0d      	ldr	r3, [pc, #52]	@ (80023fc <PostMessage_Proc+0x210>)
 80023c6:	7960      	ldrb	r0, [r4, #5]
 80023c8:	73d8      	strb	r0, [r3, #15]
 80023ca:	2202      	movs	r2, #2
 80023cc:	741a      	strb	r2, [r3, #16]
 80023ce:	f7ff fd61 	bl	8001e94 <SetAdjustCal>
 80023d2:	e776      	b.n	80022c2 <PostMessage_Proc+0xd6>
 80023d4:	f7ff fdfc 	bl	8001fd0 <RspAssamblyTxMsg>
 80023d8:	f7ff fa1f 	bl	800181a <SetCfg_Flash_Firmware_Write>
 80023dc:	4b08      	ldr	r3, [pc, #32]	@ (8002400 <PostMessage_Proc+0x214>)
 80023de:	22a0      	movs	r2, #160	@ 0xa0
 80023e0:	e731      	b.n	8002246 <PostMessage_Proc+0x5a>
 80023e2:	f894 3108 	ldrb.w	r3, [r4, #264]	@ 0x108
 80023e6:	b913      	cbnz	r3, 80023ee <PostMessage_Proc+0x202>
 80023e8:	4b04      	ldr	r3, [pc, #16]	@ (80023fc <PostMessage_Proc+0x210>)
 80023ea:	2201      	movs	r2, #1
 80023ec:	741a      	strb	r2, [r3, #16]
 80023ee:	200f      	movs	r0, #15
 80023f0:	f7ff fdee 	bl	8001fd0 <RspAssamblyTxMsg>
 80023f4:	e7f2      	b.n	80023dc <PostMessage_Proc+0x1f0>
 80023f6:	bf00      	nop
 80023f8:	200002e4 	.word	0x200002e4
 80023fc:	200001f4 	.word	0x200001f4
 8002400:	200001c8 	.word	0x200001c8
 8002404:	200000b4 	.word	0x200000b4

08002408 <RngOfPdAdcSamplingVal>:
 8002408:	493a      	ldr	r1, [pc, #232]	@ (80024f4 <RngOfPdAdcSamplingVal+0xec>)
 800240a:	b5f0      	push	{r4, r5, r6, r7, lr}
 800240c:	68cc      	ldr	r4, [r1, #12]
 800240e:	4284      	cmp	r4, r0
 8002410:	d208      	bcs.n	8002424 <RngOfPdAdcSamplingVal+0x1c>
 8002412:	4b39      	ldr	r3, [pc, #228]	@ (80024f8 <RngOfPdAdcSamplingVal+0xf0>)
 8002414:	881a      	ldrh	r2, [r3, #0]
 8002416:	4282      	cmp	r2, r0
 8002418:	d203      	bcs.n	8002422 <RngOfPdAdcSamplingVal+0x1a>
 800241a:	8018      	strh	r0, [r3, #0]
 800241c:	4b37      	ldr	r3, [pc, #220]	@ (80024fc <RngOfPdAdcSamplingVal+0xf4>)
 800241e:	2201      	movs	r2, #1
 8002420:	701a      	strb	r2, [r3, #0]
 8002422:	bdf0      	pop	{r4, r5, r6, r7, pc}
 8002424:	d9fd      	bls.n	8002422 <RngOfPdAdcSamplingVal+0x1a>
 8002426:	4d35      	ldr	r5, [pc, #212]	@ (80024fc <RngOfPdAdcSamplingVal+0xf4>)
 8002428:	782b      	ldrb	r3, [r5, #0]
 800242a:	2b01      	cmp	r3, #1
 800242c:	d1f9      	bne.n	8002422 <RngOfPdAdcSamplingVal+0x1a>
 800242e:	4e32      	ldr	r6, [pc, #200]	@ (80024f8 <RngOfPdAdcSamplingVal+0xf0>)
 8002430:	8832      	ldrh	r2, [r6, #0]
 8002432:	4294      	cmp	r4, r2
 8002434:	d83e      	bhi.n	80024b4 <RngOfPdAdcSamplingVal+0xac>
 8002436:	690b      	ldr	r3, [r1, #16]
 8002438:	429a      	cmp	r2, r3
 800243a:	d83b      	bhi.n	80024b4 <RngOfPdAdcSamplingVal+0xac>
 800243c:	4b30      	ldr	r3, [pc, #192]	@ (8002500 <RngOfPdAdcSamplingVal+0xf8>)
 800243e:	8398      	strh	r0, [r3, #28]
 8002440:	2300      	movs	r3, #0
 8002442:	6b4f      	ldr	r7, [r1, #52]	@ 0x34
 8002444:	42ba      	cmp	r2, r7
 8002446:	d305      	bcc.n	8002454 <RngOfPdAdcSamplingVal+0x4c>
 8002448:	6b8f      	ldr	r7, [r1, #56]	@ 0x38
 800244a:	42ba      	cmp	r2, r7
 800244c:	bf9e      	ittt	ls
 800244e:	4b2c      	ldrls	r3, [pc, #176]	@ (8002500 <RngOfPdAdcSamplingVal+0xf8>)
 8002450:	8798      	strhls	r0, [r3, #60]	@ 0x3c
 8002452:	2301      	movls	r3, #1
 8002454:	6dcf      	ldr	r7, [r1, #92]	@ 0x5c
 8002456:	42ba      	cmp	r2, r7
 8002458:	d306      	bcc.n	8002468 <RngOfPdAdcSamplingVal+0x60>
 800245a:	6e0f      	ldr	r7, [r1, #96]	@ 0x60
 800245c:	42ba      	cmp	r2, r7
 800245e:	bf9e      	ittt	ls
 8002460:	4b27      	ldrls	r3, [pc, #156]	@ (8002500 <RngOfPdAdcSamplingVal+0xf8>)
 8002462:	f8a3 005c 	strhls.w	r0, [r3, #92]	@ 0x5c
 8002466:	2302      	movls	r3, #2
 8002468:	f8d1 7084 	ldr.w	r7, [r1, #132]	@ 0x84
 800246c:	42ba      	cmp	r2, r7
 800246e:	d307      	bcc.n	8002480 <RngOfPdAdcSamplingVal+0x78>
 8002470:	f8d1 7088 	ldr.w	r7, [r1, #136]	@ 0x88
 8002474:	42ba      	cmp	r2, r7
 8002476:	bf9e      	ittt	ls
 8002478:	4b21      	ldrls	r3, [pc, #132]	@ (8002500 <RngOfPdAdcSamplingVal+0xf8>)
 800247a:	f8a3 007c 	strhls.w	r0, [r3, #124]	@ 0x7c
 800247e:	2303      	movls	r3, #3
 8002480:	f8d1 70ac 	ldr.w	r7, [r1, #172]	@ 0xac
 8002484:	42ba      	cmp	r2, r7
 8002486:	d307      	bcc.n	8002498 <RngOfPdAdcSamplingVal+0x90>
 8002488:	f8d1 10b0 	ldr.w	r1, [r1, #176]	@ 0xb0
 800248c:	428a      	cmp	r2, r1
 800248e:	bf9e      	ittt	ls
 8002490:	4b1b      	ldrls	r3, [pc, #108]	@ (8002500 <RngOfPdAdcSamplingVal+0xf8>)
 8002492:	f8a3 009c 	strhls.w	r0, [r3, #156]	@ 0x9c
 8002496:	2304      	movls	r3, #4
 8002498:	491a      	ldr	r1, [pc, #104]	@ (8002504 <RngOfPdAdcSamplingVal+0xfc>)
 800249a:	8034      	strh	r4, [r6, #0]
 800249c:	800a      	strh	r2, [r1, #0]
 800249e:	2200      	movs	r2, #0
 80024a0:	702a      	strb	r2, [r5, #0]
 80024a2:	4a19      	ldr	r2, [pc, #100]	@ (8002508 <RngOfPdAdcSamplingVal+0x100>)
 80024a4:	2101      	movs	r1, #1
 80024a6:	7011      	strb	r1, [r2, #0]
 80024a8:	b933      	cbnz	r3, 80024b8 <RngOfPdAdcSamplingVal+0xb0>
 80024aa:	4a15      	ldr	r2, [pc, #84]	@ (8002500 <RngOfPdAdcSamplingVal+0xf8>)
 80024ac:	6953      	ldr	r3, [r2, #20]
 80024ae:	440b      	add	r3, r1
 80024b0:	6153      	str	r3, [r2, #20]
 80024b2:	e7b6      	b.n	8002422 <RngOfPdAdcSamplingVal+0x1a>
 80024b4:	2363      	movs	r3, #99	@ 0x63
 80024b6:	e7c4      	b.n	8002442 <RngOfPdAdcSamplingVal+0x3a>
 80024b8:	2b01      	cmp	r3, #1
 80024ba:	d104      	bne.n	80024c6 <RngOfPdAdcSamplingVal+0xbe>
 80024bc:	4a10      	ldr	r2, [pc, #64]	@ (8002500 <RngOfPdAdcSamplingVal+0xf8>)
 80024be:	6b53      	ldr	r3, [r2, #52]	@ 0x34
 80024c0:	3301      	adds	r3, #1
 80024c2:	6353      	str	r3, [r2, #52]	@ 0x34
 80024c4:	e7ad      	b.n	8002422 <RngOfPdAdcSamplingVal+0x1a>
 80024c6:	2b02      	cmp	r3, #2
 80024c8:	d104      	bne.n	80024d4 <RngOfPdAdcSamplingVal+0xcc>
 80024ca:	4a0d      	ldr	r2, [pc, #52]	@ (8002500 <RngOfPdAdcSamplingVal+0xf8>)
 80024cc:	6d53      	ldr	r3, [r2, #84]	@ 0x54
 80024ce:	3301      	adds	r3, #1
 80024d0:	6553      	str	r3, [r2, #84]	@ 0x54
 80024d2:	e7a6      	b.n	8002422 <RngOfPdAdcSamplingVal+0x1a>
 80024d4:	2b03      	cmp	r3, #3
 80024d6:	d104      	bne.n	80024e2 <RngOfPdAdcSamplingVal+0xda>
 80024d8:	4a09      	ldr	r2, [pc, #36]	@ (8002500 <RngOfPdAdcSamplingVal+0xf8>)
 80024da:	6f53      	ldr	r3, [r2, #116]	@ 0x74
 80024dc:	3301      	adds	r3, #1
 80024de:	6753      	str	r3, [r2, #116]	@ 0x74
 80024e0:	e79f      	b.n	8002422 <RngOfPdAdcSamplingVal+0x1a>
 80024e2:	2b04      	cmp	r3, #4
 80024e4:	bf01      	itttt	eq
 80024e6:	4a06      	ldreq	r2, [pc, #24]	@ (8002500 <RngOfPdAdcSamplingVal+0xf8>)
 80024e8:	f8d2 3094 	ldreq.w	r3, [r2, #148]	@ 0x94
 80024ec:	3301      	addeq	r3, #1
 80024ee:	f8c2 3094 	streq.w	r3, [r2, #148]	@ 0x94
 80024f2:	e796      	b.n	8002422 <RngOfPdAdcSamplingVal+0x1a>
 80024f4:	200000cc 	.word	0x200000cc
 80024f8:	200001c6 	.word	0x200001c6
 80024fc:	200001be 	.word	0x200001be
 8002500:	20000224 	.word	0x20000224
 8002504:	200001c2 	.word	0x200001c2
 8002508:	200001bc 	.word	0x200001bc

0800250c <RngOfSiPmAdcSamplingVal>:
 800250c:	4a14      	ldr	r2, [pc, #80]	@ (8002560 <RngOfSiPmAdcSamplingVal+0x54>)
 800250e:	f8d2 30d4 	ldr.w	r3, [r2, #212]	@ 0xd4
 8002512:	4283      	cmp	r3, r0
 8002514:	b530      	push	{r4, r5, lr}
 8002516:	d20c      	bcs.n	8002532 <RngOfSiPmAdcSamplingVal+0x26>
 8002518:	f8d2 30d8 	ldr.w	r3, [r2, #216]	@ 0xd8
 800251c:	4298      	cmp	r0, r3
 800251e:	d207      	bcs.n	8002530 <RngOfSiPmAdcSamplingVal+0x24>
 8002520:	4b10      	ldr	r3, [pc, #64]	@ (8002564 <RngOfSiPmAdcSamplingVal+0x58>)
 8002522:	881a      	ldrh	r2, [r3, #0]
 8002524:	4282      	cmp	r2, r0
 8002526:	d203      	bcs.n	8002530 <RngOfSiPmAdcSamplingVal+0x24>
 8002528:	8018      	strh	r0, [r3, #0]
 800252a:	4b0f      	ldr	r3, [pc, #60]	@ (8002568 <RngOfSiPmAdcSamplingVal+0x5c>)
 800252c:	2201      	movs	r2, #1
 800252e:	701a      	strb	r2, [r3, #0]
 8002530:	bd30      	pop	{r4, r5, pc}
 8002532:	d9fd      	bls.n	8002530 <RngOfSiPmAdcSamplingVal+0x24>
 8002534:	490c      	ldr	r1, [pc, #48]	@ (8002568 <RngOfSiPmAdcSamplingVal+0x5c>)
 8002536:	7808      	ldrb	r0, [r1, #0]
 8002538:	2801      	cmp	r0, #1
 800253a:	d1f9      	bne.n	8002530 <RngOfSiPmAdcSamplingVal+0x24>
 800253c:	4c0b      	ldr	r4, [pc, #44]	@ (800256c <RngOfSiPmAdcSamplingVal+0x60>)
 800253e:	f8d4 20b4 	ldr.w	r2, [r4, #180]	@ 0xb4
 8002542:	3201      	adds	r2, #1
 8002544:	f8c4 20b4 	str.w	r2, [r4, #180]	@ 0xb4
 8002548:	4a06      	ldr	r2, [pc, #24]	@ (8002564 <RngOfSiPmAdcSamplingVal+0x58>)
 800254a:	4c09      	ldr	r4, [pc, #36]	@ (8002570 <RngOfSiPmAdcSamplingVal+0x64>)
 800254c:	8815      	ldrh	r5, [r2, #0]
 800254e:	8025      	strh	r5, [r4, #0]
 8002550:	3301      	adds	r3, #1
 8002552:	8013      	strh	r3, [r2, #0]
 8002554:	4b07      	ldr	r3, [pc, #28]	@ (8002574 <RngOfSiPmAdcSamplingVal+0x68>)
 8002556:	7018      	strb	r0, [r3, #0]
 8002558:	2300      	movs	r3, #0
 800255a:	700b      	strb	r3, [r1, #0]
 800255c:	e7e8      	b.n	8002530 <RngOfSiPmAdcSamplingVal+0x24>
 800255e:	bf00      	nop
 8002560:	200000cc 	.word	0x200000cc
 8002564:	200001c4 	.word	0x200001c4
 8002568:	200001bd 	.word	0x200001bd
 800256c:	20000224 	.word	0x20000224
 8002570:	200001c0 	.word	0x200001c0
 8002574:	200001bc 	.word	0x200001bc

08002578 <ReadMeasuredVal>:
 8002578:	b5f8      	push	{r3, r4, r5, r6, r7, lr}
 800257a:	4d76      	ldr	r5, [pc, #472]	@ (8002754 <ReadMeasuredVal+0x1dc>)
 800257c:	7a2b      	ldrb	r3, [r5, #8]
 800257e:	b91b      	cbnz	r3, 8002588 <ReadMeasuredVal+0x10>
 8002580:	f7ff fa68 	bl	8001a54 <WaitTime_Init>
 8002584:	2301      	movs	r3, #1
 8002586:	722b      	strb	r3, [r5, #8]
 8002588:	2164      	movs	r1, #100	@ 0x64
 800258a:	2001      	movs	r0, #1
 800258c:	f7ff fa84 	bl	8001a98 <WaitHoldTime_mSec>
 8002590:	2801      	cmp	r0, #1
 8002592:	f040 80d4 	bne.w	800273e <ReadMeasuredVal+0x1c6>
 8002596:	f7fe ff4d 	bl	8001434 <Calc_GetSelNumConnect>
 800259a:	f7fe ff85 	bl	80014a8 <Calc_GetNumberConcent>
 800259e:	f7fe ffa3 	bl	80014e8 <Calc_GetSelMassConnect>
 80025a2:	f7fe ffe7 	bl	8001574 <Calc_GetMassConcentration>
 80025a6:	f7ff f803 	bl	80015b0 <Calc_GetTypicalPaticleSize>
 80025aa:	4b6b      	ldr	r3, [pc, #428]	@ (8002758 <ReadMeasuredVal+0x1e0>)
 80025ac:	eddf 7a6b 	vldr	s15, [pc, #428]	@ 800275c <ReadMeasuredVal+0x1e4>
 80025b0:	2200      	movs	r2, #0
 80025b2:	eeb0 7a67 	vmov.f32	s14, s15
 80025b6:	461f      	mov	r7, r3
 80025b8:	edd3 6a06 	vldr	s13, [r3, #24]
 80025bc:	3201      	adds	r2, #1
 80025be:	ee37 7a26 	vadd.f32	s14, s14, s13
 80025c2:	edd3 6a04 	vldr	s13, [r3, #16]
 80025c6:	2a05      	cmp	r2, #5
 80025c8:	ee77 7aa6 	vadd.f32	s15, s15, s13
 80025cc:	f103 0320 	add.w	r3, r3, #32
 80025d0:	d1f2      	bne.n	80025b8 <ReadMeasuredVal+0x40>
 80025d2:	eec7 6a27 	vdiv.f32	s13, s14, s15
 80025d6:	4b62      	ldr	r3, [pc, #392]	@ (8002760 <ReadMeasuredVal+0x1e8>)
 80025d8:	4862      	ldr	r0, [pc, #392]	@ (8002764 <ReadMeasuredVal+0x1ec>)
 80025da:	edd7 7a2d 	vldr	s15, [r7, #180]	@ 0xb4
 80025de:	ed93 7a3b 	vldr	s14, [r3, #236]	@ 0xec
 80025e2:	7aab      	ldrb	r3, [r5, #10]
 80025e4:	edc0 6a02 	vstr	s13, [r0, #8]
 80025e8:	eef8 7a67 	vcvt.f32.u32	s15, s15
 80025ec:	2b01      	cmp	r3, #1
 80025ee:	ee27 7a87 	vmul.f32	s14, s15, s14
 80025f2:	edc0 7a01 	vstr	s15, [r0, #4]
 80025f6:	ed80 7a00 	vstr	s14, [r0]
 80025fa:	f040 8097 	bne.w	800272c <ReadMeasuredVal+0x1b4>
 80025fe:	4b5a      	ldr	r3, [pc, #360]	@ (8002768 <ReadMeasuredVal+0x1f0>)
 8002600:	22c0      	movs	r2, #192	@ 0xc0
 8002602:	2103      	movs	r1, #3
 8002604:	f883 2080 	strb.w	r2, [r3, #128]	@ 0x80
 8002608:	f883 1082 	strb.w	r1, [r3, #130]	@ 0x82
 800260c:	2200      	movs	r2, #0
 800260e:	2134      	movs	r1, #52	@ 0x34
 8002610:	f883 1084 	strb.w	r1, [r3, #132]	@ 0x84
 8002614:	f883 2081 	strb.w	r2, [r3, #129]	@ 0x81
 8002618:	f883 2083 	strb.w	r2, [r3, #131]	@ 0x83
 800261c:	4619      	mov	r1, r3
 800261e:	461c      	mov	r4, r3
 8002620:	f857 6022 	ldr.w	r6, [r7, r2, lsl #2]
 8002624:	f881 6088 	strb.w	r6, [r1, #136]	@ 0x88
 8002628:	f3c6 6c07 	ubfx	ip, r6, #24, #8
 800262c:	f881 c085 	strb.w	ip, [r1, #133]	@ 0x85
 8002630:	3208      	adds	r2, #8
 8002632:	f3c6 4c07 	ubfx	ip, r6, #16, #8
 8002636:	f881 c086 	strb.w	ip, [r1, #134]	@ 0x86
 800263a:	2a20      	cmp	r2, #32
 800263c:	f3c6 2c07 	ubfx	ip, r6, #8, #8
 8002640:	f881 c087 	strb.w	ip, [r1, #135]	@ 0x87
 8002644:	f101 0104 	add.w	r1, r1, #4
 8002648:	d1ea      	bne.n	8002620 <ReadMeasuredVal+0xa8>
 800264a:	4f48      	ldr	r7, [pc, #288]	@ (800276c <ReadMeasuredVal+0x1f4>)
 800264c:	2215      	movs	r2, #21
 800264e:	f857 1032 	ldr.w	r1, [r7, r2, lsl #3]
 8002652:	f883 1098 	strb.w	r1, [r3, #152]	@ 0x98
 8002656:	f3c1 6607 	ubfx	r6, r1, #24, #8
 800265a:	f883 6095 	strb.w	r6, [r3, #149]	@ 0x95
 800265e:	3204      	adds	r2, #4
 8002660:	f3c1 4607 	ubfx	r6, r1, #16, #8
 8002664:	f883 6096 	strb.w	r6, [r3, #150]	@ 0x96
 8002668:	2a29      	cmp	r2, #41	@ 0x29
 800266a:	f3c1 2607 	ubfx	r6, r1, #8, #8
 800266e:	f883 6097 	strb.w	r6, [r3, #151]	@ 0x97
 8002672:	f103 0304 	add.w	r3, r3, #4
 8002676:	d1ea      	bne.n	800264e <ReadMeasuredVal+0xd6>
 8002678:	ee16 3a90 	vmov	r3, s13
 800267c:	f3c3 6207 	ubfx	r2, r3, #24, #8
 8002680:	f884 20a9 	strb.w	r2, [r4, #169]	@ 0xa9
 8002684:	f3c3 4207 	ubfx	r2, r3, #16, #8
 8002688:	f884 20aa 	strb.w	r2, [r4, #170]	@ 0xaa
 800268c:	f884 30ac 	strb.w	r3, [r4, #172]	@ 0xac
 8002690:	f3c3 2207 	ubfx	r2, r3, #8, #8
 8002694:	ee17 3a10 	vmov	r3, s14
 8002698:	f884 20ab 	strb.w	r2, [r4, #171]	@ 0xab
 800269c:	f3c3 6207 	ubfx	r2, r3, #24, #8
 80026a0:	f884 20ad 	strb.w	r2, [r4, #173]	@ 0xad
 80026a4:	f3c3 4207 	ubfx	r2, r3, #16, #8
 80026a8:	f884 20ae 	strb.w	r2, [r4, #174]	@ 0xae
 80026ac:	f884 30b0 	strb.w	r3, [r4, #176]	@ 0xb0
 80026b0:	f3c3 2207 	ubfx	r2, r3, #8, #8
 80026b4:	ee17 3a90 	vmov	r3, s15
 80026b8:	f884 20af 	strb.w	r2, [r4, #175]	@ 0xaf
 80026bc:	f3c3 6207 	ubfx	r2, r3, #24, #8
 80026c0:	f884 20b1 	strb.w	r2, [r4, #177]	@ 0xb1
 80026c4:	f3c3 4207 	ubfx	r2, r3, #16, #8
 80026c8:	f884 20b2 	strb.w	r2, [r4, #178]	@ 0xb2
 80026cc:	f884 30b4 	strb.w	r3, [r4, #180]	@ 0xb4
 80026d0:	f3c3 2207 	ubfx	r2, r3, #8, #8
 80026d4:	68c3      	ldr	r3, [r0, #12]
 80026d6:	f884 20b3 	strb.w	r2, [r4, #179]	@ 0xb3
 80026da:	f3c3 6207 	ubfx	r2, r3, #24, #8
 80026de:	f884 20b5 	strb.w	r2, [r4, #181]	@ 0xb5
 80026e2:	f3c3 4207 	ubfx	r2, r3, #16, #8
 80026e6:	f884 20b6 	strb.w	r2, [r4, #182]	@ 0xb6
 80026ea:	f884 30b8 	strb.w	r3, [r4, #184]	@ 0xb8
 80026ee:	f3c3 2207 	ubfx	r2, r3, #8, #8
 80026f2:	2139      	movs	r1, #57	@ 0x39
 80026f4:	233a      	movs	r3, #58	@ 0x3a
 80026f6:	481e      	ldr	r0, [pc, #120]	@ (8002770 <ReadMeasuredVal+0x1f8>)
 80026f8:	f884 20b7 	strb.w	r2, [r4, #183]	@ 0xb7
 80026fc:	f884 3102 	strb.w	r3, [r4, #258]	@ 0x102
 8002700:	f000 fe72 	bl	80033e8 <UART_Chksum>
 8002704:	f884 00b9 	strb.w	r0, [r4, #185]	@ 0xb9
 8002708:	f000 fe0e 	bl	8003328 <UART_StuffAssambly>
 800270c:	f894 3102 	ldrb.w	r3, [r4, #258]	@ 0x102
 8002710:	1c5a      	adds	r2, r3, #1
 8002712:	4423      	add	r3, r4
 8002714:	f884 2102 	strb.w	r2, [r4, #258]	@ 0x102
 8002718:	22c2      	movs	r2, #194	@ 0xc2
 800271a:	f883 2080 	strb.w	r2, [r3, #128]	@ 0x80
 800271e:	4a15      	ldr	r2, [pc, #84]	@ (8002774 <ReadMeasuredVal+0x1fc>)
 8002720:	2300      	movs	r3, #0
 8002722:	6093      	str	r3, [r2, #8]
 8002724:	2201      	movs	r2, #1
 8002726:	f884 2100 	strb.w	r2, [r4, #256]	@ 0x100
 800272a:	72ab      	strb	r3, [r5, #10]
 800272c:	f7fe fe68 	bl	8001400 <Calc_Init>
 8002730:	f7ff f990 	bl	8001a54 <WaitTime_Init>
 8002734:	2300      	movs	r3, #0
 8002736:	4a0f      	ldr	r2, [pc, #60]	@ (8002774 <ReadMeasuredVal+0x1fc>)
 8002738:	722b      	strb	r3, [r5, #8]
 800273a:	6093      	str	r3, [r2, #8]
 800273c:	bdf8      	pop	{r3, r4, r5, r6, r7, pc}
 800273e:	4b0d      	ldr	r3, [pc, #52]	@ (8002774 <ReadMeasuredVal+0x1fc>)
 8002740:	88d8      	ldrh	r0, [r3, #6]
 8002742:	f7ff fe61 	bl	8002408 <RngOfPdAdcSamplingVal>
 8002746:	4b0c      	ldr	r3, [pc, #48]	@ (8002778 <ReadMeasuredVal+0x200>)
 8002748:	88d8      	ldrh	r0, [r3, #6]
 800274a:	e8bd 40f8 	ldmia.w	sp!, {r3, r4, r5, r6, r7, lr}
 800274e:	f7ff bedd 	b.w	800250c <RngOfSiPmAdcSamplingVal>
 8002752:	bf00      	nop
 8002754:	200001f4 	.word	0x200001f4
 8002758:	20000224 	.word	0x20000224
 800275c:	00000000 	.word	0x00000000
 8002760:	200000cc 	.word	0x200000cc
 8002764:	20000214 	.word	0x20000214
 8002768:	200002e4 	.word	0x200002e4
 800276c:	2000018c 	.word	0x2000018c
 8002770:	20000364 	.word	0x20000364
 8002774:	200000a4 	.word	0x200000a4
 8002778:	20000074 	.word	0x20000074

0800277c <Operating_Process>:
 800277c:	b510      	push	{r4, lr}
 800277e:	4b0c      	ldr	r3, [pc, #48]	@ (80027b0 <Operating_Process+0x34>)
 8002780:	7b5a      	ldrb	r2, [r3, #13]
 8002782:	b97a      	cbnz	r2, 80027a4 <Operating_Process+0x28>
 8002784:	7adc      	ldrb	r4, [r3, #11]
 8002786:	2c01      	cmp	r4, #1
 8002788:	d110      	bne.n	80027ac <Operating_Process+0x30>
 800278a:	4620      	mov	r0, r4
 800278c:	f7fe fc28 	bl	8000fe0 <EXT_HV_Ctrl>
 8002790:	4620      	mov	r0, r4
 8002792:	f7fe fc3f 	bl	8001014 <EXT_PD_Ctrl>
 8002796:	4620      	mov	r0, r4
 8002798:	f7fe fc08 	bl	8000fac <EXT_LD_Ctrl>
 800279c:	e8bd 4010 	ldmia.w	sp!, {r4, lr}
 80027a0:	f7ff beea 	b.w	8002578 <ReadMeasuredVal>
 80027a4:	e8bd 4010 	ldmia.w	sp!, {r4, lr}
 80027a8:	f7ff b9c2 	b.w	8001b30 <FanCleanCtrl>
 80027ac:	bd10      	pop	{r4, pc}
 80027ae:	bf00      	nop
 80027b0:	200001f4 	.word	0x200001f4

080027b4 <Manual_GetAdcMsg>:
 80027b4:	b5f8      	push	{r3, r4, r5, r6, r7, lr}
 80027b6:	4d65      	ldr	r5, [pc, #404]	@ (800294c <Manual_GetAdcMsg+0x198>)
 80027b8:	79ec      	ldrb	r4, [r5, #7]
 80027ba:	2c01      	cmp	r4, #1
 80027bc:	f040 8082 	bne.w	80028c4 <Manual_GetAdcMsg+0x110>
 80027c0:	7a2b      	ldrb	r3, [r5, #8]
 80027c2:	b923      	cbnz	r3, 80027ce <Manual_GetAdcMsg+0x1a>
 80027c4:	f000 fc34 	bl	8003030 <UART_TxInit>
 80027c8:	f7ff f944 	bl	8001a54 <WaitTime_Init>
 80027cc:	722c      	strb	r4, [r5, #8]
 80027ce:	4e60      	ldr	r6, [pc, #384]	@ (8002950 <Manual_GetAdcMsg+0x19c>)
 80027d0:	79a9      	ldrb	r1, [r5, #6]
 80027d2:	7833      	ldrb	r3, [r6, #0]
 80027d4:	2b01      	cmp	r3, #1
 80027d6:	d167      	bne.n	80028a8 <Manual_GetAdcMsg+0xf4>
 80027d8:	4c5e      	ldr	r4, [pc, #376]	@ (8002954 <Manual_GetAdcMsg+0x1a0>)
 80027da:	f894 3102 	ldrb.w	r3, [r4, #258]	@ 0x102
 80027de:	18e2      	adds	r2, r4, r3
 80027e0:	20c0      	movs	r0, #192	@ 0xc0
 80027e2:	f882 0080 	strb.w	r0, [r2, #128]	@ 0x80
 80027e6:	1c5a      	adds	r2, r3, #1
 80027e8:	fa54 f282 	uxtab	r2, r4, r2
 80027ec:	2000      	movs	r0, #0
 80027ee:	f882 0080 	strb.w	r0, [r2, #128]	@ 0x80
 80027f2:	1c9a      	adds	r2, r3, #2
 80027f4:	fa54 f282 	uxtab	r2, r4, r2
 80027f8:	1d1d      	adds	r5, r3, #4
 80027fa:	f882 1080 	strb.w	r1, [r2, #128]	@ 0x80
 80027fe:	1cda      	adds	r2, r3, #3
 8002800:	fa54 f282 	uxtab	r2, r4, r2
 8002804:	fa54 f585 	uxtab	r5, r4, r5
 8002808:	f882 0080 	strb.w	r0, [r2, #128]	@ 0x80
 800280c:	1d5a      	adds	r2, r3, #5
 800280e:	b2d2      	uxtb	r2, r2
 8002810:	2702      	movs	r7, #2
 8002812:	2908      	cmp	r1, #8
 8002814:	f884 2102 	strb.w	r2, [r4, #258]	@ 0x102
 8002818:	f885 7080 	strb.w	r7, [r5, #128]	@ 0x80
 800281c:	d132      	bne.n	8002884 <Manual_GetAdcMsg+0xd0>
 800281e:	494e      	ldr	r1, [pc, #312]	@ (8002958 <Manual_GetAdcMsg+0x1a4>)
 8002820:	8809      	ldrh	r1, [r1, #0]
 8002822:	4422      	add	r2, r4
 8002824:	0a0d      	lsrs	r5, r1, #8
 8002826:	f882 5080 	strb.w	r5, [r2, #128]	@ 0x80
 800282a:	1dda      	adds	r2, r3, #7
 800282c:	3306      	adds	r3, #6
 800282e:	fa54 f383 	uxtab	r3, r4, r3
 8002832:	f884 2102 	strb.w	r2, [r4, #258]	@ 0x102
 8002836:	f883 1080 	strb.w	r1, [r3, #128]	@ 0x80
 800283a:	4b48      	ldr	r3, [pc, #288]	@ (800295c <Manual_GetAdcMsg+0x1a8>)
 800283c:	7018      	strb	r0, [r3, #0]
 800283e:	f894 5102 	ldrb.w	r5, [r4, #258]	@ 0x102
 8002842:	4847      	ldr	r0, [pc, #284]	@ (8002960 <Manual_GetAdcMsg+0x1ac>)
 8002844:	1c6b      	adds	r3, r5, #1
 8002846:	4629      	mov	r1, r5
 8002848:	f884 3102 	strb.w	r3, [r4, #258]	@ 0x102
 800284c:	f000 fdcc 	bl	80033e8 <UART_Chksum>
 8002850:	4425      	add	r5, r4
 8002852:	f885 0080 	strb.w	r0, [r5, #128]	@ 0x80
 8002856:	f000 fd67 	bl	8003328 <UART_StuffAssambly>
 800285a:	f894 3102 	ldrb.w	r3, [r4, #258]	@ 0x102
 800285e:	1c5a      	adds	r2, r3, #1
 8002860:	4423      	add	r3, r4
 8002862:	f884 2102 	strb.w	r2, [r4, #258]	@ 0x102
 8002866:	22c2      	movs	r2, #194	@ 0xc2
 8002868:	f883 2080 	strb.w	r2, [r3, #128]	@ 0x80
 800286c:	2301      	movs	r3, #1
 800286e:	f884 3100 	strb.w	r3, [r4, #256]	@ 0x100
 8002872:	4b3c      	ldr	r3, [pc, #240]	@ (8002964 <Manual_GetAdcMsg+0x1b0>)
 8002874:	2400      	movs	r4, #0
 8002876:	609c      	str	r4, [r3, #8]
 8002878:	f7ff f8ec 	bl	8001a54 <WaitTime_Init>
 800287c:	f7fe fdc0 	bl	8001400 <Calc_Init>
 8002880:	7034      	strb	r4, [r6, #0]
 8002882:	bdf8      	pop	{r3, r4, r5, r6, r7, pc}
 8002884:	2909      	cmp	r1, #9
 8002886:	d1da      	bne.n	800283e <Manual_GetAdcMsg+0x8a>
 8002888:	4937      	ldr	r1, [pc, #220]	@ (8002968 <Manual_GetAdcMsg+0x1b4>)
 800288a:	8809      	ldrh	r1, [r1, #0]
 800288c:	4422      	add	r2, r4
 800288e:	0a0d      	lsrs	r5, r1, #8
 8002890:	f882 5080 	strb.w	r5, [r2, #128]	@ 0x80
 8002894:	1dda      	adds	r2, r3, #7
 8002896:	3306      	adds	r3, #6
 8002898:	fa54 f383 	uxtab	r3, r4, r3
 800289c:	f884 2102 	strb.w	r2, [r4, #258]	@ 0x102
 80028a0:	f883 1080 	strb.w	r1, [r3, #128]	@ 0x80
 80028a4:	4b31      	ldr	r3, [pc, #196]	@ (800296c <Manual_GetAdcMsg+0x1b8>)
 80028a6:	e7c9      	b.n	800283c <Manual_GetAdcMsg+0x88>
 80028a8:	2908      	cmp	r1, #8
 80028aa:	d105      	bne.n	80028b8 <Manual_GetAdcMsg+0x104>
 80028ac:	4b2d      	ldr	r3, [pc, #180]	@ (8002964 <Manual_GetAdcMsg+0x1b0>)
 80028ae:	88d8      	ldrh	r0, [r3, #6]
 80028b0:	e8bd 40f8 	ldmia.w	sp!, {r3, r4, r5, r6, r7, lr}
 80028b4:	f7ff bda8 	b.w	8002408 <RngOfPdAdcSamplingVal>
 80028b8:	4b2d      	ldr	r3, [pc, #180]	@ (8002970 <Manual_GetAdcMsg+0x1bc>)
 80028ba:	88d8      	ldrh	r0, [r3, #6]
 80028bc:	e8bd 40f8 	ldmia.w	sp!, {r3, r4, r5, r6, r7, lr}
 80028c0:	f7ff be24 	b.w	800250c <RngOfSiPmAdcSamplingVal>
 80028c4:	4c23      	ldr	r4, [pc, #140]	@ (8002954 <Manual_GetAdcMsg+0x1a0>)
 80028c6:	f000 fbb3 	bl	8003030 <UART_TxInit>
 80028ca:	f894 3102 	ldrb.w	r3, [r4, #258]	@ 0x102
 80028ce:	18e2      	adds	r2, r4, r3
 80028d0:	21c0      	movs	r1, #192	@ 0xc0
 80028d2:	f882 1080 	strb.w	r1, [r2, #128]	@ 0x80
 80028d6:	1c5a      	adds	r2, r3, #1
 80028d8:	fa54 f282 	uxtab	r2, r4, r2
 80028dc:	2600      	movs	r6, #0
 80028de:	f882 6080 	strb.w	r6, [r2, #128]	@ 0x80
 80028e2:	1c9a      	adds	r2, r3, #2
 80028e4:	fa54 f282 	uxtab	r2, r4, r2
 80028e8:	79a9      	ldrb	r1, [r5, #6]
 80028ea:	f882 1080 	strb.w	r1, [r2, #128]	@ 0x80
 80028ee:	1cda      	adds	r2, r3, #3
 80028f0:	fa54 f282 	uxtab	r2, r4, r2
 80028f4:	f894 110a 	ldrb.w	r1, [r4, #266]	@ 0x10a
 80028f8:	f882 1080 	strb.w	r1, [r2, #128]	@ 0x80
 80028fc:	1d5d      	adds	r5, r3, #5
 80028fe:	1d1a      	adds	r2, r3, #4
 8002900:	fa54 f282 	uxtab	r2, r4, r2
 8002904:	b2ed      	uxtb	r5, r5
 8002906:	3306      	adds	r3, #6
 8002908:	4629      	mov	r1, r5
 800290a:	f104 0080 	add.w	r0, r4, #128	@ 0x80
 800290e:	f882 6080 	strb.w	r6, [r2, #128]	@ 0x80
 8002912:	f884 3102 	strb.w	r3, [r4, #258]	@ 0x102
 8002916:	f000 fd67 	bl	80033e8 <UART_Chksum>
 800291a:	4425      	add	r5, r4
 800291c:	f885 0080 	strb.w	r0, [r5, #128]	@ 0x80
 8002920:	f000 fd02 	bl	8003328 <UART_StuffAssambly>
 8002924:	f894 3102 	ldrb.w	r3, [r4, #258]	@ 0x102
 8002928:	1c5a      	adds	r2, r3, #1
 800292a:	4423      	add	r3, r4
 800292c:	f884 2102 	strb.w	r2, [r4, #258]	@ 0x102
 8002930:	22c2      	movs	r2, #194	@ 0xc2
 8002932:	f883 2080 	strb.w	r2, [r3, #128]	@ 0x80
 8002936:	2301      	movs	r3, #1
 8002938:	f884 3100 	strb.w	r3, [r4, #256]	@ 0x100
 800293c:	f7ff f88a 	bl	8001a54 <WaitTime_Init>
 8002940:	4b08      	ldr	r3, [pc, #32]	@ (8002964 <Manual_GetAdcMsg+0x1b0>)
 8002942:	609e      	str	r6, [r3, #8]
 8002944:	4b0b      	ldr	r3, [pc, #44]	@ (8002974 <Manual_GetAdcMsg+0x1c0>)
 8002946:	2240      	movs	r2, #64	@ 0x40
 8002948:	701a      	strb	r2, [r3, #0]
 800294a:	e79a      	b.n	8002882 <Manual_GetAdcMsg+0xce>
 800294c:	200001f4 	.word	0x200001f4
 8002950:	200001bc 	.word	0x200001bc
 8002954:	200002e4 	.word	0x200002e4
 8002958:	200001c2 	.word	0x200001c2
 800295c:	200001be 	.word	0x200001be
 8002960:	20000364 	.word	0x20000364
 8002964:	200000a4 	.word	0x200000a4
 8002968:	200001c0 	.word	0x200001c0
 800296c:	200001bd 	.word	0x200001bd
 8002970:	20000074 	.word	0x20000074
 8002974:	200001c8 	.word	0x200001c8

08002978 <Built_In_Test_Proc>:
 8002978:	e92d 43f8 	stmdb	sp!, {r3, r4, r5, r6, r7, r8, r9, lr}
 800297c:	4cc1      	ldr	r4, [pc, #772]	@ (8002c84 <Built_In_Test_Proc+0x30c>)
 800297e:	7823      	ldrb	r3, [r4, #0]
 8002980:	2b44      	cmp	r3, #68	@ 0x44
 8002982:	d85f      	bhi.n	8002a44 <Built_In_Test_Proc+0xcc>
 8002984:	2b38      	cmp	r3, #56	@ 0x38
 8002986:	d808      	bhi.n	800299a <Built_In_Test_Proc+0x22>
 8002988:	2b10      	cmp	r3, #16
 800298a:	f000 80af 	beq.w	8002aec <Built_In_Test_Proc+0x174>
 800298e:	3b20      	subs	r3, #32
 8002990:	b2da      	uxtb	r2, r3
 8002992:	2a17      	cmp	r2, #23
 8002994:	d920      	bls.n	80029d8 <Built_In_Test_Proc+0x60>
 8002996:	e8bd 83f8 	ldmia.w	sp!, {r3, r4, r5, r6, r7, r8, r9, pc}
 800299a:	3b39      	subs	r3, #57	@ 0x39
 800299c:	2b0b      	cmp	r3, #11
 800299e:	d8fa      	bhi.n	8002996 <Built_In_Test_Proc+0x1e>
 80029a0:	a201      	add	r2, pc, #4	@ (adr r2, 80029a8 <Built_In_Test_Proc+0x30>)
 80029a2:	f852 f023 	ldr.w	pc, [r2, r3, lsl #2]
 80029a6:	bf00      	nop
 80029a8:	08002c45 	.word	0x08002c45
 80029ac:	08002997 	.word	0x08002997
 80029b0:	08002997 	.word	0x08002997
 80029b4:	08002997 	.word	0x08002997
 80029b8:	08002997 	.word	0x08002997
 80029bc:	08002997 	.word	0x08002997
 80029c0:	08002997 	.word	0x08002997
 80029c4:	08002cb7 	.word	0x08002cb7
 80029c8:	08002997 	.word	0x08002997
 80029cc:	08002cd3 	.word	0x08002cd3
 80029d0:	08002997 	.word	0x08002997
 80029d4:	08002ced 	.word	0x08002ced
 80029d8:	2b17      	cmp	r3, #23
 80029da:	d8dc      	bhi.n	8002996 <Built_In_Test_Proc+0x1e>
 80029dc:	a201      	add	r2, pc, #4	@ (adr r2, 80029e4 <Built_In_Test_Proc+0x6c>)
 80029de:	f852 f023 	ldr.w	pc, [r2, r3, lsl #2]
 80029e2:	bf00      	nop
 80029e4:	08002b17 	.word	0x08002b17
 80029e8:	08002997 	.word	0x08002997
 80029ec:	08002b23 	.word	0x08002b23
 80029f0:	08002997 	.word	0x08002997
 80029f4:	08002b3f 	.word	0x08002b3f
 80029f8:	08002997 	.word	0x08002997
 80029fc:	08002997 	.word	0x08002997
 8002a00:	08002997 	.word	0x08002997
 8002a04:	08002997 	.word	0x08002997
 8002a08:	08002997 	.word	0x08002997
 8002a0c:	08002997 	.word	0x08002997
 8002a10:	08002997 	.word	0x08002997
 8002a14:	08002997 	.word	0x08002997
 8002a18:	08002997 	.word	0x08002997
 8002a1c:	08002997 	.word	0x08002997
 8002a20:	08002997 	.word	0x08002997
 8002a24:	08002b67 	.word	0x08002b67
 8002a28:	08002997 	.word	0x08002997
 8002a2c:	08002b81 	.word	0x08002b81
 8002a30:	08002997 	.word	0x08002997
 8002a34:	08002ba1 	.word	0x08002ba1
 8002a38:	08002c0b 	.word	0x08002c0b
 8002a3c:	08002997 	.word	0x08002997
 8002a40:	08002c25 	.word	0x08002c25
 8002a44:	2b64      	cmp	r3, #100	@ 0x64
 8002a46:	f000 81c6 	beq.w	8002dd6 <Built_In_Test_Proc+0x45e>
 8002a4a:	d825      	bhi.n	8002a98 <Built_In_Test_Proc+0x120>
 8002a4c:	2b54      	cmp	r3, #84	@ 0x54
 8002a4e:	f000 818b 	beq.w	8002d68 <Built_In_Test_Proc+0x3f0>
 8002a52:	d810      	bhi.n	8002a76 <Built_In_Test_Proc+0xfe>
 8002a54:	2b50      	cmp	r3, #80	@ 0x50
 8002a56:	f000 817d 	beq.w	8002d54 <Built_In_Test_Proc+0x3dc>
 8002a5a:	2b52      	cmp	r3, #82	@ 0x52
 8002a5c:	d19b      	bne.n	8002996 <Built_In_Test_Proc+0x1e>
 8002a5e:	4b8a      	ldr	r3, [pc, #552]	@ (8002c88 <Built_In_Test_Proc+0x310>)
 8002a60:	2001      	movs	r0, #1
 8002a62:	2103      	movs	r1, #3
 8002a64:	71d8      	strb	r0, [r3, #7]
 8002a66:	f7ff f803 	bl	8001a70 <WaitHoldTime_Sec>
 8002a6a:	2801      	cmp	r0, #1
 8002a6c:	d193      	bne.n	8002996 <Built_In_Test_Proc+0x1e>
 8002a6e:	f7fe fff1 	bl	8001a54 <WaitTime_Init>
 8002a72:	2354      	movs	r3, #84	@ 0x54
 8002a74:	e04d      	b.n	8002b12 <Built_In_Test_Proc+0x19a>
 8002a76:	2b60      	cmp	r3, #96	@ 0x60
 8002a78:	f000 81a0 	beq.w	8002dbc <Built_In_Test_Proc+0x444>
 8002a7c:	2b62      	cmp	r3, #98	@ 0x62
 8002a7e:	d18a      	bne.n	8002996 <Built_In_Test_Proc+0x1e>
 8002a80:	4b81      	ldr	r3, [pc, #516]	@ (8002c88 <Built_In_Test_Proc+0x310>)
 8002a82:	2001      	movs	r0, #1
 8002a84:	2103      	movs	r1, #3
 8002a86:	71d8      	strb	r0, [r3, #7]
 8002a88:	f7fe fff2 	bl	8001a70 <WaitHoldTime_Sec>
 8002a8c:	2801      	cmp	r0, #1
 8002a8e:	d182      	bne.n	8002996 <Built_In_Test_Proc+0x1e>
 8002a90:	f7fe ffe0 	bl	8001a54 <WaitTime_Init>
 8002a94:	2364      	movs	r3, #100	@ 0x64
 8002a96:	e03c      	b.n	8002b12 <Built_In_Test_Proc+0x19a>
 8002a98:	2b74      	cmp	r3, #116	@ 0x74
 8002a9a:	f000 81cd 	beq.w	8002e38 <Built_In_Test_Proc+0x4c0>
 8002a9e:	d812      	bhi.n	8002ac6 <Built_In_Test_Proc+0x14e>
 8002aa0:	2b70      	cmp	r3, #112	@ 0x70
 8002aa2:	f000 81bf 	beq.w	8002e24 <Built_In_Test_Proc+0x4ac>
 8002aa6:	2b72      	cmp	r3, #114	@ 0x72
 8002aa8:	f47f af75 	bne.w	8002996 <Built_In_Test_Proc+0x1e>
 8002aac:	4b76      	ldr	r3, [pc, #472]	@ (8002c88 <Built_In_Test_Proc+0x310>)
 8002aae:	2001      	movs	r0, #1
 8002ab0:	2103      	movs	r1, #3
 8002ab2:	71d8      	strb	r0, [r3, #7]
 8002ab4:	f7fe ffdc 	bl	8001a70 <WaitHoldTime_Sec>
 8002ab8:	2801      	cmp	r0, #1
 8002aba:	f47f af6c 	bne.w	8002996 <Built_In_Test_Proc+0x1e>
 8002abe:	f7fe ffc9 	bl	8001a54 <WaitTime_Init>
 8002ac2:	2374      	movs	r3, #116	@ 0x74
 8002ac4:	e025      	b.n	8002b12 <Built_In_Test_Proc+0x19a>
 8002ac6:	2b90      	cmp	r3, #144	@ 0x90
 8002ac8:	f000 81dd 	beq.w	8002e86 <Built_In_Test_Proc+0x50e>
 8002acc:	2be0      	cmp	r3, #224	@ 0xe0
 8002ace:	f47f af62 	bne.w	8002996 <Built_In_Test_Proc+0x1e>
 8002ad2:	4b6d      	ldr	r3, [pc, #436]	@ (8002c88 <Built_In_Test_Proc+0x310>)
 8002ad4:	f44f 7280 	mov.w	r2, #256	@ 0x100
 8002ad8:	809a      	strh	r2, [r3, #4]
 8002ada:	2200      	movs	r2, #0
 8002adc:	749a      	strb	r2, [r3, #18]
 8002ade:	23ef      	movs	r3, #239	@ 0xef
 8002ae0:	7023      	strb	r3, [r4, #0]
 8002ae2:	e8bd 43f8 	ldmia.w	sp!, {r3, r4, r5, r6, r7, r8, r9, lr}
 8002ae6:	200e      	movs	r0, #14
 8002ae8:	f7ff ba72 	b.w	8001fd0 <RspAssamblyTxMsg>
 8002aec:	2100      	movs	r1, #0
 8002aee:	4608      	mov	r0, r1
 8002af0:	f7fe fc06 	bl	8001300 <FAN_Ctrl>
 8002af4:	2000      	movs	r0, #0
 8002af6:	f7fe faa7 	bl	8001048 <EXT_SiPM_Ctrl>
 8002afa:	2000      	movs	r0, #0
 8002afc:	f7fe fa8a 	bl	8001014 <EXT_PD_Ctrl>
 8002b00:	2000      	movs	r0, #0
 8002b02:	f7fe fa6d 	bl	8000fe0 <EXT_HV_Ctrl>
 8002b06:	2000      	movs	r0, #0
 8002b08:	f7fe fa50 	bl	8000fac <EXT_LD_Ctrl>
 8002b0c:	f7fe ffa2 	bl	8001a54 <WaitTime_Init>
 8002b10:	2320      	movs	r3, #32
 8002b12:	7023      	strb	r3, [r4, #0]
 8002b14:	e73f      	b.n	8002996 <Built_In_Test_Proc+0x1e>
 8002b16:	f7fe fe6b 	bl	80017f0 <GetCfg_DeviceUseCount>
 8002b1a:	4b5c      	ldr	r3, [pc, #368]	@ (8002c8c <Built_In_Test_Proc+0x314>)
 8002b1c:	6258      	str	r0, [r3, #36]	@ 0x24
 8002b1e:	2322      	movs	r3, #34	@ 0x22
 8002b20:	e7f7      	b.n	8002b12 <Built_In_Test_Proc+0x19a>
 8002b22:	2101      	movs	r1, #1
 8002b24:	4608      	mov	r0, r1
 8002b26:	f7fe ffa3 	bl	8001a70 <WaitHoldTime_Sec>
 8002b2a:	4288      	cmp	r0, r1
 8002b2c:	f47f af33 	bne.w	8002996 <Built_In_Test_Proc+0x1e>
 8002b30:	4b56      	ldr	r3, [pc, #344]	@ (8002c8c <Built_In_Test_Proc+0x314>)
 8002b32:	6a58      	ldr	r0, [r3, #36]	@ 0x24
 8002b34:	4408      	add	r0, r1
 8002b36:	f7fe fe45 	bl	80017c4 <SetCfg_DeviceUseCount>
 8002b3a:	2324      	movs	r3, #36	@ 0x24
 8002b3c:	e7e9      	b.n	8002b12 <Built_In_Test_Proc+0x19a>
 8002b3e:	4b53      	ldr	r3, [pc, #332]	@ (8002c8c <Built_In_Test_Proc+0x314>)
 8002b40:	6a5d      	ldr	r5, [r3, #36]	@ 0x24
 8002b42:	f7fe fe55 	bl	80017f0 <GetCfg_DeviceUseCount>
 8002b46:	3501      	adds	r5, #1
 8002b48:	4285      	cmp	r5, r0
 8002b4a:	494f      	ldr	r1, [pc, #316]	@ (8002c88 <Built_In_Test_Proc+0x310>)
 8002b4c:	d107      	bne.n	8002b5e <Built_In_Test_Proc+0x1e6>
 8002b4e:	f7fe ff81 	bl	8001a54 <WaitTime_Init>
 8002b52:	4a4f      	ldr	r2, [pc, #316]	@ (8002c90 <Built_In_Test_Proc+0x318>)
 8002b54:	2300      	movs	r3, #0
 8002b56:	7513      	strb	r3, [r2, #20]
 8002b58:	838b      	strh	r3, [r1, #28]
 8002b5a:	2330      	movs	r3, #48	@ 0x30
 8002b5c:	e7d9      	b.n	8002b12 <Built_In_Test_Proc+0x19a>
 8002b5e:	2310      	movs	r3, #16
 8002b60:	838b      	strh	r3, [r1, #28]
 8002b62:	23e0      	movs	r3, #224	@ 0xe0
 8002b64:	e7d5      	b.n	8002b12 <Built_In_Test_Proc+0x19a>
 8002b66:	2101      	movs	r1, #1
 8002b68:	2000      	movs	r0, #0
 8002b6a:	f7fe fbc9 	bl	8001300 <FAN_Ctrl>
 8002b6e:	f7fe ff71 	bl	8001a54 <WaitTime_Init>
 8002b72:	f7fe ff6f 	bl	8001a54 <WaitTime_Init>
 8002b76:	4b46      	ldr	r3, [pc, #280]	@ (8002c90 <Built_In_Test_Proc+0x318>)
 8002b78:	2200      	movs	r2, #0
 8002b7a:	751a      	strb	r2, [r3, #20]
 8002b7c:	2332      	movs	r3, #50	@ 0x32
 8002b7e:	e7c8      	b.n	8002b12 <Built_In_Test_Proc+0x19a>
 8002b80:	2103      	movs	r1, #3
 8002b82:	2001      	movs	r0, #1
 8002b84:	f7fe ff74 	bl	8001a70 <WaitHoldTime_Sec>
 8002b88:	2801      	cmp	r0, #1
 8002b8a:	f47f af04 	bne.w	8002996 <Built_In_Test_Proc+0x1e>
 8002b8e:	4b41      	ldr	r3, [pc, #260]	@ (8002c94 <Built_In_Test_Proc+0x31c>)
 8002b90:	2200      	movs	r2, #0
 8002b92:	611a      	str	r2, [r3, #16]
 8002b94:	f7fe fbea 	bl	800136c <FAN_RpmMeasuerment>
 8002b98:	f7fe ff5c 	bl	8001a54 <WaitTime_Init>
 8002b9c:	2334      	movs	r3, #52	@ 0x34
 8002b9e:	e7b8      	b.n	8002b12 <Built_In_Test_Proc+0x19a>
 8002ba0:	2101      	movs	r1, #1
 8002ba2:	4608      	mov	r0, r1
 8002ba4:	f7fe ff64 	bl	8001a70 <WaitHoldTime_Sec>
 8002ba8:	4288      	cmp	r0, r1
 8002baa:	4681      	mov	r9, r0
 8002bac:	f47f aef3 	bne.w	8002996 <Built_In_Test_Proc+0x1e>
 8002bb0:	f8df 80e0 	ldr.w	r8, [pc, #224]	@ 8002c94 <Built_In_Test_Proc+0x31c>
 8002bb4:	4d34      	ldr	r5, [pc, #208]	@ (8002c88 <Built_In_Test_Proc+0x310>)
 8002bb6:	f8d8 1010 	ldr.w	r1, [r8, #16]
 8002bba:	20ac      	movs	r0, #172	@ 0xac
 8002bbc:	f7fe fbe8 	bl	8001390 <FAN_ChkCondition>
 8002bc0:	2600      	movs	r6, #0
 8002bc2:	2801      	cmp	r0, #1
 8002bc4:	4607      	mov	r7, r0
 8002bc6:	f8c8 6010 	str.w	r6, [r8, #16]
 8002bca:	d110      	bne.n	8002bee <Built_In_Test_Proc+0x276>
 8002bcc:	4630      	mov	r0, r6
 8002bce:	f7fe fbcd 	bl	800136c <FAN_RpmMeasuerment>
 8002bd2:	4639      	mov	r1, r7
 8002bd4:	4638      	mov	r0, r7
 8002bd6:	f7fe fb93 	bl	8001300 <FAN_Ctrl>
 8002bda:	83ae      	strh	r6, [r5, #28]
 8002bdc:	f888 7004 	strb.w	r7, [r8, #4]
 8002be0:	2335      	movs	r3, #53	@ 0x35
 8002be2:	7023      	strb	r3, [r4, #0]
 8002be4:	77ae      	strb	r6, [r5, #30]
 8002be6:	e8bd 43f8 	ldmia.w	sp!, {r3, r4, r5, r6, r7, r8, r9, lr}
 8002bea:	f7fe bf33 	b.w	8001a54 <WaitTime_Init>
 8002bee:	7fab      	ldrb	r3, [r5, #30]
 8002bf0:	1c5a      	adds	r2, r3, #1
 8002bf2:	2b03      	cmp	r3, #3
 8002bf4:	77aa      	strb	r2, [r5, #30]
 8002bf6:	d802      	bhi.n	8002bfe <Built_In_Test_Proc+0x286>
 8002bf8:	2330      	movs	r3, #48	@ 0x30
 8002bfa:	7023      	strb	r3, [r4, #0]
 8002bfc:	e7f3      	b.n	8002be6 <Built_In_Test_Proc+0x26e>
 8002bfe:	2302      	movs	r3, #2
 8002c00:	83ab      	strh	r3, [r5, #28]
 8002c02:	f888 9004 	strb.w	r9, [r8, #4]
 8002c06:	23e0      	movs	r3, #224	@ 0xe0
 8002c08:	e7eb      	b.n	8002be2 <Built_In_Test_Proc+0x26a>
 8002c0a:	2101      	movs	r1, #1
 8002c0c:	4608      	mov	r0, r1
 8002c0e:	f7fe fb77 	bl	8001300 <FAN_Ctrl>
 8002c12:	f7fe ff1f 	bl	8001a54 <WaitTime_Init>
 8002c16:	f7fe ff1d 	bl	8001a54 <WaitTime_Init>
 8002c1a:	4b1d      	ldr	r3, [pc, #116]	@ (8002c90 <Built_In_Test_Proc+0x318>)
 8002c1c:	2200      	movs	r2, #0
 8002c1e:	751a      	strb	r2, [r3, #20]
 8002c20:	2337      	movs	r3, #55	@ 0x37
 8002c22:	e776      	b.n	8002b12 <Built_In_Test_Proc+0x19a>
 8002c24:	2103      	movs	r1, #3
 8002c26:	2001      	movs	r0, #1
 8002c28:	f7fe ff22 	bl	8001a70 <WaitHoldTime_Sec>
 8002c2c:	2801      	cmp	r0, #1
 8002c2e:	f47f aeb2 	bne.w	8002996 <Built_In_Test_Proc+0x1e>
 8002c32:	4b18      	ldr	r3, [pc, #96]	@ (8002c94 <Built_In_Test_Proc+0x31c>)
 8002c34:	2200      	movs	r2, #0
 8002c36:	611a      	str	r2, [r3, #16]
 8002c38:	f7fe fb98 	bl	800136c <FAN_RpmMeasuerment>
 8002c3c:	f7fe ff0a 	bl	8001a54 <WaitTime_Init>
 8002c40:	2339      	movs	r3, #57	@ 0x39
 8002c42:	e766      	b.n	8002b12 <Built_In_Test_Proc+0x19a>
 8002c44:	2101      	movs	r1, #1
 8002c46:	4608      	mov	r0, r1
 8002c48:	f7fe ff12 	bl	8001a70 <WaitHoldTime_Sec>
 8002c4c:	4288      	cmp	r0, r1
 8002c4e:	4606      	mov	r6, r0
 8002c50:	f47f aea1 	bne.w	8002996 <Built_In_Test_Proc+0x1e>
 8002c54:	4f0f      	ldr	r7, [pc, #60]	@ (8002c94 <Built_In_Test_Proc+0x31c>)
 8002c56:	4d0c      	ldr	r5, [pc, #48]	@ (8002c88 <Built_In_Test_Proc+0x310>)
 8002c58:	6939      	ldr	r1, [r7, #16]
 8002c5a:	f44f 70cd 	mov.w	r0, #410	@ 0x19a
 8002c5e:	f7fe fb97 	bl	8001390 <FAN_ChkCondition>
 8002c62:	2801      	cmp	r0, #1
 8002c64:	4680      	mov	r8, r0
 8002c66:	d117      	bne.n	8002c98 <Built_In_Test_Proc+0x320>
 8002c68:	2000      	movs	r0, #0
 8002c6a:	f7fe fb7f 	bl	800136c <FAN_RpmMeasuerment>
 8002c6e:	4641      	mov	r1, r8
 8002c70:	2000      	movs	r0, #0
 8002c72:	f7fe fb45 	bl	8001300 <FAN_Ctrl>
 8002c76:	2300      	movs	r3, #0
 8002c78:	2240      	movs	r2, #64	@ 0x40
 8002c7a:	83ab      	strh	r3, [r5, #28]
 8002c7c:	713b      	strb	r3, [r7, #4]
 8002c7e:	7022      	strb	r2, [r4, #0]
 8002c80:	77ab      	strb	r3, [r5, #30]
 8002c82:	e7b0      	b.n	8002be6 <Built_In_Test_Proc+0x26e>
 8002c84:	200001c9 	.word	0x200001c9
 8002c88:	200001f4 	.word	0x200001f4
 8002c8c:	20000030 	.word	0x20000030
 8002c90:	200001cc 	.word	0x200001cc
 8002c94:	200000b4 	.word	0x200000b4
 8002c98:	7faa      	ldrb	r2, [r5, #30]
 8002c9a:	2300      	movs	r3, #0
 8002c9c:	2a03      	cmp	r2, #3
 8002c9e:	f102 0101 	add.w	r1, r2, #1
 8002ca2:	613b      	str	r3, [r7, #16]
 8002ca4:	77a9      	strb	r1, [r5, #30]
 8002ca6:	bf91      	iteee	ls
 8002ca8:	2335      	movls	r3, #53	@ 0x35
 8002caa:	77ab      	strbhi	r3, [r5, #30]
 8002cac:	83ae      	strhhi	r6, [r5, #28]
 8002cae:	713e      	strbhi	r6, [r7, #4]
 8002cb0:	bf88      	it	hi
 8002cb2:	23e0      	movhi	r3, #224	@ 0xe0
 8002cb4:	e7a1      	b.n	8002bfa <Built_In_Test_Proc+0x282>
 8002cb6:	2001      	movs	r0, #1
 8002cb8:	f7fe f978 	bl	8000fac <EXT_LD_Ctrl>
 8002cbc:	2000      	movs	r0, #0
 8002cbe:	f7fe fa43 	bl	8001148 <ADC_LD_Measuerment>
 8002cc2:	f7fe fec7 	bl	8001a54 <WaitTime_Init>
 8002cc6:	2342      	movs	r3, #66	@ 0x42
 8002cc8:	7023      	strb	r3, [r4, #0]
 8002cca:	4b76      	ldr	r3, [pc, #472]	@ (8002ea4 <Built_In_Test_Proc+0x52c>)
 8002ccc:	2200      	movs	r2, #0
 8002cce:	71da      	strb	r2, [r3, #7]
 8002cd0:	e661      	b.n	8002996 <Built_In_Test_Proc+0x1e>
 8002cd2:	4b74      	ldr	r3, [pc, #464]	@ (8002ea4 <Built_In_Test_Proc+0x52c>)
 8002cd4:	2001      	movs	r0, #1
 8002cd6:	2103      	movs	r1, #3
 8002cd8:	71d8      	strb	r0, [r3, #7]
 8002cda:	f7fe fec9 	bl	8001a70 <WaitHoldTime_Sec>
 8002cde:	2801      	cmp	r0, #1
 8002ce0:	f47f ae59 	bne.w	8002996 <Built_In_Test_Proc+0x1e>
 8002ce4:	f7fe feb6 	bl	8001a54 <WaitTime_Init>
 8002ce8:	2344      	movs	r3, #68	@ 0x44
 8002cea:	e712      	b.n	8002b12 <Built_In_Test_Proc+0x19a>
 8002cec:	210a      	movs	r1, #10
 8002cee:	2001      	movs	r0, #1
 8002cf0:	f7fe fed2 	bl	8001a98 <WaitHoldTime_mSec>
 8002cf4:	2801      	cmp	r0, #1
 8002cf6:	4607      	mov	r7, r0
 8002cf8:	d127      	bne.n	8002d4a <Built_In_Test_Proc+0x3d2>
 8002cfa:	f8df 81b8 	ldr.w	r8, [pc, #440]	@ 8002eb4 <Built_In_Test_Proc+0x53c>
 8002cfe:	4d69      	ldr	r5, [pc, #420]	@ (8002ea4 <Built_In_Test_Proc+0x52c>)
 8002d00:	f8b8 1004 	ldrh.w	r1, [r8, #4]
 8002d04:	2600      	movs	r6, #0
 8002d06:	f240 40c4 	movw	r0, #1220	@ 0x4c4
 8002d0a:	71ee      	strb	r6, [r5, #7]
 8002d0c:	f7fe faac 	bl	8001268 <ADC_ChkCondition>
 8002d10:	2801      	cmp	r0, #1
 8002d12:	d107      	bne.n	8002d24 <Built_In_Test_Proc+0x3ac>
 8002d14:	4630      	mov	r0, r6
 8002d16:	f7fe fa17 	bl	8001148 <ADC_LD_Measuerment>
 8002d1a:	83ae      	strh	r6, [r5, #28]
 8002d1c:	f888 6003 	strb.w	r6, [r8, #3]
 8002d20:	2350      	movs	r3, #80	@ 0x50
 8002d22:	e75e      	b.n	8002be2 <Built_In_Test_Proc+0x26a>
 8002d24:	7fab      	ldrb	r3, [r5, #30]
 8002d26:	1c5a      	adds	r2, r3, #1
 8002d28:	2b03      	cmp	r3, #3
 8002d2a:	77aa      	strb	r2, [r5, #30]
 8002d2c:	d802      	bhi.n	8002d34 <Built_In_Test_Proc+0x3bc>
 8002d2e:	2340      	movs	r3, #64	@ 0x40
 8002d30:	7023      	strb	r3, [r4, #0]
 8002d32:	e006      	b.n	8002d42 <Built_In_Test_Proc+0x3ca>
 8002d34:	2308      	movs	r3, #8
 8002d36:	83ab      	strh	r3, [r5, #28]
 8002d38:	f888 7003 	strb.w	r7, [r8, #3]
 8002d3c:	23e0      	movs	r3, #224	@ 0xe0
 8002d3e:	7023      	strb	r3, [r4, #0]
 8002d40:	77ae      	strb	r6, [r5, #30]
 8002d42:	4b58      	ldr	r3, [pc, #352]	@ (8002ea4 <Built_In_Test_Proc+0x52c>)
 8002d44:	2201      	movs	r2, #1
 8002d46:	71da      	strb	r2, [r3, #7]
 8002d48:	e74d      	b.n	8002be6 <Built_In_Test_Proc+0x26e>
 8002d4a:	e8bd 43f8 	ldmia.w	sp!, {r3, r4, r5, r6, r7, r8, r9, lr}
 8002d4e:	2001      	movs	r0, #1
 8002d50:	f7fe b9fa 	b.w	8001148 <ADC_LD_Measuerment>
 8002d54:	2001      	movs	r0, #1
 8002d56:	f7fe f943 	bl	8000fe0 <EXT_HV_Ctrl>
 8002d5a:	2000      	movs	r0, #0
 8002d5c:	f7fe fa26 	bl	80011ac <ADC_HV_Measuerment>
 8002d60:	f7fe fe78 	bl	8001a54 <WaitTime_Init>
 8002d64:	2352      	movs	r3, #82	@ 0x52
 8002d66:	e6d4      	b.n	8002b12 <Built_In_Test_Proc+0x19a>
 8002d68:	2132      	movs	r1, #50	@ 0x32
 8002d6a:	2001      	movs	r0, #1
 8002d6c:	f7fe fe94 	bl	8001a98 <WaitHoldTime_mSec>
 8002d70:	2801      	cmp	r0, #1
 8002d72:	4607      	mov	r7, r0
 8002d74:	d11d      	bne.n	8002db2 <Built_In_Test_Proc+0x43a>
 8002d76:	f8df 8134 	ldr.w	r8, [pc, #308]	@ 8002eac <Built_In_Test_Proc+0x534>
 8002d7a:	4d4a      	ldr	r5, [pc, #296]	@ (8002ea4 <Built_In_Test_Proc+0x52c>)
 8002d7c:	f8b8 1004 	ldrh.w	r1, [r8, #4]
 8002d80:	2600      	movs	r6, #0
 8002d82:	f240 30b6 	movw	r0, #950	@ 0x3b6
 8002d86:	71ee      	strb	r6, [r5, #7]
 8002d88:	f7fe fa6e 	bl	8001268 <ADC_ChkCondition>
 8002d8c:	2801      	cmp	r0, #1
 8002d8e:	d107      	bne.n	8002da0 <Built_In_Test_Proc+0x428>
 8002d90:	4630      	mov	r0, r6
 8002d92:	f7fe fa0b 	bl	80011ac <ADC_HV_Measuerment>
 8002d96:	83ae      	strh	r6, [r5, #28]
 8002d98:	f888 6003 	strb.w	r6, [r8, #3]
 8002d9c:	2360      	movs	r3, #96	@ 0x60
 8002d9e:	e720      	b.n	8002be2 <Built_In_Test_Proc+0x26a>
 8002da0:	7fab      	ldrb	r3, [r5, #30]
 8002da2:	1c5a      	adds	r2, r3, #1
 8002da4:	2b03      	cmp	r3, #3
 8002da6:	77aa      	strb	r2, [r5, #30]
 8002da8:	d801      	bhi.n	8002dae <Built_In_Test_Proc+0x436>
 8002daa:	2350      	movs	r3, #80	@ 0x50
 8002dac:	e7c0      	b.n	8002d30 <Built_In_Test_Proc+0x3b8>
 8002dae:	2320      	movs	r3, #32
 8002db0:	e7c1      	b.n	8002d36 <Built_In_Test_Proc+0x3be>
 8002db2:	e8bd 43f8 	ldmia.w	sp!, {r3, r4, r5, r6, r7, r8, r9, lr}
 8002db6:	2001      	movs	r0, #1
 8002db8:	f7fe b9f8 	b.w	80011ac <ADC_HV_Measuerment>
 8002dbc:	2001      	movs	r0, #1
 8002dbe:	f7fe f8f5 	bl	8000fac <EXT_LD_Ctrl>
 8002dc2:	2001      	movs	r0, #1
 8002dc4:	f7fe f926 	bl	8001014 <EXT_PD_Ctrl>
 8002dc8:	2000      	movs	r0, #0
 8002dca:	f7fe f991 	bl	80010f0 <ADC_PD_Measuerment>
 8002dce:	f7fe fe41 	bl	8001a54 <WaitTime_Init>
 8002dd2:	2362      	movs	r3, #98	@ 0x62
 8002dd4:	e69d      	b.n	8002b12 <Built_In_Test_Proc+0x19a>
 8002dd6:	211e      	movs	r1, #30
 8002dd8:	2001      	movs	r0, #1
 8002dda:	f7fe fe5d 	bl	8001a98 <WaitHoldTime_mSec>
 8002dde:	2801      	cmp	r0, #1
 8002de0:	d11b      	bne.n	8002e1a <Built_In_Test_Proc+0x4a2>
 8002de2:	4a31      	ldr	r2, [pc, #196]	@ (8002ea8 <Built_In_Test_Proc+0x530>)
 8002de4:	4d2f      	ldr	r5, [pc, #188]	@ (8002ea4 <Built_In_Test_Proc+0x52c>)
 8002de6:	68d1      	ldr	r1, [r2, #12]
 8002de8:	f246 13a7 	movw	r3, #24999	@ 0x61a7
 8002dec:	2600      	movs	r6, #0
 8002dee:	4299      	cmp	r1, r3
 8002df0:	71ee      	strb	r6, [r5, #7]
 8002df2:	d807      	bhi.n	8002e04 <Built_In_Test_Proc+0x48c>
 8002df4:	4630      	mov	r0, r6
 8002df6:	f7fe f97b 	bl	80010f0 <ADC_PD_Measuerment>
 8002dfa:	4b2c      	ldr	r3, [pc, #176]	@ (8002eac <Built_In_Test_Proc+0x534>)
 8002dfc:	83ae      	strh	r6, [r5, #28]
 8002dfe:	70de      	strb	r6, [r3, #3]
 8002e00:	2370      	movs	r3, #112	@ 0x70
 8002e02:	e6ee      	b.n	8002be2 <Built_In_Test_Proc+0x26a>
 8002e04:	7fab      	ldrb	r3, [r5, #30]
 8002e06:	3301      	adds	r3, #1
 8002e08:	b2db      	uxtb	r3, r3
 8002e0a:	2b03      	cmp	r3, #3
 8002e0c:	77ab      	strb	r3, [r5, #30]
 8002e0e:	d801      	bhi.n	8002e14 <Built_In_Test_Proc+0x49c>
 8002e10:	2360      	movs	r3, #96	@ 0x60
 8002e12:	e78d      	b.n	8002d30 <Built_In_Test_Proc+0x3b8>
 8002e14:	83ae      	strh	r6, [r5, #28]
 8002e16:	70d0      	strb	r0, [r2, #3]
 8002e18:	e790      	b.n	8002d3c <Built_In_Test_Proc+0x3c4>
 8002e1a:	e8bd 43f8 	ldmia.w	sp!, {r3, r4, r5, r6, r7, r8, r9, lr}
 8002e1e:	2001      	movs	r0, #1
 8002e20:	f7fe b966 	b.w	80010f0 <ADC_PD_Measuerment>
 8002e24:	2000      	movs	r0, #0
 8002e26:	f7fe f9f3 	bl	8001210 <ADC_SiPM_Measuerment>
 8002e2a:	2001      	movs	r0, #1
 8002e2c:	f7fe f90c 	bl	8001048 <EXT_SiPM_Ctrl>
 8002e30:	f7fe fe10 	bl	8001a54 <WaitTime_Init>
 8002e34:	2372      	movs	r3, #114	@ 0x72
 8002e36:	e66c      	b.n	8002b12 <Built_In_Test_Proc+0x19a>
 8002e38:	211e      	movs	r1, #30
 8002e3a:	2001      	movs	r0, #1
 8002e3c:	f7fe fe2c 	bl	8001a98 <WaitHoldTime_mSec>
 8002e40:	2801      	cmp	r0, #1
 8002e42:	d11b      	bne.n	8002e7c <Built_In_Test_Proc+0x504>
 8002e44:	4f1a      	ldr	r7, [pc, #104]	@ (8002eb0 <Built_In_Test_Proc+0x538>)
 8002e46:	4d17      	ldr	r5, [pc, #92]	@ (8002ea4 <Built_In_Test_Proc+0x52c>)
 8002e48:	68fa      	ldr	r2, [r7, #12]
 8002e4a:	f246 13a7 	movw	r3, #24999	@ 0x61a7
 8002e4e:	2600      	movs	r6, #0
 8002e50:	429a      	cmp	r2, r3
 8002e52:	71ee      	strb	r6, [r5, #7]
 8002e54:	d806      	bhi.n	8002e64 <Built_In_Test_Proc+0x4ec>
 8002e56:	4630      	mov	r0, r6
 8002e58:	f7fe f9da 	bl	8001210 <ADC_SiPM_Measuerment>
 8002e5c:	83ae      	strh	r6, [r5, #28]
 8002e5e:	70fe      	strb	r6, [r7, #3]
 8002e60:	2390      	movs	r3, #144	@ 0x90
 8002e62:	e6be      	b.n	8002be2 <Built_In_Test_Proc+0x26a>
 8002e64:	7fab      	ldrb	r3, [r5, #30]
 8002e66:	3301      	adds	r3, #1
 8002e68:	b2db      	uxtb	r3, r3
 8002e6a:	2b03      	cmp	r3, #3
 8002e6c:	77ab      	strb	r3, [r5, #30]
 8002e6e:	d801      	bhi.n	8002e74 <Built_In_Test_Proc+0x4fc>
 8002e70:	2370      	movs	r3, #112	@ 0x70
 8002e72:	e75d      	b.n	8002d30 <Built_In_Test_Proc+0x3b8>
 8002e74:	2380      	movs	r3, #128	@ 0x80
 8002e76:	83ab      	strh	r3, [r5, #28]
 8002e78:	70f8      	strb	r0, [r7, #3]
 8002e7a:	e75f      	b.n	8002d3c <Built_In_Test_Proc+0x3c4>
 8002e7c:	e8bd 43f8 	ldmia.w	sp!, {r3, r4, r5, r6, r7, r8, r9, lr}
 8002e80:	2001      	movs	r0, #1
 8002e82:	f7fe b9c5 	b.w	8001210 <ADC_SiPM_Measuerment>
 8002e86:	4d07      	ldr	r5, [pc, #28]	@ (8002ea4 <Built_In_Test_Proc+0x52c>)
 8002e88:	f7fe fde4 	bl	8001a54 <WaitTime_Init>
 8002e8c:	2000      	movs	r0, #0
 8002e8e:	2301      	movs	r3, #1
 8002e90:	80ab      	strh	r3, [r5, #4]
 8002e92:	f7ff f89d 	bl	8001fd0 <RspAssamblyTxMsg>
 8002e96:	7cab      	ldrb	r3, [r5, #18]
 8002e98:	2b01      	cmp	r3, #1
 8002e9a:	f04f 0300 	mov.w	r3, #0
 8002e9e:	bf08      	it	eq
 8002ea0:	74ab      	strbeq	r3, [r5, #18]
 8002ea2:	e636      	b.n	8002b12 <Built_In_Test_Proc+0x19a>
 8002ea4:	200001f4 	.word	0x200001f4
 8002ea8:	200000a4 	.word	0x200000a4
 8002eac:	20000084 	.word	0x20000084
 8002eb0:	20000074 	.word	0x20000074
 8002eb4:	20000094 	.word	0x20000094

08002eb8 <SYSTEM_SEQ>:
 8002eb8:	b510      	push	{r4, lr}
 8002eba:	4c2c      	ldr	r4, [pc, #176]	@ (8002f6c <SYSTEM_SEQ+0xb4>)
 8002ebc:	7823      	ldrb	r3, [r4, #0]
 8002ebe:	2b50      	cmp	r3, #80	@ 0x50
 8002ec0:	d047      	beq.n	8002f52 <SYSTEM_SEQ+0x9a>
 8002ec2:	d80e      	bhi.n	8002ee2 <SYSTEM_SEQ+0x2a>
 8002ec4:	2b30      	cmp	r3, #48	@ 0x30
 8002ec6:	d02e      	beq.n	8002f26 <SYSTEM_SEQ+0x6e>
 8002ec8:	d803      	bhi.n	8002ed2 <SYSTEM_SEQ+0x1a>
 8002eca:	b1e3      	cbz	r3, 8002f06 <SYSTEM_SEQ+0x4e>
 8002ecc:	2b10      	cmp	r3, #16
 8002ece:	d01d      	beq.n	8002f0c <SYSTEM_SEQ+0x54>
 8002ed0:	bd10      	pop	{r4, pc}
 8002ed2:	2b35      	cmp	r3, #53	@ 0x35
 8002ed4:	d02c      	beq.n	8002f30 <SYSTEM_SEQ+0x78>
 8002ed6:	2b40      	cmp	r3, #64	@ 0x40
 8002ed8:	d1fa      	bne.n	8002ed0 <SYSTEM_SEQ+0x18>
 8002eda:	f7fe fed5 	bl	8001c88 <Measure_Stop>
 8002ede:	2305      	movs	r3, #5
 8002ee0:	e012      	b.n	8002f08 <SYSTEM_SEQ+0x50>
 8002ee2:	2b70      	cmp	r3, #112	@ 0x70
 8002ee4:	d039      	beq.n	8002f5a <SYSTEM_SEQ+0xa2>
 8002ee6:	d808      	bhi.n	8002efa <SYSTEM_SEQ+0x42>
 8002ee8:	2b60      	cmp	r3, #96	@ 0x60
 8002eea:	d03a      	beq.n	8002f62 <SYSTEM_SEQ+0xaa>
 8002eec:	2b64      	cmp	r3, #100	@ 0x64
 8002eee:	d1ef      	bne.n	8002ed0 <SYSTEM_SEQ+0x18>
 8002ef0:	f7fe fe1e 	bl	8001b30 <FanCleanCtrl>
 8002ef4:	2801      	cmp	r0, #1
 8002ef6:	d1eb      	bne.n	8002ed0 <SYSTEM_SEQ+0x18>
 8002ef8:	e7f1      	b.n	8002ede <SYSTEM_SEQ+0x26>
 8002efa:	2ba0      	cmp	r3, #160	@ 0xa0
 8002efc:	d1e8      	bne.n	8002ed0 <SYSTEM_SEQ+0x18>
 8002efe:	4b1c      	ldr	r3, [pc, #112]	@ (8002f70 <SYSTEM_SEQ+0xb8>)
 8002f00:	4a1c      	ldr	r2, [pc, #112]	@ (8002f74 <SYSTEM_SEQ+0xbc>)
 8002f02:	60da      	str	r2, [r3, #12]
 8002f04:	e7e4      	b.n	8002ed0 <SYSTEM_SEQ+0x18>
 8002f06:	2310      	movs	r3, #16
 8002f08:	7023      	strb	r3, [r4, #0]
 8002f0a:	e7e1      	b.n	8002ed0 <SYSTEM_SEQ+0x18>
 8002f0c:	f7fe f9e4 	bl	80012d8 <FAN_Init>
 8002f10:	2305      	movs	r3, #5
 8002f12:	7023      	strb	r3, [r4, #0]
 8002f14:	4b18      	ldr	r3, [pc, #96]	@ (8002f78 <SYSTEM_SEQ+0xc0>)
 8002f16:	4a19      	ldr	r2, [pc, #100]	@ (8002f7c <SYSTEM_SEQ+0xc4>)
 8002f18:	68d9      	ldr	r1, [r3, #12]
 8002f1a:	8011      	strh	r1, [r2, #0]
 8002f1c:	f8d3 20d4 	ldr.w	r2, [r3, #212]	@ 0xd4
 8002f20:	4b17      	ldr	r3, [pc, #92]	@ (8002f80 <SYSTEM_SEQ+0xc8>)
 8002f22:	801a      	strh	r2, [r3, #0]
 8002f24:	e7d4      	b.n	8002ed0 <SYSTEM_SEQ+0x18>
 8002f26:	4b17      	ldr	r3, [pc, #92]	@ (8002f84 <SYSTEM_SEQ+0xcc>)
 8002f28:	2210      	movs	r2, #16
 8002f2a:	701a      	strb	r2, [r3, #0]
 8002f2c:	2335      	movs	r3, #53	@ 0x35
 8002f2e:	e7eb      	b.n	8002f08 <SYSTEM_SEQ+0x50>
 8002f30:	f7ff fd22 	bl	8002978 <Built_In_Test_Proc>
 8002f34:	4b13      	ldr	r3, [pc, #76]	@ (8002f84 <SYSTEM_SEQ+0xcc>)
 8002f36:	781b      	ldrb	r3, [r3, #0]
 8002f38:	2b00      	cmp	r3, #0
 8002f3a:	d1c9      	bne.n	8002ed0 <SYSTEM_SEQ+0x18>
 8002f3c:	4b12      	ldr	r3, [pc, #72]	@ (8002f88 <SYSTEM_SEQ+0xd0>)
 8002f3e:	795a      	ldrb	r2, [r3, #5]
 8002f40:	791b      	ldrb	r3, [r3, #4]
 8002f42:	2a01      	cmp	r2, #1
 8002f44:	bf04      	itt	eq
 8002f46:	22ee      	moveq	r2, #238	@ 0xee
 8002f48:	7022      	strbeq	r2, [r4, #0]
 8002f4a:	2b01      	cmp	r3, #1
 8002f4c:	d1c0      	bne.n	8002ed0 <SYSTEM_SEQ+0x18>
 8002f4e:	2340      	movs	r3, #64	@ 0x40
 8002f50:	e7da      	b.n	8002f08 <SYSTEM_SEQ+0x50>
 8002f52:	e8bd 4010 	ldmia.w	sp!, {r4, lr}
 8002f56:	f7ff bc11 	b.w	800277c <Operating_Process>
 8002f5a:	e8bd 4010 	ldmia.w	sp!, {r4, lr}
 8002f5e:	f7ff bc29 	b.w	80027b4 <Manual_GetAdcMsg>
 8002f62:	e8bd 4010 	ldmia.w	sp!, {r4, lr}
 8002f66:	f7fe be8f 	b.w	8001c88 <Measure_Stop>
 8002f6a:	bf00      	nop
 8002f6c:	200001c8 	.word	0x200001c8
 8002f70:	e000ed00 	.word	0xe000ed00
 8002f74:	05fa0004 	.word	0x05fa0004
 8002f78:	200000cc 	.word	0x200000cc
 8002f7c:	200001c6 	.word	0x200001c6
 8002f80:	200001c4 	.word	0x200001c4
 8002f84:	200001c9 	.word	0x200001c9
 8002f88:	200001f4 	.word	0x200001f4

08002f8c <SYSTEM_Process>:
 8002f8c:	b510      	push	{r4, lr}
 8002f8e:	4c1d      	ldr	r4, [pc, #116]	@ (8003004 <SYSTEM_Process+0x78>)
 8002f90:	f000 f984 	bl	800329c <UART_MsgProc>
 8002f94:	f7ff f92a 	bl	80021ec <PostMessage_Proc>
 8002f98:	f7ff ff8e 	bl	8002eb8 <SYSTEM_SEQ>
 8002f9c:	7823      	ldrb	r3, [r4, #0]
 8002f9e:	2b01      	cmp	r3, #1
 8002fa0:	d10a      	bne.n	8002fb8 <SYSTEM_Process+0x2c>
 8002fa2:	7ba3      	ldrb	r3, [r4, #14]
 8002fa4:	3301      	adds	r3, #1
 8002fa6:	73a3      	strb	r3, [r4, #14]
 8002fa8:	7f23      	ldrb	r3, [r4, #28]
 8002faa:	2b01      	cmp	r3, #1
 8002fac:	bf02      	ittt	eq
 8002fae:	6a23      	ldreq	r3, [r4, #32]
 8002fb0:	3301      	addeq	r3, #1
 8002fb2:	6223      	streq	r3, [r4, #32]
 8002fb4:	2300      	movs	r3, #0
 8002fb6:	7023      	strb	r3, [r4, #0]
 8002fb8:	7ba3      	ldrb	r3, [r4, #14]
 8002fba:	2b09      	cmp	r3, #9
 8002fbc:	d904      	bls.n	8002fc8 <SYSTEM_Process+0x3c>
 8002fbe:	8a23      	ldrh	r3, [r4, #16]
 8002fc0:	2200      	movs	r2, #0
 8002fc2:	3301      	adds	r3, #1
 8002fc4:	73a2      	strb	r2, [r4, #14]
 8002fc6:	8223      	strh	r3, [r4, #16]
 8002fc8:	8a23      	ldrh	r3, [r4, #16]
 8002fca:	2b09      	cmp	r3, #9
 8002fcc:	d919      	bls.n	8003002 <SYSTEM_Process+0x76>
 8002fce:	490e      	ldr	r1, [pc, #56]	@ (8003008 <SYSTEM_Process+0x7c>)
 8002fd0:	2300      	movs	r3, #0
 8002fd2:	8223      	strh	r3, [r4, #16]
 8002fd4:	7acb      	ldrb	r3, [r1, #11]
 8002fd6:	2b01      	cmp	r3, #1
 8002fd8:	d10a      	bne.n	8002ff0 <SYSTEM_Process+0x64>
 8002fda:	4a0c      	ldr	r2, [pc, #48]	@ (800300c <SYSTEM_Process+0x80>)
 8002fdc:	7990      	ldrb	r0, [r2, #6]
 8002fde:	2801      	cmp	r0, #1
 8002fe0:	d106      	bne.n	8002ff0 <SYSTEM_Process+0x64>
 8002fe2:	6893      	ldr	r3, [r2, #8]
 8002fe4:	3301      	adds	r3, #1
 8002fe6:	6093      	str	r3, [r2, #8]
 8002fe8:	68d2      	ldr	r2, [r2, #12]
 8002fea:	4293      	cmp	r3, r2
 8002fec:	bf28      	it	cs
 8002fee:	7348      	strbcs	r0, [r1, #13]
 8002ff0:	8b08      	ldrh	r0, [r1, #24]
 8002ff2:	f7fe fd65 	bl	8001ac0 <MCU_AlarmTempMonitor>
 8002ff6:	7d23      	ldrb	r3, [r4, #20]
 8002ff8:	2b01      	cmp	r3, #1
 8002ffa:	bf02      	ittt	eq
 8002ffc:	69a3      	ldreq	r3, [r4, #24]
 8002ffe:	3301      	addeq	r3, #1
 8003000:	61a3      	streq	r3, [r4, #24]
 8003002:	bd10      	pop	{r4, pc}
 8003004:	200001cc 	.word	0x200001cc
 8003008:	200001f4 	.word	0x200001f4
 800300c:	200000b4 	.word	0x200000b4

08003010 <UART_RxInit>:
 8003010:	4b05      	ldr	r3, [pc, #20]	@ (8003028 <UART_RxInit+0x18>)
 8003012:	4806      	ldr	r0, [pc, #24]	@ (800302c <UART_RxInit+0x1c>)
 8003014:	2100      	movs	r1, #0
 8003016:	2280      	movs	r2, #128	@ 0x80
 8003018:	f880 1103 	strb.w	r1, [r0, #259]	@ 0x103
 800301c:	f883 1281 	strb.w	r1, [r3, #641]	@ 0x281
 8003020:	f883 1286 	strb.w	r1, [r3, #646]	@ 0x286
 8003024:	f003 bd98 	b.w	8006b58 <memset>
 8003028:	200003ef 	.word	0x200003ef
 800302c:	200002e4 	.word	0x200002e4

08003030 <UART_TxInit>:
 8003030:	b538      	push	{r3, r4, r5, lr}
 8003032:	4810      	ldr	r0, [pc, #64]	@ (8003074 <UART_TxInit+0x44>)
 8003034:	4d10      	ldr	r5, [pc, #64]	@ (8003078 <UART_TxInit+0x48>)
 8003036:	2400      	movs	r4, #0
 8003038:	2280      	movs	r2, #128	@ 0x80
 800303a:	f880 4102 	strb.w	r4, [r0, #258]	@ 0x102
 800303e:	f880 4100 	strb.w	r4, [r0, #256]	@ 0x100
 8003042:	f880 4105 	strb.w	r4, [r0, #261]	@ 0x105
 8003046:	f880 4109 	strb.w	r4, [r0, #265]	@ 0x109
 800304a:	f880 4106 	strb.w	r4, [r0, #262]	@ 0x106
 800304e:	f880 4108 	strb.w	r4, [r0, #264]	@ 0x108
 8003052:	f880 410a 	strb.w	r4, [r0, #266]	@ 0x10a
 8003056:	4621      	mov	r1, r4
 8003058:	4410      	add	r0, r2
 800305a:	f885 4282 	strb.w	r4, [r5, #642]	@ 0x282
 800305e:	f003 fd7b 	bl	8006b58 <memset>
 8003062:	f44f 7280 	mov.w	r2, #256	@ 0x100
 8003066:	4621      	mov	r1, r4
 8003068:	18a8      	adds	r0, r5, r2
 800306a:	e8bd 4038 	ldmia.w	sp!, {r3, r4, r5, lr}
 800306e:	f003 bd73 	b.w	8006b58 <memset>
 8003072:	bf00      	nop
 8003074:	200002e4 	.word	0x200002e4
 8003078:	200003ef 	.word	0x200003ef

0800307c <UART_CMD_CHK>:
 800307c:	2810      	cmp	r0, #16
 800307e:	d80c      	bhi.n	800309a <UART_CMD_CHK+0x1e>
 8003080:	3801      	subs	r0, #1
 8003082:	280f      	cmp	r0, #15
 8003084:	d80b      	bhi.n	800309e <UART_CMD_CHK+0x22>
 8003086:	e8df f000 	tbb	[pc, r0]
 800308a:	0a0e      	.short	0x0a0e
 800308c:	19130a0a 	.word	0x19130a0a
 8003090:	0a0e0e1d 	.word	0x0a0e0e1d
 8003094:	2819210a 	.word	0x2819210a
 8003098:	2a0a      	.short	0x2a0a
 800309a:	28f0      	cmp	r0, #240	@ 0xf0
 800309c:	d125      	bne.n	80030ea <UART_CMD_CHK+0x6e>
 800309e:	fab1 f081 	clz	r0, r1
 80030a2:	0940      	lsrs	r0, r0, #5
 80030a4:	4770      	bx	lr
 80030a6:	2902      	cmp	r1, #2
 80030a8:	bf14      	ite	ne
 80030aa:	2000      	movne	r0, #0
 80030ac:	2001      	moveq	r0, #1
 80030ae:	4770      	bx	lr
 80030b0:	1e48      	subs	r0, r1, #1
 80030b2:	2801      	cmp	r0, #1
 80030b4:	bf8c      	ite	hi
 80030b6:	2000      	movhi	r0, #0
 80030b8:	2001      	movls	r0, #1
 80030ba:	4770      	bx	lr
 80030bc:	f001 00fb 	and.w	r0, r1, #251	@ 0xfb
 80030c0:	2801      	cmp	r0, #1
 80030c2:	e7f1      	b.n	80030a8 <UART_CMD_CHK+0x2c>
 80030c4:	2902      	cmp	r1, #2
 80030c6:	d00e      	beq.n	80030e6 <UART_CMD_CHK+0x6a>
 80030c8:	2904      	cmp	r1, #4
 80030ca:	e7ed      	b.n	80030a8 <UART_CMD_CHK+0x2c>
 80030cc:	2910      	cmp	r1, #16
 80030ce:	d80c      	bhi.n	80030ea <UART_CMD_CHK+0x6e>
 80030d0:	4b07      	ldr	r3, [pc, #28]	@ (80030f0 <UART_CMD_CHK+0x74>)
 80030d2:	40cb      	lsrs	r3, r1
 80030d4:	f003 0001 	and.w	r0, r3, #1
 80030d8:	4770      	bx	lr
 80030da:	2901      	cmp	r1, #1
 80030dc:	e7e4      	b.n	80030a8 <UART_CMD_CHK+0x2c>
 80030de:	f001 00fb 	and.w	r0, r1, #251	@ 0xfb
 80030e2:	2802      	cmp	r0, #2
 80030e4:	e7e0      	b.n	80030a8 <UART_CMD_CHK+0x2c>
 80030e6:	2001      	movs	r0, #1
 80030e8:	4770      	bx	lr
 80030ea:	2000      	movs	r0, #0
 80030ec:	4770      	bx	lr
 80030ee:	bf00      	nop
 80030f0:	00010102 	.word	0x00010102

080030f4 <FindRcvMsgToPacket>:
 80030f4:	e92d 4ff7 	stmdb	sp!, {r0, r1, r2, r4, r5, r6, r7, r8, r9, sl, fp, lr}
 80030f8:	4a56      	ldr	r2, [pc, #344]	@ (8003254 <FindRcvMsgToPacket+0x160>)
 80030fa:	9100      	str	r1, [sp, #0]
 80030fc:	2400      	movs	r4, #0
 80030fe:	1e8b      	subs	r3, r1, #2
 8003100:	f882 410a 	strb.w	r4, [r2, #266]	@ 0x10a
 8003104:	4684      	mov	ip, r0
 8003106:	4627      	mov	r7, r4
 8003108:	46a0      	mov	r8, r4
 800310a:	46a6      	mov	lr, r4
 800310c:	4626      	mov	r6, r4
 800310e:	46a2      	mov	sl, r4
 8003110:	4625      	mov	r5, r4
 8003112:	9301      	str	r3, [sp, #4]
 8003114:	9900      	ldr	r1, [sp, #0]
 8003116:	b2e3      	uxtb	r3, r4
 8003118:	428b      	cmp	r3, r1
 800311a:	d251      	bcs.n	80031c0 <FindRcvMsgToPacket+0xcc>
 800311c:	f1be 0f00 	cmp.w	lr, #0
 8003120:	d10f      	bne.n	8003142 <FindRcvMsgToPacket+0x4e>
 8003122:	f89c 9000 	ldrb.w	r9, [ip]
 8003126:	f1b9 0fc0 	cmp.w	r9, #192	@ 0xc0
 800312a:	d106      	bne.n	800313a <FindRcvMsgToPacket+0x46>
 800312c:	3d40      	subs	r5, #64	@ 0x40
 800312e:	f802 9006 	strb.w	r9, [r2, r6]
 8003132:	b2ed      	uxtb	r5, r5
 8003134:	469a      	mov	sl, r3
 8003136:	f04f 0e01 	mov.w	lr, #1
 800313a:	3401      	adds	r4, #1
 800313c:	f10c 0c01 	add.w	ip, ip, #1
 8003140:	e7e8      	b.n	8003114 <FindRcvMsgToPacket+0x20>
 8003142:	4553      	cmp	r3, sl
 8003144:	d9f9      	bls.n	800313a <FindRcvMsgToPacket+0x46>
 8003146:	1c73      	adds	r3, r6, #1
 8003148:	b2db      	uxtb	r3, r3
 800314a:	f810 b003 	ldrb.w	fp, [r0, r3]
 800314e:	f1bb 0fdb 	cmp.w	fp, #219	@ 0xdb
 8003152:	d11e      	bne.n	8003192 <FindRcvMsgToPacket+0x9e>
 8003154:	eb00 0903 	add.w	r9, r0, r3
 8003158:	f899 9001 	ldrb.w	r9, [r9, #1]
 800315c:	f1b9 0fdc 	cmp.w	r9, #220	@ 0xdc
 8003160:	d104      	bne.n	800316c <FindRcvMsgToPacket+0x78>
 8003162:	f04f 08c0 	mov.w	r8, #192	@ 0xc0
 8003166:	f802 8003 	strb.w	r8, [r2, r3]
 800316a:	e004      	b.n	8003176 <FindRcvMsgToPacket+0x82>
 800316c:	f1b9 0fdd 	cmp.w	r9, #221	@ 0xdd
 8003170:	d109      	bne.n	8003186 <FindRcvMsgToPacket+0x92>
 8003172:	f802 b003 	strb.w	fp, [r2, r3]
 8003176:	3701      	adds	r7, #1
 8003178:	b2ff      	uxtb	r7, r7
 800317a:	2f01      	cmp	r7, #1
 800317c:	d968      	bls.n	8003250 <FindRcvMsgToPacket+0x15c>
 800317e:	2700      	movs	r7, #0
 8003180:	461e      	mov	r6, r3
 8003182:	46b8      	mov	r8, r7
 8003184:	e7d9      	b.n	800313a <FindRcvMsgToPacket+0x46>
 8003186:	f1b9 0fde 	cmp.w	r9, #222	@ 0xde
 800318a:	d102      	bne.n	8003192 <FindRcvMsgToPacket+0x9e>
 800318c:	f04f 08c2 	mov.w	r8, #194	@ 0xc2
 8003190:	e7e9      	b.n	8003166 <FindRcvMsgToPacket+0x72>
 8003192:	f1b8 0f00 	cmp.w	r8, #0
 8003196:	d1ee      	bne.n	8003176 <FindRcvMsgToPacket+0x82>
 8003198:	f89c 6000 	ldrb.w	r6, [ip]
 800319c:	54d6      	strb	r6, [r2, r3]
 800319e:	2b01      	cmp	r3, #1
 80031a0:	d14a      	bne.n	8003238 <FindRcvMsgToPacket+0x144>
 80031a2:	f882 6107 	strb.w	r6, [r2, #263]	@ 0x107
 80031a6:	9901      	ldr	r1, [sp, #4]
 80031a8:	f89c 9000 	ldrb.w	r9, [ip]
 80031ac:	42a1      	cmp	r1, r4
 80031ae:	bfc4      	itt	gt
 80031b0:	19ad      	addgt	r5, r5, r6
 80031b2:	b2ed      	uxtbgt	r5, r5
 80031b4:	f1b9 0fc2 	cmp.w	r9, #194	@ 0xc2
 80031b8:	d148      	bne.n	800324c <FindRcvMsgToPacket+0x158>
 80031ba:	442e      	add	r6, r5
 80031bc:	b2f5      	uxtb	r5, r6
 80031be:	461e      	mov	r6, r3
 80031c0:	4416      	add	r6, r2
 80031c2:	f892 4105 	ldrb.w	r4, [r2, #261]	@ 0x105
 80031c6:	f816 3c01 	ldrb.w	r3, [r6, #-1]
 80031ca:	f882 3109 	strb.w	r3, [r2, #265]	@ 0x109
 80031ce:	42ab      	cmp	r3, r5
 80031d0:	bf1c      	itt	ne
 80031d2:	2301      	movne	r3, #1
 80031d4:	f882 310a 	strbne.w	r3, [r2, #266]	@ 0x10a
 80031d8:	7813      	ldrb	r3, [r2, #0]
 80031da:	f892 1108 	ldrb.w	r1, [r2, #264]	@ 0x108
 80031de:	2bc0      	cmp	r3, #192	@ 0xc0
 80031e0:	bf18      	it	ne
 80031e2:	2301      	movne	r3, #1
 80031e4:	4620      	mov	r0, r4
 80031e6:	bf18      	it	ne
 80031e8:	f882 310a 	strbne.w	r3, [r2, #266]	@ 0x10a
 80031ec:	f7ff ff46 	bl	800307c <UART_CMD_CHK>
 80031f0:	b910      	cbnz	r0, 80031f8 <FindRcvMsgToPacket+0x104>
 80031f2:	2302      	movs	r3, #2
 80031f4:	f882 310a 	strb.w	r3, [r2, #266]	@ 0x10a
 80031f8:	4b17      	ldr	r3, [pc, #92]	@ (8003258 <FindRcvMsgToPacket+0x164>)
 80031fa:	7ad9      	ldrb	r1, [r3, #11]
 80031fc:	2901      	cmp	r1, #1
 80031fe:	d105      	bne.n	800320c <FindRcvMsgToPacket+0x118>
 8003200:	1ea1      	subs	r1, r4, #2
 8003202:	2901      	cmp	r1, #1
 8003204:	bf84      	itt	hi
 8003206:	2103      	movhi	r1, #3
 8003208:	f882 110a 	strbhi.w	r1, [r2, #266]	@ 0x10a
 800320c:	7c99      	ldrb	r1, [r3, #18]
 800320e:	7b1b      	ldrb	r3, [r3, #12]
 8003210:	2901      	cmp	r1, #1
 8003212:	bf04      	itt	eq
 8003214:	2103      	moveq	r1, #3
 8003216:	f882 110a 	strbeq.w	r1, [r2, #266]	@ 0x10a
 800321a:	2b01      	cmp	r3, #1
 800321c:	d104      	bne.n	8003228 <FindRcvMsgToPacket+0x134>
 800321e:	2c0b      	cmp	r4, #11
 8003220:	bf1c      	itt	ne
 8003222:	2306      	movne	r3, #6
 8003224:	f882 310a 	strbne.w	r3, [r2, #266]	@ 0x10a
 8003228:	f892 010a 	ldrb.w	r0, [r2, #266]	@ 0x10a
 800322c:	fab0 f080 	clz	r0, r0
 8003230:	0940      	lsrs	r0, r0, #5
 8003232:	b003      	add	sp, #12
 8003234:	e8bd 8ff0 	ldmia.w	sp!, {r4, r5, r6, r7, r8, r9, sl, fp, pc}
 8003238:	2b02      	cmp	r3, #2
 800323a:	d102      	bne.n	8003242 <FindRcvMsgToPacket+0x14e>
 800323c:	f882 6105 	strb.w	r6, [r2, #261]	@ 0x105
 8003240:	e7b1      	b.n	80031a6 <FindRcvMsgToPacket+0xb2>
 8003242:	2b03      	cmp	r3, #3
 8003244:	bf08      	it	eq
 8003246:	f882 6108 	strbeq.w	r6, [r2, #264]	@ 0x108
 800324a:	e7ac      	b.n	80031a6 <FindRcvMsgToPacket+0xb2>
 800324c:	461e      	mov	r6, r3
 800324e:	e774      	b.n	800313a <FindRcvMsgToPacket+0x46>
 8003250:	46f0      	mov	r8, lr
 8003252:	e772      	b.n	800313a <FindRcvMsgToPacket+0x46>
 8003254:	200002e4 	.word	0x200002e4
 8003258:	200001f4 	.word	0x200001f4

0800325c <RcvMsgErrAssambly>:
 800325c:	4b0e      	ldr	r3, [pc, #56]	@ (8003298 <RcvMsgErrAssambly+0x3c>)
 800325e:	22c0      	movs	r2, #192	@ 0xc0
 8003260:	f883 2080 	strb.w	r2, [r3, #128]	@ 0x80
 8003264:	f893 210a 	ldrb.w	r2, [r3, #266]	@ 0x10a
 8003268:	f883 0082 	strb.w	r0, [r3, #130]	@ 0x82
 800326c:	f040 00c0 	orr.w	r0, r0, #192	@ 0xc0
 8003270:	f883 2083 	strb.w	r2, [r3, #131]	@ 0x83
 8003274:	4302      	orrs	r2, r0
 8003276:	f883 2085 	strb.w	r2, [r3, #133]	@ 0x85
 800327a:	2207      	movs	r2, #7
 800327c:	f883 2102 	strb.w	r2, [r3, #258]	@ 0x102
 8003280:	22c2      	movs	r2, #194	@ 0xc2
 8003282:	2100      	movs	r1, #0
 8003284:	f883 2086 	strb.w	r2, [r3, #134]	@ 0x86
 8003288:	2201      	movs	r2, #1
 800328a:	f883 1081 	strb.w	r1, [r3, #129]	@ 0x81
 800328e:	f883 1084 	strb.w	r1, [r3, #132]	@ 0x84
 8003292:	f883 2100 	strb.w	r2, [r3, #256]	@ 0x100
 8003296:	4770      	bx	lr
 8003298:	200002e4 	.word	0x200002e4

0800329c <UART_MsgProc>:
 800329c:	b5f8      	push	{r3, r4, r5, r6, r7, lr}
 800329e:	4d10      	ldr	r5, [pc, #64]	@ (80032e0 <UART_MsgProc+0x44>)
 80032a0:	f895 7286 	ldrb.w	r7, [r5, #646]	@ 0x286
 80032a4:	2f01      	cmp	r7, #1
 80032a6:	d11a      	bne.n	80032de <UART_MsgProc+0x42>
 80032a8:	f895 1281 	ldrb.w	r1, [r5, #641]	@ 0x281
 80032ac:	4e0d      	ldr	r6, [pc, #52]	@ (80032e4 <UART_MsgProc+0x48>)
 80032ae:	f505 7000 	add.w	r0, r5, #512	@ 0x200
 80032b2:	f7ff ff1f 	bl	80030f4 <FindRcvMsgToPacket>
 80032b6:	4604      	mov	r4, r0
 80032b8:	b978      	cbnz	r0, 80032da <UART_MsgProc+0x3e>
 80032ba:	f896 0105 	ldrb.w	r0, [r6, #261]	@ 0x105
 80032be:	f7ff ffcd 	bl	800325c <RcvMsgErrAssambly>
 80032c2:	4621      	mov	r1, r4
 80032c4:	f505 7000 	add.w	r0, r5, #512	@ 0x200
 80032c8:	2280      	movs	r2, #128	@ 0x80
 80032ca:	f003 fc45 	bl	8006b58 <memset>
 80032ce:	f886 410a 	strb.w	r4, [r6, #266]	@ 0x10a
 80032d2:	e8bd 40f8 	ldmia.w	sp!, {r3, r4, r5, r6, r7, lr}
 80032d6:	f7ff be9b 	b.w	8003010 <UART_RxInit>
 80032da:	f886 7101 	strb.w	r7, [r6, #257]	@ 0x101
 80032de:	bdf8      	pop	{r3, r4, r5, r6, r7, pc}
 80032e0:	200003ef 	.word	0x200003ef
 80032e4:	200002e4 	.word	0x200002e4

080032e8 <UART_Init>:
 80032e8:	b510      	push	{r4, lr}
 80032ea:	4c0d      	ldr	r4, [pc, #52]	@ (8003320 <UART_Init+0x38>)
 80032ec:	f44f 7280 	mov.w	r2, #256	@ 0x100
 80032f0:	2100      	movs	r1, #0
 80032f2:	4620      	mov	r0, r4
 80032f4:	f003 fc30 	bl	8006b58 <memset>
 80032f8:	480a      	ldr	r0, [pc, #40]	@ (8003324 <UART_Init+0x3c>)
 80032fa:	f240 120b 	movw	r2, #267	@ 0x10b
 80032fe:	2100      	movs	r1, #0
 8003300:	f003 fc2a 	bl	8006b58 <memset>
 8003304:	2300      	movs	r3, #0
 8003306:	f884 3285 	strb.w	r3, [r4, #645]	@ 0x285
 800330a:	f884 3286 	strb.w	r3, [r4, #646]	@ 0x286
 800330e:	f884 3287 	strb.w	r3, [r4, #647]	@ 0x287
 8003312:	f884 3280 	strb.w	r3, [r4, #640]	@ 0x280
 8003316:	f884 3281 	strb.w	r3, [r4, #641]	@ 0x281
 800331a:	f884 3282 	strb.w	r3, [r4, #642]	@ 0x282
 800331e:	bd10      	pop	{r4, pc}
 8003320:	200003ef 	.word	0x200003ef
 8003324:	200002e4 	.word	0x200002e4

08003328 <UART_StuffAssambly>:
 8003328:	e92d 43f8 	stmdb	sp!, {r3, r4, r5, r6, r7, r8, r9, lr}
 800332c:	4c2c      	ldr	r4, [pc, #176]	@ (80033e0 <UART_StuffAssambly+0xb8>)
 800332e:	4d2d      	ldr	r5, [pc, #180]	@ (80033e4 <UART_StuffAssambly+0xbc>)
 8003330:	f44f 7280 	mov.w	r2, #256	@ 0x100
 8003334:	2100      	movs	r1, #0
 8003336:	4620      	mov	r0, r4
 8003338:	f003 fc0e 	bl	8006b58 <memset>
 800333c:	2301      	movs	r3, #1
 800333e:	22c0      	movs	r2, #192	@ 0xc0
 8003340:	f895 7102 	ldrb.w	r7, [r5, #258]	@ 0x102
 8003344:	f884 2100 	strb.w	r2, [r4, #256]	@ 0x100
 8003348:	f884 3282 	strb.w	r3, [r4, #642]	@ 0x282
 800334c:	3580      	adds	r5, #128	@ 0x80
 800334e:	4618      	mov	r0, r3
 8003350:	2200      	movs	r2, #0
 8003352:	26db      	movs	r6, #219	@ 0xdb
 8003354:	f04f 0cde 	mov.w	ip, #222	@ 0xde
 8003358:	f04f 0edd 	mov.w	lr, #221	@ 0xdd
 800335c:	f04f 08dc 	mov.w	r8, #220	@ 0xdc
 8003360:	b2c1      	uxtb	r1, r0
 8003362:	42b9      	cmp	r1, r7
 8003364:	d30d      	bcc.n	8003382 <UART_StuffAssambly+0x5a>
 8003366:	b10a      	cbz	r2, 800336c <UART_StuffAssambly+0x44>
 8003368:	f884 3282 	strb.w	r3, [r4, #642]	@ 0x282
 800336c:	f894 3282 	ldrb.w	r3, [r4, #642]	@ 0x282
 8003370:	1c5a      	adds	r2, r3, #1
 8003372:	f884 2282 	strb.w	r2, [r4, #642]	@ 0x282
 8003376:	441c      	add	r4, r3
 8003378:	23c2      	movs	r3, #194	@ 0xc2
 800337a:	f884 3100 	strb.w	r3, [r4, #256]	@ 0x100
 800337e:	e8bd 83f8 	ldmia.w	sp!, {r3, r4, r5, r6, r7, r8, r9, pc}
 8003382:	f815 2f01 	ldrb.w	r2, [r5, #1]!
 8003386:	f103 0901 	add.w	r9, r3, #1
 800338a:	2ac0      	cmp	r2, #192	@ 0xc0
 800338c:	fa5f f989 	uxtb.w	r9, r9
 8003390:	d10c      	bne.n	80033ac <UART_StuffAssambly+0x84>
 8003392:	18e2      	adds	r2, r4, r3
 8003394:	44a1      	add	r9, r4
 8003396:	f882 6100 	strb.w	r6, [r2, #256]	@ 0x100
 800339a:	3302      	adds	r3, #2
 800339c:	f889 8100 	strb.w	r8, [r9, #256]	@ 0x100
 80033a0:	fa5f f983 	uxtb.w	r9, r3
 80033a4:	3001      	adds	r0, #1
 80033a6:	464b      	mov	r3, r9
 80033a8:	2201      	movs	r2, #1
 80033aa:	e7d9      	b.n	8003360 <UART_StuffAssambly+0x38>
 80033ac:	2adb      	cmp	r2, #219	@ 0xdb
 80033ae:	d107      	bne.n	80033c0 <UART_StuffAssambly+0x98>
 80033b0:	18e1      	adds	r1, r4, r3
 80033b2:	44a1      	add	r9, r4
 80033b4:	f881 2100 	strb.w	r2, [r1, #256]	@ 0x100
 80033b8:	3302      	adds	r3, #2
 80033ba:	f889 e100 	strb.w	lr, [r9, #256]	@ 0x100
 80033be:	e7ef      	b.n	80033a0 <UART_StuffAssambly+0x78>
 80033c0:	2ac2      	cmp	r2, #194	@ 0xc2
 80033c2:	bf05      	ittet	eq
 80033c4:	44a1      	addeq	r9, r4
 80033c6:	18e2      	addeq	r2, r4, r3
 80033c8:	18e1      	addne	r1, r4, r3
 80033ca:	1c99      	addeq	r1, r3, #2
 80033cc:	bf09      	itett	eq
 80033ce:	f882 6100 	strbeq.w	r6, [r2, #256]	@ 0x100
 80033d2:	f881 2100 	strbne.w	r2, [r1, #256]	@ 0x100
 80033d6:	f889 c100 	strbeq.w	ip, [r9, #256]	@ 0x100
 80033da:	fa5f f981 	uxtbeq.w	r9, r1
 80033de:	e7e1      	b.n	80033a4 <UART_StuffAssambly+0x7c>
 80033e0:	200003ef 	.word	0x200003ef
 80033e4:	200002e4 	.word	0x200002e4

080033e8 <UART_Chksum>:
 80033e8:	4401      	add	r1, r0
 80033ea:	2300      	movs	r3, #0
 80033ec:	4288      	cmp	r0, r1
 80033ee:	d103      	bne.n	80033f8 <UART_Chksum+0x10>
 80033f0:	f1a3 003e 	sub.w	r0, r3, #62	@ 0x3e
 80033f4:	b2c0      	uxtb	r0, r0
 80033f6:	4770      	bx	lr
 80033f8:	f810 2b01 	ldrb.w	r2, [r0], #1
 80033fc:	4413      	add	r3, r2
 80033fe:	b2db      	uxtb	r3, r3
 8003400:	e7f4      	b.n	80033ec <UART_Chksum+0x4>
	...

08003404 <HAL_GPIO_EXTI_Callback>:
 8003404:	f5b0 7f80 	cmp.w	r0, #256	@ 0x100
 8003408:	bf01      	itttt	eq
 800340a:	4a02      	ldreq	r2, [pc, #8]	@ (8003414 <HAL_GPIO_EXTI_Callback+0x10>)
 800340c:	6913      	ldreq	r3, [r2, #16]
 800340e:	3301      	addeq	r3, #1
 8003410:	6113      	streq	r3, [r2, #16]
 8003412:	4770      	bx	lr
 8003414:	200000b4 	.word	0x200000b4

08003418 <HAL_UARTEx_RxEventCallback>:
 8003418:	b538      	push	{r3, r4, r5, lr}
 800341a:	6802      	ldr	r2, [r0, #0]
 800341c:	4b12      	ldr	r3, [pc, #72]	@ (8003468 <HAL_UARTEx_RxEventCallback+0x50>)
 800341e:	429a      	cmp	r2, r3
 8003420:	460d      	mov	r5, r1
 8003422:	d11f      	bne.n	8003464 <HAL_UARTEx_RxEventCallback+0x4c>
 8003424:	4c11      	ldr	r4, [pc, #68]	@ (800346c <HAL_UARTEx_RxEventCallback+0x54>)
 8003426:	460a      	mov	r2, r1
 8003428:	f504 7000 	add.w	r0, r4, #512	@ 0x200
 800342c:	4621      	mov	r1, r4
 800342e:	f003 fbbf 	bl	8006bb0 <memcpy>
 8003432:	2301      	movs	r3, #1
 8003434:	f44f 7280 	mov.w	r2, #256	@ 0x100
 8003438:	2100      	movs	r1, #0
 800343a:	4620      	mov	r0, r4
 800343c:	f884 3286 	strb.w	r3, [r4, #646]	@ 0x286
 8003440:	f884 5281 	strb.w	r5, [r4, #641]	@ 0x281
 8003444:	f003 fb88 	bl	8006b58 <memset>
 8003448:	4809      	ldr	r0, [pc, #36]	@ (8003470 <HAL_UARTEx_RxEventCallback+0x58>)
 800344a:	f002 fe7e 	bl	800614a <HAL_UART_DMAStop>
 800344e:	2280      	movs	r2, #128	@ 0x80
 8003450:	4807      	ldr	r0, [pc, #28]	@ (8003470 <HAL_UARTEx_RxEventCallback+0x58>)
 8003452:	4621      	mov	r1, r4
 8003454:	f003 fb5b 	bl	8006b0e <HAL_UARTEx_ReceiveToIdle_DMA>
 8003458:	4b06      	ldr	r3, [pc, #24]	@ (8003474 <HAL_UARTEx_RxEventCallback+0x5c>)
 800345a:	681a      	ldr	r2, [r3, #0]
 800345c:	6813      	ldr	r3, [r2, #0]
 800345e:	f023 0304 	bic.w	r3, r3, #4
 8003462:	6013      	str	r3, [r2, #0]
 8003464:	bd38      	pop	{r3, r4, r5, pc}
 8003466:	bf00      	nop
 8003468:	40013800 	.word	0x40013800
 800346c:	200003ef 	.word	0x200003ef
 8003470:	200006c0 	.word	0x200006c0
 8003474:	20000678 	.word	0x20000678

08003478 <HAL_ADC_ConvCpltCallback>:
 8003478:	b510      	push	{r4, lr}
 800347a:	480b      	ldr	r0, [pc, #44]	@ (80034a8 <HAL_ADC_ConvCpltCallback+0x30>)
 800347c:	79c3      	ldrb	r3, [r0, #7]
 800347e:	2b01      	cmp	r3, #1
 8003480:	4b0a      	ldr	r3, [pc, #40]	@ (80034ac <HAL_ADC_ConvCpltCallback+0x34>)
 8003482:	d10e      	bne.n	80034a2 <HAL_ADC_ConvCpltCallback+0x2a>
 8003484:	4a0a      	ldr	r2, [pc, #40]	@ (80034b0 <HAL_ADC_ConvCpltCallback+0x38>)
 8003486:	8819      	ldrh	r1, [r3, #0]
 8003488:	80d1      	strh	r1, [r2, #6]
 800348a:	4a0a      	ldr	r2, [pc, #40]	@ (80034b4 <HAL_ADC_ConvCpltCallback+0x3c>)
 800348c:	8859      	ldrh	r1, [r3, #2]
 800348e:	80d1      	strh	r1, [r2, #6]
 8003490:	4909      	ldr	r1, [pc, #36]	@ (80034b8 <HAL_ADC_ConvCpltCallback+0x40>)
 8003492:	889c      	ldrh	r4, [r3, #4]
 8003494:	80cc      	strh	r4, [r1, #6]
 8003496:	4909      	ldr	r1, [pc, #36]	@ (80034bc <HAL_ADC_ConvCpltCallback+0x44>)
 8003498:	88dc      	ldrh	r4, [r3, #6]
 800349a:	80cc      	strh	r4, [r1, #6]
 800349c:	6891      	ldr	r1, [r2, #8]
 800349e:	3101      	adds	r1, #1
 80034a0:	6091      	str	r1, [r2, #8]
 80034a2:	891b      	ldrh	r3, [r3, #8]
 80034a4:	8303      	strh	r3, [r0, #24]
 80034a6:	bd10      	pop	{r4, pc}
 80034a8:	200001f4 	.word	0x200001f4
 80034ac:	20000894 	.word	0x20000894
 80034b0:	20000074 	.word	0x20000074
 80034b4:	200000a4 	.word	0x200000a4
 80034b8:	20000094 	.word	0x20000094
 80034bc:	20000084 	.word	0x20000084

080034c0 <UART_Transmit_Proc>:
 80034c0:	b508      	push	{r3, lr}
 80034c2:	4b09      	ldr	r3, [pc, #36]	@ (80034e8 <UART_Transmit_Proc+0x28>)
 80034c4:	f893 3100 	ldrb.w	r3, [r3, #256]	@ 0x100
 80034c8:	2b01      	cmp	r3, #1
 80034ca:	d10b      	bne.n	80034e4 <UART_Transmit_Proc+0x24>
 80034cc:	4907      	ldr	r1, [pc, #28]	@ (80034ec <UART_Transmit_Proc+0x2c>)
 80034ce:	2364      	movs	r3, #100	@ 0x64
 80034d0:	f891 2282 	ldrb.w	r2, [r1, #642]	@ 0x282
 80034d4:	f501 7180 	add.w	r1, r1, #256	@ 0x100
 80034d8:	f003 f9f2 	bl	80068c0 <HAL_UART_Transmit>
 80034dc:	e8bd 4008 	ldmia.w	sp!, {r3, lr}
 80034e0:	f7ff bda6 	b.w	8003030 <UART_TxInit>
 80034e4:	bd08      	pop	{r3, pc}
 80034e6:	bf00      	nop
 80034e8:	200002e4 	.word	0x200002e4
 80034ec:	200003ef 	.word	0x200003ef

080034f0 <HAL_TIM_PeriodElapsedCallback>:
 80034f0:	6803      	ldr	r3, [r0, #0]
 80034f2:	f1b3 4f80 	cmp.w	r3, #1073741824	@ 0x40000000
 80034f6:	bf02      	ittt	eq
 80034f8:	4b01      	ldreq	r3, [pc, #4]	@ (8003500 <HAL_TIM_PeriodElapsedCallback+0x10>)
 80034fa:	2201      	moveq	r2, #1
 80034fc:	701a      	strbeq	r2, [r3, #0]
 80034fe:	4770      	bx	lr
 8003500:	200001cc 	.word	0x200001cc

08003504 <SystemClock_Config>:
 8003504:	b530      	push	{r4, r5, lr}
 8003506:	b097      	sub	sp, #92	@ 0x5c
 8003508:	2244      	movs	r2, #68	@ 0x44
 800350a:	2100      	movs	r1, #0
 800350c:	a805      	add	r0, sp, #20
 800350e:	f003 fb23 	bl	8006b58 <memset>
 8003512:	2214      	movs	r2, #20
 8003514:	2100      	movs	r1, #0
 8003516:	4668      	mov	r0, sp
 8003518:	f003 fb1e 	bl	8006b58 <memset>
 800351c:	f44f 7000 	mov.w	r0, #512	@ 0x200
 8003520:	f001 fe80 	bl	8005224 <HAL_PWREx_ControlVoltageScaling>
 8003524:	b108      	cbz	r0, 800352a <SystemClock_Config+0x26>
 8003526:	b672      	cpsid	i
 8003528:	e7fe      	b.n	8003528 <SystemClock_Config+0x24>
 800352a:	2201      	movs	r2, #1
 800352c:	f44f 23a0 	mov.w	r3, #327680	@ 0x50000
 8003530:	e9cd 2305 	strd	r2, r3, [sp, #20]
 8003534:	2503      	movs	r5, #3
 8003536:	2302      	movs	r3, #2
 8003538:	9212      	str	r2, [sp, #72]	@ 0x48
 800353a:	2404      	movs	r4, #4
 800353c:	2228      	movs	r2, #40	@ 0x28
 800353e:	a805      	add	r0, sp, #20
 8003540:	e9cd 3510 	strd	r3, r5, [sp, #64]	@ 0x40
 8003544:	e9cd 2313 	strd	r2, r3, [sp, #76]	@ 0x4c
 8003548:	9415      	str	r4, [sp, #84]	@ 0x54
 800354a:	f001 ff2d 	bl	80053a8 <HAL_RCC_OscConfig>
 800354e:	b108      	cbz	r0, 8003554 <SystemClock_Config+0x50>
 8003550:	b672      	cpsid	i
 8003552:	e7fe      	b.n	8003552 <SystemClock_Config+0x4e>
 8003554:	e9cd 0002 	strd	r0, r0, [sp, #8]
 8003558:	230f      	movs	r3, #15
 800355a:	9004      	str	r0, [sp, #16]
 800355c:	4621      	mov	r1, r4
 800355e:	4668      	mov	r0, sp
 8003560:	e9cd 3500 	strd	r3, r5, [sp]
 8003564:	f002 f9f4 	bl	8005950 <HAL_RCC_ClockConfig>
 8003568:	b108      	cbz	r0, 800356e <SystemClock_Config+0x6a>
 800356a:	b672      	cpsid	i
 800356c:	e7fe      	b.n	800356c <SystemClock_Config+0x68>
 800356e:	b017      	add	sp, #92	@ 0x5c
 8003570:	bd30      	pop	{r4, r5, pc}
	...

08003574 <main>:
 8003574:	e92d 4880 	stmdb	sp!, {r7, fp, lr}
 8003578:	b08f      	sub	sp, #60	@ 0x3c
 800357a:	4dac      	ldr	r5, [pc, #688]	@ (800382c <main+0x2b8>)
 800357c:	f000 fb54 	bl	8003c28 <HAL_Init>
 8003580:	2220      	movs	r2, #32
 8003582:	2100      	movs	r1, #0
 8003584:	48aa      	ldr	r0, [pc, #680]	@ (8003830 <main+0x2bc>)
 8003586:	f003 fae7 	bl	8006b58 <memset>
 800358a:	f7ff ffbb 	bl	8003504 <SystemClock_Config>
 800358e:	f7fe fa3f 	bl	8001a10 <PROC_Init>
 8003592:	f7fd fd73 	bl	800107c <EXT_Init>
 8003596:	f7fd fe9f 	bl	80012d8 <FAN_Init>
 800359a:	f7ff fea5 	bl	80032e8 <UART_Init>
 800359e:	2214      	movs	r2, #20
 80035a0:	2100      	movs	r1, #0
 80035a2:	a808      	add	r0, sp, #32
 80035a4:	f003 fad8 	bl	8006b58 <memset>
 80035a8:	6ceb      	ldr	r3, [r5, #76]	@ 0x4c
 80035aa:	48a2      	ldr	r0, [pc, #648]	@ (8003834 <main+0x2c0>)
 80035ac:	f043 0304 	orr.w	r3, r3, #4
 80035b0:	64eb      	str	r3, [r5, #76]	@ 0x4c
 80035b2:	6ceb      	ldr	r3, [r5, #76]	@ 0x4c
 80035b4:	f003 0304 	and.w	r3, r3, #4
 80035b8:	9302      	str	r3, [sp, #8]
 80035ba:	9b02      	ldr	r3, [sp, #8]
 80035bc:	6ceb      	ldr	r3, [r5, #76]	@ 0x4c
 80035be:	f043 0301 	orr.w	r3, r3, #1
 80035c2:	64eb      	str	r3, [r5, #76]	@ 0x4c
 80035c4:	6ceb      	ldr	r3, [r5, #76]	@ 0x4c
 80035c6:	f003 0301 	and.w	r3, r3, #1
 80035ca:	9303      	str	r3, [sp, #12]
 80035cc:	9b03      	ldr	r3, [sp, #12]
 80035ce:	6ceb      	ldr	r3, [r5, #76]	@ 0x4c
 80035d0:	f043 0302 	orr.w	r3, r3, #2
 80035d4:	64eb      	str	r3, [r5, #76]	@ 0x4c
 80035d6:	6ceb      	ldr	r3, [r5, #76]	@ 0x4c
 80035d8:	f003 0302 	and.w	r3, r3, #2
 80035dc:	9304      	str	r3, [sp, #16]
 80035de:	2200      	movs	r2, #0
 80035e0:	f44f 4140 	mov.w	r1, #49152	@ 0xc000
 80035e4:	9b04      	ldr	r3, [sp, #16]
 80035e6:	f001 f9f7 	bl	80049d8 <HAL_GPIO_WritePin>
 80035ea:	2200      	movs	r2, #0
 80035ec:	4892      	ldr	r0, [pc, #584]	@ (8003838 <main+0x2c4>)
 80035ee:	2132      	movs	r1, #50	@ 0x32
 80035f0:	2400      	movs	r4, #0
 80035f2:	f001 f9f1 	bl	80049d8 <HAL_GPIO_WritePin>
 80035f6:	2601      	movs	r6, #1
 80035f8:	f44f 4340 	mov.w	r3, #49152	@ 0xc000
 80035fc:	488d      	ldr	r0, [pc, #564]	@ (8003834 <main+0x2c0>)
 80035fe:	f04f 0802 	mov.w	r8, #2
 8003602:	a908      	add	r1, sp, #32
 8003604:	e9cd 3608 	strd	r3, r6, [sp, #32]
 8003608:	e9cd 840a 	strd	r8, r4, [sp, #40]	@ 0x28
 800360c:	f001 f926 	bl	800485c <HAL_GPIO_Init>
 8003610:	2332      	movs	r3, #50	@ 0x32
 8003612:	4889      	ldr	r0, [pc, #548]	@ (8003838 <main+0x2c4>)
 8003614:	a908      	add	r1, sp, #32
 8003616:	e9cd 3608 	strd	r3, r6, [sp, #32]
 800361a:	e9cd 840a 	strd	r8, r4, [sp, #40]	@ 0x28
 800361e:	f44f 7780 	mov.w	r7, #256	@ 0x100
 8003622:	f001 f91b 	bl	800485c <HAL_GPIO_Init>
 8003626:	f44f 1388 	mov.w	r3, #1114112	@ 0x110000
 800362a:	a908      	add	r1, sp, #32
 800362c:	f04f 4090 	mov.w	r0, #1207959552	@ 0x48000000
 8003630:	e9cd 7308 	strd	r7, r3, [sp, #32]
 8003634:	960a      	str	r6, [sp, #40]	@ 0x28
 8003636:	f001 f911 	bl	800485c <HAL_GPIO_Init>
 800363a:	4622      	mov	r2, r4
 800363c:	4621      	mov	r1, r4
 800363e:	2017      	movs	r0, #23
 8003640:	f000 ff70 	bl	8004524 <HAL_NVIC_SetPriority>
 8003644:	2017      	movs	r0, #23
 8003646:	f000 ff9f 	bl	8004588 <HAL_NVIC_EnableIRQ>
 800364a:	6cab      	ldr	r3, [r5, #72]	@ 0x48
 800364c:	4333      	orrs	r3, r6
 800364e:	64ab      	str	r3, [r5, #72]	@ 0x48
 8003650:	6cab      	ldr	r3, [r5, #72]	@ 0x48
 8003652:	4d7a      	ldr	r5, [pc, #488]	@ (800383c <main+0x2c8>)
 8003654:	4033      	ands	r3, r6
 8003656:	4622      	mov	r2, r4
 8003658:	4621      	mov	r1, r4
 800365a:	9301      	str	r3, [sp, #4]
 800365c:	200b      	movs	r0, #11
 800365e:	9b01      	ldr	r3, [sp, #4]
 8003660:	f000 ff60 	bl	8004524 <HAL_NVIC_SetPriority>
 8003664:	200b      	movs	r0, #11
 8003666:	f000 ff8f 	bl	8004588 <HAL_NVIC_EnableIRQ>
 800366a:	4621      	mov	r1, r4
 800366c:	4622      	mov	r2, r4
 800366e:	200f      	movs	r0, #15
 8003670:	f000 ff58 	bl	8004524 <HAL_NVIC_SetPriority>
 8003674:	200f      	movs	r0, #15
 8003676:	f000 ff87 	bl	8004588 <HAL_NVIC_EnableIRQ>
 800367a:	f8df e1ec 	ldr.w	lr, [pc, #492]	@ 8003868 <main+0x2f4>
 800367e:	4b70      	ldr	r3, [pc, #448]	@ (8003840 <main+0x2cc>)
 8003680:	622c      	str	r4, [r5, #32]
 8003682:	4628      	mov	r0, r5
 8003684:	e9c5 e300 	strd	lr, r3, [r5]
 8003688:	e9c5 4602 	strd	r4, r6, [r5, #8]
 800368c:	e9c5 4404 	strd	r4, r4, [r5, #16]
 8003690:	e9c5 4406 	strd	r4, r4, [r5, #24]
 8003694:	f001 fae5 	bl	8004c62 <HAL_I2C_Init>
 8003698:	4601      	mov	r1, r0
 800369a:	b108      	cbz	r0, 80036a0 <main+0x12c>
 800369c:	b672      	cpsid	i
 800369e:	e7fe      	b.n	800369e <main+0x12a>
 80036a0:	4628      	mov	r0, r5
 80036a2:	f001 fd6c 	bl	800517e <HAL_I2CEx_ConfigAnalogFilter>
 80036a6:	4601      	mov	r1, r0
 80036a8:	b108      	cbz	r0, 80036ae <main+0x13a>
 80036aa:	b672      	cpsid	i
 80036ac:	e7fe      	b.n	80036ac <main+0x138>
 80036ae:	4628      	mov	r0, r5
 80036b0:	f001 fd8b 	bl	80051ca <HAL_I2CEx_ConfigDigitalFilter>
 80036b4:	4605      	mov	r5, r0
 80036b6:	b108      	cbz	r0, 80036bc <main+0x148>
 80036b8:	b672      	cpsid	i
 80036ba:	e7fe      	b.n	80036ba <main+0x146>
 80036bc:	f04f 0918 	mov.w	r9, #24
 80036c0:	4c60      	ldr	r4, [pc, #384]	@ (8003844 <main+0x2d0>)
 80036c2:	9007      	str	r0, [sp, #28]
 80036c4:	e9cd 0005 	strd	r0, r0, [sp, #20]
 80036c8:	4601      	mov	r1, r0
 80036ca:	464a      	mov	r2, r9
 80036cc:	a808      	add	r0, sp, #32
 80036ce:	f003 fa43 	bl	8006b58 <memset>
 80036d2:	f8df c198 	ldr.w	ip, [pc, #408]	@ 800386c <main+0x2f8>
 80036d6:	6126      	str	r6, [r4, #16]
 80036d8:	f44f 13a0 	mov.w	r3, #1310720	@ 0x140000
 80036dc:	f04f 0b04 	mov.w	fp, #4
 80036e0:	f04f 0a05 	mov.w	sl, #5
 80036e4:	4620      	mov	r0, r4
 80036e6:	e9c4 c300 	strd	ip, r3, [r4]
 80036ea:	e9c4 5502 	strd	r5, r5, [r4, #8]
 80036ee:	e9c4 550a 	strd	r5, r5, [r4, #40]	@ 0x28
 80036f2:	f8c4 b014 	str.w	fp, [r4, #20]
 80036f6:	8327      	strh	r7, [r4, #24]
 80036f8:	f8c4 a01c 	str.w	sl, [r4, #28]
 80036fc:	f884 5020 	strb.w	r5, [r4, #32]
 8003700:	f884 6030 	strb.w	r6, [r4, #48]	@ 0x30
 8003704:	6365      	str	r5, [r4, #52]	@ 0x34
 8003706:	f884 5038 	strb.w	r5, [r4, #56]	@ 0x38
 800370a:	f000 fac7 	bl	8003c9c <HAL_ADC_Init>
 800370e:	b108      	cbz	r0, 8003714 <main+0x1a0>
 8003710:	b672      	cpsid	i
 8003712:	e7fe      	b.n	8003712 <main+0x19e>
 8003714:	9005      	str	r0, [sp, #20]
 8003716:	a905      	add	r1, sp, #20
 8003718:	4620      	mov	r0, r4
 800371a:	f000 fe87 	bl	800442c <HAL_ADCEx_MultiModeConfigChannel>
 800371e:	b108      	cbz	r0, 8003724 <main+0x1b0>
 8003720:	b672      	cpsid	i
 8003722:	e7fe      	b.n	8003722 <main+0x1ae>
 8003724:	4e48      	ldr	r6, [pc, #288]	@ (8003848 <main+0x2d4>)
 8003726:	900d      	str	r0, [sp, #52]	@ 0x34
 8003728:	2306      	movs	r3, #6
 800372a:	e9cd 6308 	strd	r6, r3, [sp, #32]
 800372e:	a908      	add	r1, sp, #32
 8003730:	237f      	movs	r3, #127	@ 0x7f
 8003732:	4620      	mov	r0, r4
 8003734:	e9cd 3b0b 	strd	r3, fp, [sp, #44]	@ 0x2c
 8003738:	f8cd 8028 	str.w	r8, [sp, #40]	@ 0x28
 800373c:	f000 fca6 	bl	800408c <HAL_ADC_ConfigChannel>
 8003740:	b108      	cbz	r0, 8003746 <main+0x1d2>
 8003742:	b672      	cpsid	i
 8003744:	e7fe      	b.n	8003744 <main+0x1d0>
 8003746:	4d41      	ldr	r5, [pc, #260]	@ (800384c <main+0x2d8>)
 8003748:	230c      	movs	r3, #12
 800374a:	a908      	add	r1, sp, #32
 800374c:	4620      	mov	r0, r4
 800374e:	e9cd 5308 	strd	r5, r3, [sp, #32]
 8003752:	f000 fc9b 	bl	800408c <HAL_ADC_ConfigChannel>
 8003756:	b108      	cbz	r0, 800375c <main+0x1e8>
 8003758:	b672      	cpsid	i
 800375a:	e7fe      	b.n	800375a <main+0x1e6>
 800375c:	483c      	ldr	r0, [pc, #240]	@ (8003850 <main+0x2dc>)
 800375e:	f8cd a028 	str.w	sl, [sp, #40]	@ 0x28
 8003762:	2312      	movs	r3, #18
 8003764:	e9cd 0308 	strd	r0, r3, [sp, #32]
 8003768:	a908      	add	r1, sp, #32
 800376a:	4620      	mov	r0, r4
 800376c:	f000 fc8e 	bl	800408c <HAL_ADC_ConfigChannel>
 8003770:	b108      	cbz	r0, 8003776 <main+0x202>
 8003772:	b672      	cpsid	i
 8003774:	e7fe      	b.n	8003774 <main+0x200>
 8003776:	4b37      	ldr	r3, [pc, #220]	@ (8003854 <main+0x2e0>)
 8003778:	a908      	add	r1, sp, #32
 800377a:	4620      	mov	r0, r4
 800377c:	e9cd 3908 	strd	r3, r9, [sp, #32]
 8003780:	f000 fc84 	bl	800408c <HAL_ADC_ConfigChannel>
 8003784:	b108      	cbz	r0, 800378a <main+0x216>
 8003786:	b672      	cpsid	i
 8003788:	e7fe      	b.n	8003788 <main+0x214>
 800378a:	4b33      	ldr	r3, [pc, #204]	@ (8003858 <main+0x2e4>)
 800378c:	a908      	add	r1, sp, #32
 800378e:	e9cd 3708 	strd	r3, r7, [sp, #32]
 8003792:	4620      	mov	r0, r4
 8003794:	2307      	movs	r3, #7
 8003796:	930a      	str	r3, [sp, #40]	@ 0x28
 8003798:	f000 fc78 	bl	800408c <HAL_ADC_ConfigChannel>
 800379c:	b108      	cbz	r0, 80037a2 <main+0x22e>
 800379e:	b672      	cpsid	i
 80037a0:	e7fe      	b.n	80037a0 <main+0x22c>
 80037a2:	4c2e      	ldr	r4, [pc, #184]	@ (800385c <main+0x2e8>)
 80037a4:	492e      	ldr	r1, [pc, #184]	@ (8003860 <main+0x2ec>)
 80037a6:	f44f 33e1 	mov.w	r3, #115200	@ 0x1c200
 80037aa:	e9c4 1300 	strd	r1, r3, [r4]
 80037ae:	220c      	movs	r2, #12
 80037b0:	2300      	movs	r3, #0
 80037b2:	4620      	mov	r0, r4
 80037b4:	e9c4 3302 	strd	r3, r3, [r4, #8]
 80037b8:	e9c4 2305 	strd	r2, r3, [r4, #20]
 80037bc:	e9c4 3307 	strd	r3, r3, [r4, #28]
 80037c0:	6123      	str	r3, [r4, #16]
 80037c2:	6263      	str	r3, [r4, #36]	@ 0x24
 80037c4:	f003 f926 	bl	8006a14 <HAL_UART_Init>
 80037c8:	4606      	mov	r6, r0
 80037ca:	b108      	cbz	r0, 80037d0 <main+0x25c>
 80037cc:	b672      	cpsid	i
 80037ce:	e7fe      	b.n	80037ce <main+0x25a>
 80037d0:	4d24      	ldr	r5, [pc, #144]	@ (8003864 <main+0x2f0>)
 80037d2:	2210      	movs	r2, #16
 80037d4:	4601      	mov	r1, r0
 80037d6:	a808      	add	r0, sp, #32
 80037d8:	f003 f9be 	bl	8006b58 <memset>
 80037dc:	f641 733f 	movw	r3, #7999	@ 0x1f3f
 80037e0:	f04f 4280 	mov.w	r2, #1073741824	@ 0x40000000
 80037e4:	e9c5 2300 	strd	r2, r3, [r5]
 80037e8:	4628      	mov	r0, r5
 80037ea:	2363      	movs	r3, #99	@ 0x63
 80037ec:	e9cd 6605 	strd	r6, r6, [sp, #20]
 80037f0:	e9c5 3603 	strd	r3, r6, [r5, #12]
 80037f4:	9607      	str	r6, [sp, #28]
 80037f6:	60ae      	str	r6, [r5, #8]
 80037f8:	61ae      	str	r6, [r5, #24]
 80037fa:	f002 fb75 	bl	8005ee8 <HAL_TIM_Base_Init>
 80037fe:	b108      	cbz	r0, 8003804 <main+0x290>
 8003800:	b672      	cpsid	i
 8003802:	e7fe      	b.n	8003802 <main+0x28e>
 8003804:	f44f 5380 	mov.w	r3, #4096	@ 0x1000
 8003808:	a908      	add	r1, sp, #32
 800380a:	4628      	mov	r0, r5
 800380c:	9308      	str	r3, [sp, #32]
 800380e:	f002 fba5 	bl	8005f5c <HAL_TIM_ConfigClockSource>
 8003812:	b108      	cbz	r0, 8003818 <main+0x2a4>
 8003814:	b672      	cpsid	i
 8003816:	e7fe      	b.n	8003816 <main+0x2a2>
 8003818:	9005      	str	r0, [sp, #20]
 800381a:	9007      	str	r0, [sp, #28]
 800381c:	a905      	add	r1, sp, #20
 800381e:	4628      	mov	r0, r5
 8003820:	f002 fc36 	bl	8006090 <HAL_TIMEx_MasterConfigSynchronization>
 8003824:	b320      	cbz	r0, 8003870 <main+0x2fc>
 8003826:	b672      	cpsid	i
 8003828:	e7fe      	b.n	8003828 <main+0x2b4>
 800382a:	bf00      	nop
 800382c:	40021000 	.word	0x40021000
 8003830:	20000894 	.word	0x20000894
 8003834:	48000800 	.word	0x48000800
 8003838:	48000400 	.word	0x48000400
 800383c:	20000794 	.word	0x20000794
 8003840:	10d19ce4 	.word	0x10d19ce4
 8003844:	20000830 	.word	0x20000830
 8003848:	19200040 	.word	0x19200040
 800384c:	1d500080 	.word	0x1d500080
 8003850:	21800100 	.word	0x21800100
 8003854:	25b00200 	.word	0x25b00200
 8003858:	c7520000 	.word	0xc7520000
 800385c:	200006c0 	.word	0x200006c0
 8003860:	40013800 	.word	0x40013800
 8003864:	20000748 	.word	0x20000748
 8003868:	40005400 	.word	0x40005400
 800386c:	50040000 	.word	0x50040000
 8003870:	480c      	ldr	r0, [pc, #48]	@ (80038a4 <main+0x330>)
 8003872:	f7fe f809 	bl	8001888 <PARAM_Init>
 8003876:	f7fe f81b 	bl	80018b0 <PARAM_Process>
 800387a:	2280      	movs	r2, #128	@ 0x80
 800387c:	490a      	ldr	r1, [pc, #40]	@ (80038a8 <main+0x334>)
 800387e:	4620      	mov	r0, r4
 8003880:	f003 f945 	bl	8006b0e <HAL_UARTEx_ReceiveToIdle_DMA>
 8003884:	4b09      	ldr	r3, [pc, #36]	@ (80038ac <main+0x338>)
 8003886:	681a      	ldr	r2, [r3, #0]
 8003888:	6813      	ldr	r3, [r2, #0]
 800388a:	f023 0304 	bic.w	r3, r3, #4
 800388e:	6013      	str	r3, [r2, #0]
 8003890:	4628      	mov	r0, r5
 8003892:	f002 fa1f 	bl	8005cd4 <HAL_TIM_Base_Start_IT>
 8003896:	f7ff fb79 	bl	8002f8c <SYSTEM_Process>
 800389a:	4620      	mov	r0, r4
 800389c:	f7ff fe10 	bl	80034c0 <UART_Transmit_Proc>
 80038a0:	e7f9      	b.n	8003896 <main+0x322>
 80038a2:	bf00      	nop
 80038a4:	20000794 	.word	0x20000794
 80038a8:	200003ef 	.word	0x200003ef
 80038ac:	20000678 	.word	0x20000678

080038b0 <Error_Handler>:
 80038b0:	b672      	cpsid	i
 80038b2:	e7fe      	b.n	80038b2 <Error_Handler+0x2>

080038b4 <HAL_MspInit>:
 80038b4:	4b0a      	ldr	r3, [pc, #40]	@ (80038e0 <HAL_MspInit+0x2c>)
 80038b6:	6e1a      	ldr	r2, [r3, #96]	@ 0x60
 80038b8:	f042 0201 	orr.w	r2, r2, #1
 80038bc:	b082      	sub	sp, #8
 80038be:	661a      	str	r2, [r3, #96]	@ 0x60
 80038c0:	6e1a      	ldr	r2, [r3, #96]	@ 0x60
 80038c2:	f002 0201 	and.w	r2, r2, #1
 80038c6:	9200      	str	r2, [sp, #0]
 80038c8:	9a00      	ldr	r2, [sp, #0]
 80038ca:	6d9a      	ldr	r2, [r3, #88]	@ 0x58
 80038cc:	f042 5280 	orr.w	r2, r2, #268435456	@ 0x10000000
 80038d0:	659a      	str	r2, [r3, #88]	@ 0x58
 80038d2:	6d9b      	ldr	r3, [r3, #88]	@ 0x58
 80038d4:	f003 5380 	and.w	r3, r3, #268435456	@ 0x10000000
 80038d8:	9301      	str	r3, [sp, #4]
 80038da:	9b01      	ldr	r3, [sp, #4]
 80038dc:	b002      	add	sp, #8
 80038de:	4770      	bx	lr
 80038e0:	40021000 	.word	0x40021000

080038e4 <HAL_ADC_MspInit>:
 80038e4:	b530      	push	{r4, r5, lr}
 80038e6:	4605      	mov	r5, r0
 80038e8:	b089      	sub	sp, #36	@ 0x24
 80038ea:	2214      	movs	r2, #20
 80038ec:	2100      	movs	r1, #0
 80038ee:	a803      	add	r0, sp, #12
 80038f0:	f003 f932 	bl	8006b58 <memset>
 80038f4:	682a      	ldr	r2, [r5, #0]
 80038f6:	4b24      	ldr	r3, [pc, #144]	@ (8003988 <HAL_ADC_MspInit+0xa4>)
 80038f8:	429a      	cmp	r2, r3
 80038fa:	d142      	bne.n	8003982 <HAL_ADC_MspInit+0x9e>
 80038fc:	f103 4370 	add.w	r3, r3, #4026531840	@ 0xf0000000
 8003900:	f5a3 33f8 	sub.w	r3, r3, #126976	@ 0x1f000
 8003904:	a903      	add	r1, sp, #12
 8003906:	6cda      	ldr	r2, [r3, #76]	@ 0x4c
 8003908:	4c20      	ldr	r4, [pc, #128]	@ (800398c <HAL_ADC_MspInit+0xa8>)
 800390a:	f442 5200 	orr.w	r2, r2, #8192	@ 0x2000
 800390e:	64da      	str	r2, [r3, #76]	@ 0x4c
 8003910:	6cda      	ldr	r2, [r3, #76]	@ 0x4c
 8003912:	f402 5200 	and.w	r2, r2, #8192	@ 0x2000
 8003916:	9201      	str	r2, [sp, #4]
 8003918:	9a01      	ldr	r2, [sp, #4]
 800391a:	6cda      	ldr	r2, [r3, #76]	@ 0x4c
 800391c:	f042 0201 	orr.w	r2, r2, #1
 8003920:	64da      	str	r2, [r3, #76]	@ 0x4c
 8003922:	6cdb      	ldr	r3, [r3, #76]	@ 0x4c
 8003924:	f003 0301 	and.w	r3, r3, #1
 8003928:	9302      	str	r3, [sp, #8]
 800392a:	9b02      	ldr	r3, [sp, #8]
 800392c:	221e      	movs	r2, #30
 800392e:	230b      	movs	r3, #11
 8003930:	f04f 4090 	mov.w	r0, #1207959552	@ 0x48000000
 8003934:	e9cd 2303 	strd	r2, r3, [sp, #12]
 8003938:	f000 ff90 	bl	800485c <HAL_GPIO_Init>
 800393c:	4914      	ldr	r1, [pc, #80]	@ (8003990 <HAL_ADC_MspInit+0xac>)
 800393e:	2300      	movs	r3, #0
 8003940:	2080      	movs	r0, #128	@ 0x80
 8003942:	e9c4 1300 	strd	r1, r3, [r4]
 8003946:	e9c4 3302 	strd	r3, r3, [r4, #8]
 800394a:	f44f 7380 	mov.w	r3, #256	@ 0x100
 800394e:	e9c4 0304 	strd	r0, r3, [r4, #16]
 8003952:	f44f 6c80 	mov.w	ip, #1024	@ 0x400
 8003956:	2320      	movs	r3, #32
 8003958:	e9c4 c306 	strd	ip, r3, [r4, #24]
 800395c:	4620      	mov	r0, r4
 800395e:	f44f 5300 	mov.w	r3, #8192	@ 0x2000
 8003962:	6223      	str	r3, [r4, #32]
 8003964:	f000 fe44 	bl	80045f0 <HAL_DMA_Init>
 8003968:	b108      	cbz	r0, 800396e <HAL_ADC_MspInit+0x8a>
 800396a:	f7ff ffa1 	bl	80038b0 <Error_Handler>
 800396e:	2200      	movs	r2, #0
 8003970:	2012      	movs	r0, #18
 8003972:	64ec      	str	r4, [r5, #76]	@ 0x4c
 8003974:	4611      	mov	r1, r2
 8003976:	62a5      	str	r5, [r4, #40]	@ 0x28
 8003978:	f000 fdd4 	bl	8004524 <HAL_NVIC_SetPriority>
 800397c:	2012      	movs	r0, #18
 800397e:	f000 fe03 	bl	8004588 <HAL_NVIC_EnableIRQ>
 8003982:	b009      	add	sp, #36	@ 0x24
 8003984:	bd30      	pop	{r4, r5, pc}
 8003986:	bf00      	nop
 8003988:	50040000 	.word	0x50040000
 800398c:	200007e8 	.word	0x200007e8
 8003990:	40020008 	.word	0x40020008

08003994 <HAL_I2C_MspInit>:
 8003994:	b510      	push	{r4, lr}
 8003996:	b094      	sub	sp, #80	@ 0x50
 8003998:	4604      	mov	r4, r0
 800399a:	2214      	movs	r2, #20
 800399c:	2100      	movs	r1, #0
 800399e:	a802      	add	r0, sp, #8
 80039a0:	f003 f8da 	bl	8006b58 <memset>
 80039a4:	2234      	movs	r2, #52	@ 0x34
 80039a6:	2100      	movs	r1, #0
 80039a8:	a807      	add	r0, sp, #28
 80039aa:	f003 f8d5 	bl	8006b58 <memset>
 80039ae:	6822      	ldr	r2, [r4, #0]
 80039b0:	4b16      	ldr	r3, [pc, #88]	@ (8003a0c <HAL_I2C_MspInit+0x78>)
 80039b2:	429a      	cmp	r2, r3
 80039b4:	d127      	bne.n	8003a06 <HAL_I2C_MspInit+0x72>
 80039b6:	2340      	movs	r3, #64	@ 0x40
 80039b8:	a807      	add	r0, sp, #28
 80039ba:	9307      	str	r3, [sp, #28]
 80039bc:	f002 f896 	bl	8005aec <HAL_RCCEx_PeriphCLKConfig>
 80039c0:	b108      	cbz	r0, 80039c6 <HAL_I2C_MspInit+0x32>
 80039c2:	f7ff ff75 	bl	80038b0 <Error_Handler>
 80039c6:	4c12      	ldr	r4, [pc, #72]	@ (8003a10 <HAL_I2C_MspInit+0x7c>)
 80039c8:	4812      	ldr	r0, [pc, #72]	@ (8003a14 <HAL_I2C_MspInit+0x80>)
 80039ca:	6ce3      	ldr	r3, [r4, #76]	@ 0x4c
 80039cc:	f043 0302 	orr.w	r3, r3, #2
 80039d0:	64e3      	str	r3, [r4, #76]	@ 0x4c
 80039d2:	6ce3      	ldr	r3, [r4, #76]	@ 0x4c
 80039d4:	f003 0302 	and.w	r3, r3, #2
 80039d8:	9300      	str	r3, [sp, #0]
 80039da:	9b00      	ldr	r3, [sp, #0]
 80039dc:	22c0      	movs	r2, #192	@ 0xc0
 80039de:	2312      	movs	r3, #18
 80039e0:	e9cd 2302 	strd	r2, r3, [sp, #8]
 80039e4:	2300      	movs	r3, #0
 80039e6:	e9cd 3304 	strd	r3, r3, [sp, #16]
 80039ea:	a902      	add	r1, sp, #8
 80039ec:	2304      	movs	r3, #4
 80039ee:	9306      	str	r3, [sp, #24]
 80039f0:	f000 ff34 	bl	800485c <HAL_GPIO_Init>
 80039f4:	6da3      	ldr	r3, [r4, #88]	@ 0x58
 80039f6:	f443 1300 	orr.w	r3, r3, #2097152	@ 0x200000
 80039fa:	65a3      	str	r3, [r4, #88]	@ 0x58
 80039fc:	6da3      	ldr	r3, [r4, #88]	@ 0x58
 80039fe:	f403 1300 	and.w	r3, r3, #2097152	@ 0x200000
 8003a02:	9301      	str	r3, [sp, #4]
 8003a04:	9b01      	ldr	r3, [sp, #4]
 8003a06:	b014      	add	sp, #80	@ 0x50
 8003a08:	bd10      	pop	{r4, pc}
 8003a0a:	bf00      	nop
 8003a0c:	40005400 	.word	0x40005400
 8003a10:	40021000 	.word	0x40021000
 8003a14:	48000400 	.word	0x48000400

08003a18 <HAL_TIM_Base_MspInit>:
 8003a18:	6803      	ldr	r3, [r0, #0]
 8003a1a:	f1b3 4f80 	cmp.w	r3, #1073741824	@ 0x40000000
 8003a1e:	b507      	push	{r0, r1, r2, lr}
 8003a20:	d115      	bne.n	8003a4e <HAL_TIM_Base_MspInit+0x36>
 8003a22:	f503 3304 	add.w	r3, r3, #135168	@ 0x21000
 8003a26:	201c      	movs	r0, #28
 8003a28:	6d9a      	ldr	r2, [r3, #88]	@ 0x58
 8003a2a:	f042 0201 	orr.w	r2, r2, #1
 8003a2e:	659a      	str	r2, [r3, #88]	@ 0x58
 8003a30:	6d9b      	ldr	r3, [r3, #88]	@ 0x58
 8003a32:	2200      	movs	r2, #0
 8003a34:	f003 0301 	and.w	r3, r3, #1
 8003a38:	9301      	str	r3, [sp, #4]
 8003a3a:	4611      	mov	r1, r2
 8003a3c:	9b01      	ldr	r3, [sp, #4]
 8003a3e:	f000 fd71 	bl	8004524 <HAL_NVIC_SetPriority>
 8003a42:	201c      	movs	r0, #28
 8003a44:	b003      	add	sp, #12
 8003a46:	f85d eb04 	ldr.w	lr, [sp], #4
 8003a4a:	f000 bd9d 	b.w	8004588 <HAL_NVIC_EnableIRQ>
 8003a4e:	b003      	add	sp, #12
 8003a50:	f85d fb04 	ldr.w	pc, [sp], #4

08003a54 <HAL_UART_MspInit>:
 8003a54:	b5f0      	push	{r4, r5, r6, r7, lr}
 8003a56:	b095      	sub	sp, #84	@ 0x54
 8003a58:	4606      	mov	r6, r0
 8003a5a:	2214      	movs	r2, #20
 8003a5c:	2100      	movs	r1, #0
 8003a5e:	a802      	add	r0, sp, #8
 8003a60:	f003 f87a 	bl	8006b58 <memset>
 8003a64:	2234      	movs	r2, #52	@ 0x34
 8003a66:	2100      	movs	r1, #0
 8003a68:	a807      	add	r0, sp, #28
 8003a6a:	f003 f875 	bl	8006b58 <memset>
 8003a6e:	6832      	ldr	r2, [r6, #0]
 8003a70:	4b26      	ldr	r3, [pc, #152]	@ (8003b0c <HAL_UART_MspInit+0xb8>)
 8003a72:	429a      	cmp	r2, r3
 8003a74:	d147      	bne.n	8003b06 <HAL_UART_MspInit+0xb2>
 8003a76:	2301      	movs	r3, #1
 8003a78:	a807      	add	r0, sp, #28
 8003a7a:	9307      	str	r3, [sp, #28]
 8003a7c:	f002 f836 	bl	8005aec <HAL_RCCEx_PeriphCLKConfig>
 8003a80:	b108      	cbz	r0, 8003a86 <HAL_UART_MspInit+0x32>
 8003a82:	f7ff ff15 	bl	80038b0 <Error_Handler>
 8003a86:	4b22      	ldr	r3, [pc, #136]	@ (8003b10 <HAL_UART_MspInit+0xbc>)
 8003a88:	4c22      	ldr	r4, [pc, #136]	@ (8003b14 <HAL_UART_MspInit+0xc0>)
 8003a8a:	6e1a      	ldr	r2, [r3, #96]	@ 0x60
 8003a8c:	f442 4280 	orr.w	r2, r2, #16384	@ 0x4000
 8003a90:	661a      	str	r2, [r3, #96]	@ 0x60
 8003a92:	6e1a      	ldr	r2, [r3, #96]	@ 0x60
 8003a94:	f402 4280 	and.w	r2, r2, #16384	@ 0x4000
 8003a98:	9200      	str	r2, [sp, #0]
 8003a9a:	9a00      	ldr	r2, [sp, #0]
 8003a9c:	6cda      	ldr	r2, [r3, #76]	@ 0x4c
 8003a9e:	f042 0201 	orr.w	r2, r2, #1
 8003aa2:	64da      	str	r2, [r3, #76]	@ 0x4c
 8003aa4:	6cdb      	ldr	r3, [r3, #76]	@ 0x4c
 8003aa6:	f003 0301 	and.w	r3, r3, #1
 8003aaa:	9301      	str	r3, [sp, #4]
 8003aac:	9b01      	ldr	r3, [sp, #4]
 8003aae:	2702      	movs	r7, #2
 8003ab0:	f44f 63c0 	mov.w	r3, #1536	@ 0x600
 8003ab4:	2500      	movs	r5, #0
 8003ab6:	e9cd 3702 	strd	r3, r7, [sp, #8]
 8003aba:	2301      	movs	r3, #1
 8003abc:	e9cd 5304 	strd	r5, r3, [sp, #16]
 8003ac0:	f04f 4090 	mov.w	r0, #1207959552	@ 0x48000000
 8003ac4:	2307      	movs	r3, #7
 8003ac6:	a902      	add	r1, sp, #8
 8003ac8:	9306      	str	r3, [sp, #24]
 8003aca:	f000 fec7 	bl	800485c <HAL_GPIO_Init>
 8003ace:	4b12      	ldr	r3, [pc, #72]	@ (8003b18 <HAL_UART_MspInit+0xc4>)
 8003ad0:	61a5      	str	r5, [r4, #24]
 8003ad2:	e9c4 3700 	strd	r3, r7, [r4]
 8003ad6:	2380      	movs	r3, #128	@ 0x80
 8003ad8:	e9c4 3504 	strd	r3, r5, [r4, #16]
 8003adc:	4620      	mov	r0, r4
 8003ade:	2320      	movs	r3, #32
 8003ae0:	e9c4 5502 	strd	r5, r5, [r4, #8]
 8003ae4:	e9c4 3507 	strd	r3, r5, [r4, #28]
 8003ae8:	f000 fd82 	bl	80045f0 <HAL_DMA_Init>
 8003aec:	b108      	cbz	r0, 8003af2 <HAL_UART_MspInit+0x9e>
 8003aee:	f7ff fedf 	bl	80038b0 <Error_Handler>
 8003af2:	2200      	movs	r2, #0
 8003af4:	2025      	movs	r0, #37	@ 0x25
 8003af6:	6774      	str	r4, [r6, #116]	@ 0x74
 8003af8:	4611      	mov	r1, r2
 8003afa:	62a6      	str	r6, [r4, #40]	@ 0x28
 8003afc:	f000 fd12 	bl	8004524 <HAL_NVIC_SetPriority>
 8003b00:	2025      	movs	r0, #37	@ 0x25
 8003b02:	f000 fd41 	bl	8004588 <HAL_NVIC_EnableIRQ>
 8003b06:	b015      	add	sp, #84	@ 0x54
 8003b08:	bdf0      	pop	{r4, r5, r6, r7, pc}
 8003b0a:	bf00      	nop
 8003b0c:	40013800 	.word	0x40013800
 8003b10:	40021000 	.word	0x40021000
 8003b14:	20000678 	.word	0x20000678
 8003b18:	40020058 	.word	0x40020058

08003b1c <NMI_Handler>:
 8003b1c:	e7fe      	b.n	8003b1c <NMI_Handler>

08003b1e <HardFault_Handler>:
 8003b1e:	e7fe      	b.n	8003b1e <HardFault_Handler>

08003b20 <MemManage_Handler>:
 8003b20:	e7fe      	b.n	8003b20 <MemManage_Handler>

08003b22 <BusFault_Handler>:
 8003b22:	e7fe      	b.n	8003b22 <BusFault_Handler>

08003b24 <UsageFault_Handler>:
 8003b24:	e7fe      	b.n	8003b24 <UsageFault_Handler>

08003b26 <SVC_Handler>:
 8003b26:	4770      	bx	lr

08003b28 <DebugMon_Handler>:
 8003b28:	4770      	bx	lr

08003b2a <PendSV_Handler>:
 8003b2a:	4770      	bx	lr

08003b2c <SysTick_Handler>:
 8003b2c:	f000 b88c 	b.w	8003c48 <HAL_IncTick>

08003b30 <DMA1_Channel1_IRQHandler>:
 8003b30:	4801      	ldr	r0, [pc, #4]	@ (8003b38 <DMA1_Channel1_IRQHandler+0x8>)
 8003b32:	f000 be46 	b.w	80047c2 <HAL_DMA_IRQHandler>
 8003b36:	bf00      	nop
 8003b38:	200007e8 	.word	0x200007e8

08003b3c <DMA1_Channel5_IRQHandler>:
 8003b3c:	4801      	ldr	r0, [pc, #4]	@ (8003b44 <DMA1_Channel5_IRQHandler+0x8>)
 8003b3e:	f000 be40 	b.w	80047c2 <HAL_DMA_IRQHandler>
 8003b42:	bf00      	nop
 8003b44:	20000678 	.word	0x20000678

08003b48 <ADC1_2_IRQHandler>:
 8003b48:	4801      	ldr	r0, [pc, #4]	@ (8003b50 <ADC1_2_IRQHandler+0x8>)
 8003b4a:	f000 b97d 	b.w	8003e48 <HAL_ADC_IRQHandler>
 8003b4e:	bf00      	nop
 8003b50:	20000830 	.word	0x20000830

08003b54 <EXTI9_5_IRQHandler>:
 8003b54:	f44f 7080 	mov.w	r0, #256	@ 0x100
 8003b58:	f000 bf44 	b.w	80049e4 <HAL_GPIO_EXTI_IRQHandler>

08003b5c <TIM2_IRQHandler>:
 8003b5c:	4801      	ldr	r0, [pc, #4]	@ (8003b64 <TIM2_IRQHandler+0x8>)
 8003b5e:	f002 b8e7 	b.w	8005d30 <HAL_TIM_IRQHandler>
 8003b62:	bf00      	nop
 8003b64:	20000748 	.word	0x20000748

08003b68 <USART1_IRQHandler>:
 8003b68:	4801      	ldr	r0, [pc, #4]	@ (8003b70 <USART1_IRQHandler+0x8>)
 8003b6a:	f002 bb7b 	b.w	8006264 <HAL_UART_IRQHandler>
 8003b6e:	bf00      	nop
 8003b70:	200006c0 	.word	0x200006c0

08003b74 <SystemInit>:
 8003b74:	4a03      	ldr	r2, [pc, #12]	@ (8003b84 <SystemInit+0x10>)
 8003b76:	f8d2 3088 	ldr.w	r3, [r2, #136]	@ 0x88
 8003b7a:	f443 0370 	orr.w	r3, r3, #15728640	@ 0xf00000
 8003b7e:	f8c2 3088 	str.w	r3, [r2, #136]	@ 0x88
 8003b82:	4770      	bx	lr
 8003b84:	e000ed00 	.word	0xe000ed00

08003b88 <Reset_Handler>:
 8003b88:	f8df d034 	ldr.w	sp, [pc, #52]	@ 8003bc0 <LoopForever+0x2>
 8003b8c:	f7ff fff2 	bl	8003b74 <SystemInit>
 8003b90:	480c      	ldr	r0, [pc, #48]	@ (8003bc4 <LoopForever+0x6>)
 8003b92:	490d      	ldr	r1, [pc, #52]	@ (8003bc8 <LoopForever+0xa>)
 8003b94:	4a0d      	ldr	r2, [pc, #52]	@ (8003bcc <LoopForever+0xe>)
 8003b96:	2300      	movs	r3, #0
 8003b98:	e002      	b.n	8003ba0 <LoopCopyDataInit>

08003b9a <CopyDataInit>:
 8003b9a:	58d4      	ldr	r4, [r2, r3]
 8003b9c:	50c4      	str	r4, [r0, r3]
 8003b9e:	3304      	adds	r3, #4

08003ba0 <LoopCopyDataInit>:
 8003ba0:	18c4      	adds	r4, r0, r3
 8003ba2:	428c      	cmp	r4, r1
 8003ba4:	d3f9      	bcc.n	8003b9a <CopyDataInit>
 8003ba6:	4a0a      	ldr	r2, [pc, #40]	@ (8003bd0 <LoopForever+0x12>)
 8003ba8:	4c0a      	ldr	r4, [pc, #40]	@ (8003bd4 <LoopForever+0x16>)
 8003baa:	2300      	movs	r3, #0
 8003bac:	e001      	b.n	8003bb2 <LoopFillZerobss>

08003bae <FillZerobss>:
 8003bae:	6013      	str	r3, [r2, #0]
 8003bb0:	3204      	adds	r2, #4

08003bb2 <LoopFillZerobss>:
 8003bb2:	42a2      	cmp	r2, r4
 8003bb4:	d3fb      	bcc.n	8003bae <FillZerobss>
 8003bb6:	f002 ffd7 	bl	8006b68 <__libc_init_array>
 8003bba:	f7ff fcdb 	bl	8003574 <main>

08003bbe <LoopForever>:
 8003bbe:	e7fe      	b.n	8003bbe <LoopForever>
 8003bc0:	20008000 	.word	0x20008000
 8003bc4:	20000000 	.word	0x20000000
 8003bc8:	2000000c 	.word	0x2000000c
 8003bcc:	08006c44 	.word	0x08006c44
 8003bd0:	2000000c 	.word	0x2000000c
 8003bd4:	200008b8 	.word	0x200008b8

08003bd8 <COMP_IRQHandler>:
 8003bd8:	e7fe      	b.n	8003bd8 <COMP_IRQHandler>
	...

08003bdc <HAL_InitTick>:
 8003bdc:	b538      	push	{r3, r4, r5, lr}
 8003bde:	4b0f      	ldr	r3, [pc, #60]	@ (8003c1c <HAL_InitTick+0x40>)
 8003be0:	781a      	ldrb	r2, [r3, #0]
 8003be2:	4605      	mov	r5, r0
 8003be4:	b90a      	cbnz	r2, 8003bea <HAL_InitTick+0xe>
 8003be6:	2001      	movs	r0, #1
 8003be8:	bd38      	pop	{r3, r4, r5, pc}
 8003bea:	f44f 737a 	mov.w	r3, #1000	@ 0x3e8
 8003bee:	fbb3 f3f2 	udiv	r3, r3, r2
 8003bf2:	4a0b      	ldr	r2, [pc, #44]	@ (8003c20 <HAL_InitTick+0x44>)
 8003bf4:	6810      	ldr	r0, [r2, #0]
 8003bf6:	fbb0 f0f3 	udiv	r0, r0, r3
 8003bfa:	f000 fce5 	bl	80045c8 <HAL_SYSTICK_Config>
 8003bfe:	4604      	mov	r4, r0
 8003c00:	2800      	cmp	r0, #0
 8003c02:	d1f0      	bne.n	8003be6 <HAL_InitTick+0xa>
 8003c04:	2d0f      	cmp	r5, #15
 8003c06:	d8ee      	bhi.n	8003be6 <HAL_InitTick+0xa>
 8003c08:	4602      	mov	r2, r0
 8003c0a:	4629      	mov	r1, r5
 8003c0c:	f04f 30ff 	mov.w	r0, #4294967295
 8003c10:	f000 fc88 	bl	8004524 <HAL_NVIC_SetPriority>
 8003c14:	4b03      	ldr	r3, [pc, #12]	@ (8003c24 <HAL_InitTick+0x48>)
 8003c16:	4620      	mov	r0, r4
 8003c18:	601d      	str	r5, [r3, #0]
 8003c1a:	e7e5      	b.n	8003be8 <HAL_InitTick+0xc>
 8003c1c:	20000004 	.word	0x20000004
 8003c20:	20000000 	.word	0x20000000
 8003c24:	20000008 	.word	0x20000008

08003c28 <HAL_Init>:
 8003c28:	b510      	push	{r4, lr}
 8003c2a:	2003      	movs	r0, #3
 8003c2c:	f000 fc68 	bl	8004500 <HAL_NVIC_SetPriorityGrouping>
 8003c30:	200f      	movs	r0, #15
 8003c32:	f7ff ffd3 	bl	8003bdc <HAL_InitTick>
 8003c36:	4604      	mov	r4, r0
 8003c38:	b918      	cbnz	r0, 8003c42 <HAL_Init+0x1a>
 8003c3a:	f7ff fe3b 	bl	80038b4 <HAL_MspInit>
 8003c3e:	4620      	mov	r0, r4
 8003c40:	bd10      	pop	{r4, pc}
 8003c42:	2401      	movs	r4, #1
 8003c44:	e7fb      	b.n	8003c3e <HAL_Init+0x16>
	...

08003c48 <HAL_IncTick>:
 8003c48:	4a03      	ldr	r2, [pc, #12]	@ (8003c58 <HAL_IncTick+0x10>)
 8003c4a:	4b04      	ldr	r3, [pc, #16]	@ (8003c5c <HAL_IncTick+0x14>)
 8003c4c:	6811      	ldr	r1, [r2, #0]
 8003c4e:	781b      	ldrb	r3, [r3, #0]
 8003c50:	440b      	add	r3, r1
 8003c52:	6013      	str	r3, [r2, #0]
 8003c54:	4770      	bx	lr
 8003c56:	bf00      	nop
 8003c58:	200008b4 	.word	0x200008b4
 8003c5c:	20000004 	.word	0x20000004

08003c60 <HAL_GetTick>:
 8003c60:	4b01      	ldr	r3, [pc, #4]	@ (8003c68 <HAL_GetTick+0x8>)
 8003c62:	6818      	ldr	r0, [r3, #0]
 8003c64:	4770      	bx	lr
 8003c66:	bf00      	nop
 8003c68:	200008b4 	.word	0x200008b4

08003c6c <LL_ADC_SetChannelSamplingTime>:
 8003c6c:	b530      	push	{r4, r5, lr}
 8003c6e:	0dcc      	lsrs	r4, r1, #23
 8003c70:	f004 0404 	and.w	r4, r4, #4
 8003c74:	3014      	adds	r0, #20
 8003c76:	f3c1 5104 	ubfx	r1, r1, #20, #5
 8003c7a:	5903      	ldr	r3, [r0, r4]
 8003c7c:	2507      	movs	r5, #7
 8003c7e:	408d      	lsls	r5, r1
 8003c80:	ea23 0305 	bic.w	r3, r3, r5
 8003c84:	408a      	lsls	r2, r1
 8003c86:	4313      	orrs	r3, r2
 8003c88:	5103      	str	r3, [r0, r4]
 8003c8a:	bd30      	pop	{r4, r5, pc}

08003c8c <LL_ADC_IsEnabled>:
 8003c8c:	6880      	ldr	r0, [r0, #8]
 8003c8e:	f000 0001 	and.w	r0, r0, #1
 8003c92:	4770      	bx	lr

08003c94 <LL_ADC_REG_IsConversionOngoing>:
 8003c94:	6880      	ldr	r0, [r0, #8]
 8003c96:	f3c0 0080 	ubfx	r0, r0, #2, #1
 8003c9a:	4770      	bx	lr

08003c9c <HAL_ADC_Init>:
 8003c9c:	b537      	push	{r0, r1, r2, r4, r5, lr}
 8003c9e:	2300      	movs	r3, #0
 8003ca0:	9301      	str	r3, [sp, #4]
 8003ca2:	4604      	mov	r4, r0
 8003ca4:	2800      	cmp	r0, #0
 8003ca6:	f000 80bf 	beq.w	8003e28 <HAL_ADC_Init+0x18c>
 8003caa:	6d45      	ldr	r5, [r0, #84]	@ 0x54
 8003cac:	b925      	cbnz	r5, 8003cb8 <HAL_ADC_Init+0x1c>
 8003cae:	f7ff fe19 	bl	80038e4 <HAL_ADC_MspInit>
 8003cb2:	65a5      	str	r5, [r4, #88]	@ 0x58
 8003cb4:	f884 5050 	strb.w	r5, [r4, #80]	@ 0x50
 8003cb8:	6823      	ldr	r3, [r4, #0]
 8003cba:	689a      	ldr	r2, [r3, #8]
 8003cbc:	0095      	lsls	r5, r2, #2
 8003cbe:	bf41      	itttt	mi
 8003cc0:	689a      	ldrmi	r2, [r3, #8]
 8003cc2:	f022 4220 	bicmi.w	r2, r2, #2684354560	@ 0xa0000000
 8003cc6:	f022 023f 	bicmi.w	r2, r2, #63	@ 0x3f
 8003cca:	609a      	strmi	r2, [r3, #8]
 8003ccc:	689a      	ldr	r2, [r3, #8]
 8003cce:	00d0      	lsls	r0, r2, #3
 8003cd0:	f140 8089 	bpl.w	8003de6 <HAL_ADC_Init+0x14a>
 8003cd4:	689a      	ldr	r2, [r3, #8]
 8003cd6:	00d1      	lsls	r1, r2, #3
 8003cd8:	f100 809c 	bmi.w	8003e14 <HAL_ADC_Init+0x178>
 8003cdc:	6d62      	ldr	r2, [r4, #84]	@ 0x54
 8003cde:	f042 0210 	orr.w	r2, r2, #16
 8003ce2:	6562      	str	r2, [r4, #84]	@ 0x54
 8003ce4:	6da2      	ldr	r2, [r4, #88]	@ 0x58
 8003ce6:	f042 0201 	orr.w	r2, r2, #1
 8003cea:	65a2      	str	r2, [r4, #88]	@ 0x58
 8003cec:	2101      	movs	r1, #1
 8003cee:	4618      	mov	r0, r3
 8003cf0:	f7ff ffd0 	bl	8003c94 <LL_ADC_REG_IsConversionOngoing>
 8003cf4:	6d62      	ldr	r2, [r4, #84]	@ 0x54
 8003cf6:	f002 0210 	and.w	r2, r2, #16
 8003cfa:	4302      	orrs	r2, r0
 8003cfc:	f040 8090 	bne.w	8003e20 <HAL_ADC_Init+0x184>
 8003d00:	6d62      	ldr	r2, [r4, #84]	@ 0x54
 8003d02:	f422 7281 	bic.w	r2, r2, #258	@ 0x102
 8003d06:	f042 0202 	orr.w	r2, r2, #2
 8003d0a:	6562      	str	r2, [r4, #84]	@ 0x54
 8003d0c:	4618      	mov	r0, r3
 8003d0e:	f7ff ffbd 	bl	8003c8c <LL_ADC_IsEnabled>
 8003d12:	b978      	cbnz	r0, 8003d34 <HAL_ADC_Init+0x98>
 8003d14:	4845      	ldr	r0, [pc, #276]	@ (8003e2c <HAL_ADC_Init+0x190>)
 8003d16:	f7ff ffb9 	bl	8003c8c <LL_ADC_IsEnabled>
 8003d1a:	4602      	mov	r2, r0
 8003d1c:	4844      	ldr	r0, [pc, #272]	@ (8003e30 <HAL_ADC_Init+0x194>)
 8003d1e:	f7ff ffb5 	bl	8003c8c <LL_ADC_IsEnabled>
 8003d22:	4302      	orrs	r2, r0
 8003d24:	d106      	bne.n	8003d34 <HAL_ADC_Init+0x98>
 8003d26:	4843      	ldr	r0, [pc, #268]	@ (8003e34 <HAL_ADC_Init+0x198>)
 8003d28:	6865      	ldr	r5, [r4, #4]
 8003d2a:	6882      	ldr	r2, [r0, #8]
 8003d2c:	f422 127c 	bic.w	r2, r2, #4128768	@ 0x3f0000
 8003d30:	432a      	orrs	r2, r5
 8003d32:	6082      	str	r2, [r0, #8]
 8003d34:	68e5      	ldr	r5, [r4, #12]
 8003d36:	6b62      	ldr	r2, [r4, #52]	@ 0x34
 8003d38:	f894 0020 	ldrb.w	r0, [r4, #32]
 8003d3c:	432a      	orrs	r2, r5
 8003d3e:	68a5      	ldr	r5, [r4, #8]
 8003d40:	432a      	orrs	r2, r5
 8003d42:	7e65      	ldrb	r5, [r4, #25]
 8003d44:	2801      	cmp	r0, #1
 8003d46:	ea42 3245 	orr.w	r2, r2, r5, lsl #13
 8003d4a:	ea42 4200 	orr.w	r2, r2, r0, lsl #16
 8003d4e:	bf02      	ittt	eq
 8003d50:	6a60      	ldreq	r0, [r4, #36]	@ 0x24
 8003d52:	f100 30ff 	addeq.w	r0, r0, #4294967295
 8003d56:	ea42 4240 	orreq.w	r2, r2, r0, lsl #17
 8003d5a:	6aa0      	ldr	r0, [r4, #40]	@ 0x28
 8003d5c:	b120      	cbz	r0, 8003d68 <HAL_ADC_Init+0xcc>
 8003d5e:	6ae5      	ldr	r5, [r4, #44]	@ 0x2c
 8003d60:	f400 7070 	and.w	r0, r0, #960	@ 0x3c0
 8003d64:	4328      	orrs	r0, r5
 8003d66:	4302      	orrs	r2, r0
 8003d68:	68dd      	ldr	r5, [r3, #12]
 8003d6a:	4833      	ldr	r0, [pc, #204]	@ (8003e38 <HAL_ADC_Init+0x19c>)
 8003d6c:	4028      	ands	r0, r5
 8003d6e:	4310      	orrs	r0, r2
 8003d70:	60d8      	str	r0, [r3, #12]
 8003d72:	689a      	ldr	r2, [r3, #8]
 8003d74:	0712      	lsls	r2, r2, #28
 8003d76:	d41e      	bmi.n	8003db6 <HAL_ADC_Init+0x11a>
 8003d78:	68d8      	ldr	r0, [r3, #12]
 8003d7a:	f894 2030 	ldrb.w	r2, [r4, #48]	@ 0x30
 8003d7e:	7e25      	ldrb	r5, [r4, #24]
 8003d80:	0052      	lsls	r2, r2, #1
 8003d82:	f420 4080 	bic.w	r0, r0, #16384	@ 0x4000
 8003d86:	ea42 3285 	orr.w	r2, r2, r5, lsl #14
 8003d8a:	f020 0002 	bic.w	r0, r0, #2
 8003d8e:	4302      	orrs	r2, r0
 8003d90:	60da      	str	r2, [r3, #12]
 8003d92:	f894 2038 	ldrb.w	r2, [r4, #56]	@ 0x38
 8003d96:	2a01      	cmp	r2, #1
 8003d98:	d13e      	bne.n	8003e18 <HAL_ADC_Init+0x17c>
 8003d9a:	e9d4 250f 	ldrd	r2, r5, [r4, #60]	@ 0x3c
 8003d9e:	6918      	ldr	r0, [r3, #16]
 8003da0:	432a      	orrs	r2, r5
 8003da2:	f36f 008a 	bfc	r0, #2, #9
 8003da6:	4302      	orrs	r2, r0
 8003da8:	6c60      	ldr	r0, [r4, #68]	@ 0x44
 8003daa:	4302      	orrs	r2, r0
 8003dac:	6ca0      	ldr	r0, [r4, #72]	@ 0x48
 8003dae:	4302      	orrs	r2, r0
 8003db0:	f042 0201 	orr.w	r2, r2, #1
 8003db4:	611a      	str	r2, [r3, #16]
 8003db6:	6922      	ldr	r2, [r4, #16]
 8003db8:	2a01      	cmp	r2, #1
 8003dba:	bf05      	ittet	eq
 8003dbc:	6b18      	ldreq	r0, [r3, #48]	@ 0x30
 8003dbe:	69e2      	ldreq	r2, [r4, #28]
 8003dc0:	6b1a      	ldrne	r2, [r3, #48]	@ 0x30
 8003dc2:	f102 32ff 	addeq.w	r2, r2, #4294967295
 8003dc6:	bf06      	itte	eq
 8003dc8:	f020 000f 	biceq.w	r0, r0, #15
 8003dcc:	4302      	orreq	r2, r0
 8003dce:	f022 020f 	bicne.w	r2, r2, #15
 8003dd2:	631a      	str	r2, [r3, #48]	@ 0x30
 8003dd4:	6d63      	ldr	r3, [r4, #84]	@ 0x54
 8003dd6:	f023 0303 	bic.w	r3, r3, #3
 8003dda:	f043 0301 	orr.w	r3, r3, #1
 8003dde:	6563      	str	r3, [r4, #84]	@ 0x54
 8003de0:	4608      	mov	r0, r1
 8003de2:	b003      	add	sp, #12
 8003de4:	bd30      	pop	{r4, r5, pc}
 8003de6:	689a      	ldr	r2, [r3, #8]
 8003de8:	4914      	ldr	r1, [pc, #80]	@ (8003e3c <HAL_ADC_Init+0x1a0>)
 8003dea:	f022 4210 	bic.w	r2, r2, #2415919104	@ 0x90000000
 8003dee:	f022 023f 	bic.w	r2, r2, #63	@ 0x3f
 8003df2:	f042 5280 	orr.w	r2, r2, #268435456	@ 0x10000000
 8003df6:	609a      	str	r2, [r3, #8]
 8003df8:	4a11      	ldr	r2, [pc, #68]	@ (8003e40 <HAL_ADC_Init+0x1a4>)
 8003dfa:	6812      	ldr	r2, [r2, #0]
 8003dfc:	fbb2 f2f1 	udiv	r2, r2, r1
 8003e00:	3201      	adds	r2, #1
 8003e02:	0052      	lsls	r2, r2, #1
 8003e04:	9201      	str	r2, [sp, #4]
 8003e06:	9a01      	ldr	r2, [sp, #4]
 8003e08:	2a00      	cmp	r2, #0
 8003e0a:	f43f af63 	beq.w	8003cd4 <HAL_ADC_Init+0x38>
 8003e0e:	9a01      	ldr	r2, [sp, #4]
 8003e10:	3a01      	subs	r2, #1
 8003e12:	e7f7      	b.n	8003e04 <HAL_ADC_Init+0x168>
 8003e14:	2100      	movs	r1, #0
 8003e16:	e76a      	b.n	8003cee <HAL_ADC_Init+0x52>
 8003e18:	691a      	ldr	r2, [r3, #16]
 8003e1a:	f022 0201 	bic.w	r2, r2, #1
 8003e1e:	e7c9      	b.n	8003db4 <HAL_ADC_Init+0x118>
 8003e20:	6d63      	ldr	r3, [r4, #84]	@ 0x54
 8003e22:	f043 0310 	orr.w	r3, r3, #16
 8003e26:	6563      	str	r3, [r4, #84]	@ 0x54
 8003e28:	2101      	movs	r1, #1
 8003e2a:	e7d9      	b.n	8003de0 <HAL_ADC_Init+0x144>
 8003e2c:	50040000 	.word	0x50040000
 8003e30:	50040100 	.word	0x50040100
 8003e34:	50040300 	.word	0x50040300
 8003e38:	fff0c007 	.word	0xfff0c007
 8003e3c:	00030d40 	.word	0x00030d40
 8003e40:	20000000 	.word	0x20000000

08003e44 <HAL_ADC_LevelOutOfWindowCallback>:
 8003e44:	4770      	bx	lr

08003e46 <HAL_ADC_ErrorCallback>:
 8003e46:	4770      	bx	lr

08003e48 <HAL_ADC_IRQHandler>:
 8003e48:	6803      	ldr	r3, [r0, #0]
 8003e4a:	e92d 41f0 	stmdb	sp!, {r4, r5, r6, r7, r8, lr}
 8003e4e:	f8df 8238 	ldr.w	r8, [pc, #568]	@ 8004088 <HAL_ADC_IRQHandler+0x240>
 8003e52:	681e      	ldr	r6, [r3, #0]
 8003e54:	685d      	ldr	r5, [r3, #4]
 8003e56:	f8d8 7008 	ldr.w	r7, [r8, #8]
 8003e5a:	4604      	mov	r4, r0
 8003e5c:	07b0      	lsls	r0, r6, #30
 8003e5e:	f007 071f 	and.w	r7, r7, #31
 8003e62:	d50e      	bpl.n	8003e82 <HAL_ADC_IRQHandler+0x3a>
 8003e64:	07a9      	lsls	r1, r5, #30
 8003e66:	d50c      	bpl.n	8003e82 <HAL_ADC_IRQHandler+0x3a>
 8003e68:	6d63      	ldr	r3, [r4, #84]	@ 0x54
 8003e6a:	06da      	lsls	r2, r3, #27
 8003e6c:	bf5e      	ittt	pl
 8003e6e:	6d63      	ldrpl	r3, [r4, #84]	@ 0x54
 8003e70:	f443 6300 	orrpl.w	r3, r3, #2048	@ 0x800
 8003e74:	6563      	strpl	r3, [r4, #84]	@ 0x54
 8003e76:	4620      	mov	r0, r4
 8003e78:	f000 fad6 	bl	8004428 <HAL_ADCEx_EndOfSamplingCallback>
 8003e7c:	6823      	ldr	r3, [r4, #0]
 8003e7e:	2202      	movs	r2, #2
 8003e80:	601a      	str	r2, [r3, #0]
 8003e82:	0773      	lsls	r3, r6, #29
 8003e84:	d501      	bpl.n	8003e8a <HAL_ADC_IRQHandler+0x42>
 8003e86:	0768      	lsls	r0, r5, #29
 8003e88:	d403      	bmi.n	8003e92 <HAL_ADC_IRQHandler+0x4a>
 8003e8a:	0731      	lsls	r1, r6, #28
 8003e8c:	d537      	bpl.n	8003efe <HAL_ADC_IRQHandler+0xb6>
 8003e8e:	072a      	lsls	r2, r5, #28
 8003e90:	d535      	bpl.n	8003efe <HAL_ADC_IRQHandler+0xb6>
 8003e92:	6d63      	ldr	r3, [r4, #84]	@ 0x54
 8003e94:	06db      	lsls	r3, r3, #27
 8003e96:	bf5e      	ittt	pl
 8003e98:	6d63      	ldrpl	r3, [r4, #84]	@ 0x54
 8003e9a:	f443 7300 	orrpl.w	r3, r3, #512	@ 0x200
 8003e9e:	6563      	strpl	r3, [r4, #84]	@ 0x54
 8003ea0:	6823      	ldr	r3, [r4, #0]
 8003ea2:	68da      	ldr	r2, [r3, #12]
 8003ea4:	f412 6f40 	tst.w	r2, #3072	@ 0xc00
 8003ea8:	d123      	bne.n	8003ef2 <HAL_ADC_IRQHandler+0xaa>
 8003eaa:	4a75      	ldr	r2, [pc, #468]	@ (8004080 <HAL_ADC_IRQHandler+0x238>)
 8003eac:	4293      	cmp	r3, r2
 8003eae:	d105      	bne.n	8003ebc <HAL_ADC_IRQHandler+0x74>
 8003eb0:	f240 2221 	movw	r2, #545	@ 0x221
 8003eb4:	40fa      	lsrs	r2, r7
 8003eb6:	07d0      	lsls	r0, r2, #31
 8003eb8:	f140 80be 	bpl.w	8004038 <HAL_ADC_IRQHandler+0x1f0>
 8003ebc:	68da      	ldr	r2, [r3, #12]
 8003ebe:	0491      	lsls	r1, r2, #18
 8003ec0:	d417      	bmi.n	8003ef2 <HAL_ADC_IRQHandler+0xaa>
 8003ec2:	681a      	ldr	r2, [r3, #0]
 8003ec4:	0712      	lsls	r2, r2, #28
 8003ec6:	d514      	bpl.n	8003ef2 <HAL_ADC_IRQHandler+0xaa>
 8003ec8:	4618      	mov	r0, r3
 8003eca:	f7ff fee3 	bl	8003c94 <LL_ADC_REG_IsConversionOngoing>
 8003ece:	2800      	cmp	r0, #0
 8003ed0:	f040 80b5 	bne.w	800403e <HAL_ADC_IRQHandler+0x1f6>
 8003ed4:	685a      	ldr	r2, [r3, #4]
 8003ed6:	f022 020c 	bic.w	r2, r2, #12
 8003eda:	605a      	str	r2, [r3, #4]
 8003edc:	6d63      	ldr	r3, [r4, #84]	@ 0x54
 8003ede:	f423 7380 	bic.w	r3, r3, #256	@ 0x100
 8003ee2:	6563      	str	r3, [r4, #84]	@ 0x54
 8003ee4:	6d63      	ldr	r3, [r4, #84]	@ 0x54
 8003ee6:	04d8      	lsls	r0, r3, #19
 8003ee8:	d403      	bmi.n	8003ef2 <HAL_ADC_IRQHandler+0xaa>
 8003eea:	6d63      	ldr	r3, [r4, #84]	@ 0x54
 8003eec:	f043 0301 	orr.w	r3, r3, #1
 8003ef0:	6563      	str	r3, [r4, #84]	@ 0x54
 8003ef2:	4620      	mov	r0, r4
 8003ef4:	f7ff fac0 	bl	8003478 <HAL_ADC_ConvCpltCallback>
 8003ef8:	6823      	ldr	r3, [r4, #0]
 8003efa:	220c      	movs	r2, #12
 8003efc:	601a      	str	r2, [r3, #0]
 8003efe:	06b1      	lsls	r1, r6, #26
 8003f00:	d501      	bpl.n	8003f06 <HAL_ADC_IRQHandler+0xbe>
 8003f02:	06aa      	lsls	r2, r5, #26
 8003f04:	d403      	bmi.n	8003f0e <HAL_ADC_IRQHandler+0xc6>
 8003f06:	0673      	lsls	r3, r6, #25
 8003f08:	d53a      	bpl.n	8003f80 <HAL_ADC_IRQHandler+0x138>
 8003f0a:	0668      	lsls	r0, r5, #25
 8003f0c:	d538      	bpl.n	8003f80 <HAL_ADC_IRQHandler+0x138>
 8003f0e:	6d63      	ldr	r3, [r4, #84]	@ 0x54
 8003f10:	4a5b      	ldr	r2, [pc, #364]	@ (8004080 <HAL_ADC_IRQHandler+0x238>)
 8003f12:	06d9      	lsls	r1, r3, #27
 8003f14:	bf5e      	ittt	pl
 8003f16:	6d63      	ldrpl	r3, [r4, #84]	@ 0x54
 8003f18:	f443 5300 	orrpl.w	r3, r3, #8192	@ 0x2000
 8003f1c:	6563      	strpl	r3, [r4, #84]	@ 0x54
 8003f1e:	6823      	ldr	r3, [r4, #0]
 8003f20:	6cd9      	ldr	r1, [r3, #76]	@ 0x4c
 8003f22:	68d8      	ldr	r0, [r3, #12]
 8003f24:	4293      	cmp	r3, r2
 8003f26:	f001 01c0 	and.w	r1, r1, #192	@ 0xc0
 8003f2a:	f040 8091 	bne.w	8004050 <HAL_ADC_IRQHandler+0x208>
 8003f2e:	22c1      	movs	r2, #193	@ 0xc1
 8003f30:	40fa      	lsrs	r2, r7
 8003f32:	07d2      	lsls	r2, r2, #31
 8003f34:	f100 808c 	bmi.w	8004050 <HAL_ADC_IRQHandler+0x208>
 8003f38:	4a52      	ldr	r2, [pc, #328]	@ (8004084 <HAL_ADC_IRQHandler+0x23c>)
 8003f3a:	68d2      	ldr	r2, [r2, #12]
 8003f3c:	b9d1      	cbnz	r1, 8003f74 <HAL_ADC_IRQHandler+0x12c>
 8003f3e:	0191      	lsls	r1, r2, #6
 8003f40:	d505      	bpl.n	8003f4e <HAL_ADC_IRQHandler+0x106>
 8003f42:	f402 5100 	and.w	r1, r2, #8192	@ 0x2000
 8003f46:	f400 6040 	and.w	r0, r0, #3072	@ 0xc00
 8003f4a:	4301      	orrs	r1, r0
 8003f4c:	d112      	bne.n	8003f74 <HAL_ADC_IRQHandler+0x12c>
 8003f4e:	6819      	ldr	r1, [r3, #0]
 8003f50:	0649      	lsls	r1, r1, #25
 8003f52:	d50f      	bpl.n	8003f74 <HAL_ADC_IRQHandler+0x12c>
 8003f54:	0292      	lsls	r2, r2, #10
 8003f56:	d40d      	bmi.n	8003f74 <HAL_ADC_IRQHandler+0x12c>
 8003f58:	689a      	ldr	r2, [r3, #8]
 8003f5a:	0710      	lsls	r0, r2, #28
 8003f5c:	d47a      	bmi.n	8004054 <HAL_ADC_IRQHandler+0x20c>
 8003f5e:	685a      	ldr	r2, [r3, #4]
 8003f60:	f022 0260 	bic.w	r2, r2, #96	@ 0x60
 8003f64:	605a      	str	r2, [r3, #4]
 8003f66:	6d63      	ldr	r3, [r4, #84]	@ 0x54
 8003f68:	f423 5380 	bic.w	r3, r3, #4096	@ 0x1000
 8003f6c:	6563      	str	r3, [r4, #84]	@ 0x54
 8003f6e:	6d63      	ldr	r3, [r4, #84]	@ 0x54
 8003f70:	05d9      	lsls	r1, r3, #23
 8003f72:	d578      	bpl.n	8004066 <HAL_ADC_IRQHandler+0x21e>
 8003f74:	4620      	mov	r0, r4
 8003f76:	f000 fa53 	bl	8004420 <HAL_ADCEx_InjectedConvCpltCallback>
 8003f7a:	6823      	ldr	r3, [r4, #0]
 8003f7c:	2260      	movs	r2, #96	@ 0x60
 8003f7e:	601a      	str	r2, [r3, #0]
 8003f80:	0632      	lsls	r2, r6, #24
 8003f82:	d50b      	bpl.n	8003f9c <HAL_ADC_IRQHandler+0x154>
 8003f84:	062b      	lsls	r3, r5, #24
 8003f86:	d509      	bpl.n	8003f9c <HAL_ADC_IRQHandler+0x154>
 8003f88:	6d63      	ldr	r3, [r4, #84]	@ 0x54
 8003f8a:	f443 3380 	orr.w	r3, r3, #65536	@ 0x10000
 8003f8e:	6563      	str	r3, [r4, #84]	@ 0x54
 8003f90:	4620      	mov	r0, r4
 8003f92:	f7ff ff57 	bl	8003e44 <HAL_ADC_LevelOutOfWindowCallback>
 8003f96:	6823      	ldr	r3, [r4, #0]
 8003f98:	2280      	movs	r2, #128	@ 0x80
 8003f9a:	601a      	str	r2, [r3, #0]
 8003f9c:	05f0      	lsls	r0, r6, #23
 8003f9e:	d50c      	bpl.n	8003fba <HAL_ADC_IRQHandler+0x172>
 8003fa0:	05e9      	lsls	r1, r5, #23
 8003fa2:	d50a      	bpl.n	8003fba <HAL_ADC_IRQHandler+0x172>
 8003fa4:	6d63      	ldr	r3, [r4, #84]	@ 0x54
 8003fa6:	f443 3300 	orr.w	r3, r3, #131072	@ 0x20000
 8003faa:	6563      	str	r3, [r4, #84]	@ 0x54
 8003fac:	4620      	mov	r0, r4
 8003fae:	f000 fa39 	bl	8004424 <HAL_ADCEx_LevelOutOfWindow2Callback>
 8003fb2:	6823      	ldr	r3, [r4, #0]
 8003fb4:	f44f 7280 	mov.w	r2, #256	@ 0x100
 8003fb8:	601a      	str	r2, [r3, #0]
 8003fba:	05b2      	lsls	r2, r6, #22
 8003fbc:	d50c      	bpl.n	8003fd8 <HAL_ADC_IRQHandler+0x190>
 8003fbe:	05ab      	lsls	r3, r5, #22
 8003fc0:	d50a      	bpl.n	8003fd8 <HAL_ADC_IRQHandler+0x190>
 8003fc2:	6d63      	ldr	r3, [r4, #84]	@ 0x54
 8003fc4:	f443 2380 	orr.w	r3, r3, #262144	@ 0x40000
 8003fc8:	6563      	str	r3, [r4, #84]	@ 0x54
 8003fca:	4620      	mov	r0, r4
 8003fcc:	f000 fa2b 	bl	8004426 <HAL_ADCEx_LevelOutOfWindow3Callback>
 8003fd0:	6823      	ldr	r3, [r4, #0]
 8003fd2:	f44f 7200 	mov.w	r2, #512	@ 0x200
 8003fd6:	601a      	str	r2, [r3, #0]
 8003fd8:	06f0      	lsls	r0, r6, #27
 8003fda:	d518      	bpl.n	800400e <HAL_ADC_IRQHandler+0x1c6>
 8003fdc:	06e9      	lsls	r1, r5, #27
 8003fde:	d516      	bpl.n	800400e <HAL_ADC_IRQHandler+0x1c6>
 8003fe0:	6b63      	ldr	r3, [r4, #52]	@ 0x34
 8003fe2:	b133      	cbz	r3, 8003ff2 <HAL_ADC_IRQHandler+0x1aa>
 8003fe4:	2f00      	cmp	r7, #0
 8003fe6:	d043      	beq.n	8004070 <HAL_ADC_IRQHandler+0x228>
 8003fe8:	f8d8 3008 	ldr.w	r3, [r8, #8]
 8003fec:	f413 4f60 	tst.w	r3, #57344	@ 0xe000
 8003ff0:	d00a      	beq.n	8004008 <HAL_ADC_IRQHandler+0x1c0>
 8003ff2:	6d63      	ldr	r3, [r4, #84]	@ 0x54
 8003ff4:	f443 6380 	orr.w	r3, r3, #1024	@ 0x400
 8003ff8:	6563      	str	r3, [r4, #84]	@ 0x54
 8003ffa:	6da3      	ldr	r3, [r4, #88]	@ 0x58
 8003ffc:	f043 0302 	orr.w	r3, r3, #2
 8004000:	65a3      	str	r3, [r4, #88]	@ 0x58
 8004002:	4620      	mov	r0, r4
 8004004:	f7ff ff1f 	bl	8003e46 <HAL_ADC_ErrorCallback>
 8004008:	6823      	ldr	r3, [r4, #0]
 800400a:	2210      	movs	r2, #16
 800400c:	601a      	str	r2, [r3, #0]
 800400e:	0572      	lsls	r2, r6, #21
 8004010:	d533      	bpl.n	800407a <HAL_ADC_IRQHandler+0x232>
 8004012:	056b      	lsls	r3, r5, #21
 8004014:	d531      	bpl.n	800407a <HAL_ADC_IRQHandler+0x232>
 8004016:	6d63      	ldr	r3, [r4, #84]	@ 0x54
 8004018:	f443 4380 	orr.w	r3, r3, #16384	@ 0x4000
 800401c:	6563      	str	r3, [r4, #84]	@ 0x54
 800401e:	6da3      	ldr	r3, [r4, #88]	@ 0x58
 8004020:	f043 0308 	orr.w	r3, r3, #8
 8004024:	65a3      	str	r3, [r4, #88]	@ 0x58
 8004026:	6823      	ldr	r3, [r4, #0]
 8004028:	f44f 6280 	mov.w	r2, #1024	@ 0x400
 800402c:	4620      	mov	r0, r4
 800402e:	601a      	str	r2, [r3, #0]
 8004030:	e8bd 41f0 	ldmia.w	sp!, {r4, r5, r6, r7, r8, lr}
 8004034:	f000 b9f5 	b.w	8004422 <HAL_ADCEx_InjectedQueueOverflowCallback>
 8004038:	4a12      	ldr	r2, [pc, #72]	@ (8004084 <HAL_ADC_IRQHandler+0x23c>)
 800403a:	68d2      	ldr	r2, [r2, #12]
 800403c:	e73f      	b.n	8003ebe <HAL_ADC_IRQHandler+0x76>
 800403e:	6d63      	ldr	r3, [r4, #84]	@ 0x54
 8004040:	f043 0310 	orr.w	r3, r3, #16
 8004044:	6563      	str	r3, [r4, #84]	@ 0x54
 8004046:	6da3      	ldr	r3, [r4, #88]	@ 0x58
 8004048:	f043 0301 	orr.w	r3, r3, #1
 800404c:	65a3      	str	r3, [r4, #88]	@ 0x58
 800404e:	e750      	b.n	8003ef2 <HAL_ADC_IRQHandler+0xaa>
 8004050:	68da      	ldr	r2, [r3, #12]
 8004052:	e773      	b.n	8003f3c <HAL_ADC_IRQHandler+0xf4>
 8004054:	6d63      	ldr	r3, [r4, #84]	@ 0x54
 8004056:	f043 0310 	orr.w	r3, r3, #16
 800405a:	6563      	str	r3, [r4, #84]	@ 0x54
 800405c:	6da3      	ldr	r3, [r4, #88]	@ 0x58
 800405e:	f043 0301 	orr.w	r3, r3, #1
 8004062:	65a3      	str	r3, [r4, #88]	@ 0x58
 8004064:	e786      	b.n	8003f74 <HAL_ADC_IRQHandler+0x12c>
 8004066:	6d63      	ldr	r3, [r4, #84]	@ 0x54
 8004068:	f043 0301 	orr.w	r3, r3, #1
 800406c:	6563      	str	r3, [r4, #84]	@ 0x54
 800406e:	e781      	b.n	8003f74 <HAL_ADC_IRQHandler+0x12c>
 8004070:	6823      	ldr	r3, [r4, #0]
 8004072:	68db      	ldr	r3, [r3, #12]
 8004074:	f013 0f01 	tst.w	r3, #1
 8004078:	e7ba      	b.n	8003ff0 <HAL_ADC_IRQHandler+0x1a8>
 800407a:	e8bd 81f0 	ldmia.w	sp!, {r4, r5, r6, r7, r8, pc}
 800407e:	bf00      	nop
 8004080:	50040100 	.word	0x50040100
 8004084:	50040000 	.word	0x50040000
 8004088:	50040300 	.word	0x50040300

0800408c <HAL_ADC_ConfigChannel>:
 800408c:	b5f7      	push	{r0, r1, r2, r4, r5, r6, r7, lr}
 800408e:	2300      	movs	r3, #0
 8004090:	9301      	str	r3, [sp, #4]
 8004092:	f890 3050 	ldrb.w	r3, [r0, #80]	@ 0x50
 8004096:	2b01      	cmp	r3, #1
 8004098:	4605      	mov	r5, r0
 800409a:	460e      	mov	r6, r1
 800409c:	f000 81b2 	beq.w	8004404 <HAL_ADC_ConfigChannel+0x378>
 80040a0:	6804      	ldr	r4, [r0, #0]
 80040a2:	2301      	movs	r3, #1
 80040a4:	f880 3050 	strb.w	r3, [r0, #80]	@ 0x50
 80040a8:	4620      	mov	r0, r4
 80040aa:	f7ff fdf3 	bl	8003c94 <LL_ADC_REG_IsConversionOngoing>
 80040ae:	2800      	cmp	r0, #0
 80040b0:	f040 81a2 	bne.w	80043f8 <HAL_ADC_ConfigChannel+0x36c>
 80040b4:	684b      	ldr	r3, [r1, #4]
 80040b6:	2b05      	cmp	r3, #5
 80040b8:	d806      	bhi.n	80040c8 <HAL_ADC_ConfigChannel+0x3c>
 80040ba:	3b02      	subs	r3, #2
 80040bc:	2b03      	cmp	r3, #3
 80040be:	bf9a      	itte	ls
 80040c0:	4ab9      	ldrls	r2, [pc, #740]	@ (80043a8 <HAL_ADC_ConfigChannel+0x31c>)
 80040c2:	f832 3013 	ldrhls.w	r3, [r2, r3, lsl #1]
 80040c6:	2306      	movhi	r3, #6
 80040c8:	0999      	lsrs	r1, r3, #6
 80040ca:	6832      	ldr	r2, [r6, #0]
 80040cc:	f001 010c 	and.w	r1, r1, #12
 80040d0:	f104 0730 	add.w	r7, r4, #48	@ 0x30
 80040d4:	f003 031f 	and.w	r3, r3, #31
 80040d8:	5878      	ldr	r0, [r7, r1]
 80040da:	f04f 0c1f 	mov.w	ip, #31
 80040de:	f3c2 6284 	ubfx	r2, r2, #26, #5
 80040e2:	409a      	lsls	r2, r3
 80040e4:	fa0c f303 	lsl.w	r3, ip, r3
 80040e8:	ea20 0303 	bic.w	r3, r0, r3
 80040ec:	431a      	orrs	r2, r3
 80040ee:	507a      	str	r2, [r7, r1]
 80040f0:	4620      	mov	r0, r4
 80040f2:	f7ff fdcf 	bl	8003c94 <LL_ADC_REG_IsConversionOngoing>
 80040f6:	68a2      	ldr	r2, [r4, #8]
 80040f8:	f002 0208 	and.w	r2, r2, #8
 80040fc:	4302      	orrs	r2, r0
 80040fe:	d125      	bne.n	800414c <HAL_ADC_ConfigChannel+0xc0>
 8004100:	68b3      	ldr	r3, [r6, #8]
 8004102:	6831      	ldr	r1, [r6, #0]
 8004104:	f1b3 4f00 	cmp.w	r3, #2147483648	@ 0x80000000
 8004108:	d15e      	bne.n	80041c8 <HAL_ADC_ConfigChannel+0x13c>
 800410a:	4620      	mov	r0, r4
 800410c:	f7ff fdae 	bl	8003c6c <LL_ADC_SetChannelSamplingTime>
 8004110:	6963      	ldr	r3, [r4, #20]
 8004112:	f043 4300 	orr.w	r3, r3, #2147483648	@ 0x80000000
 8004116:	6163      	str	r3, [r4, #20]
 8004118:	6937      	ldr	r7, [r6, #16]
 800411a:	6971      	ldr	r1, [r6, #20]
 800411c:	68e0      	ldr	r0, [r4, #12]
 800411e:	6833      	ldr	r3, [r6, #0]
 8004120:	2f04      	cmp	r7, #4
 8004122:	f104 0260 	add.w	r2, r4, #96	@ 0x60
 8004126:	d057      	beq.n	80041d8 <HAL_ADC_ConfigChannel+0x14c>
 8004128:	f3c0 00c1 	ubfx	r0, r0, #3, #2
 800412c:	0040      	lsls	r0, r0, #1
 800412e:	f852 c027 	ldr.w	ip, [r2, r7, lsl #2]
 8004132:	4081      	lsls	r1, r0
 8004134:	489d      	ldr	r0, [pc, #628]	@ (80043ac <HAL_ADC_ConfigChannel+0x320>)
 8004136:	f003 43f8 	and.w	r3, r3, #2080374784	@ 0x7c000000
 800413a:	ea0c 0000 	and.w	r0, ip, r0
 800413e:	4318      	orrs	r0, r3
 8004140:	ea41 0300 	orr.w	r3, r1, r0
 8004144:	f043 4300 	orr.w	r3, r3, #2147483648	@ 0x80000000
 8004148:	f842 3027 	str.w	r3, [r2, r7, lsl #2]
 800414c:	4620      	mov	r0, r4
 800414e:	f7ff fd9d 	bl	8003c8c <LL_ADC_IsEnabled>
 8004152:	bb70      	cbnz	r0, 80041b2 <HAL_ADC_ConfigChannel+0x126>
 8004154:	68f7      	ldr	r7, [r6, #12]
 8004156:	6833      	ldr	r3, [r6, #0]
 8004158:	4a95      	ldr	r2, [pc, #596]	@ (80043b0 <HAL_ADC_ConfigChannel+0x324>)
 800415a:	f8d4 10b0 	ldr.w	r1, [r4, #176]	@ 0xb0
 800415e:	f007 0c18 	and.w	ip, r7, #24
 8004162:	f3c3 0012 	ubfx	r0, r3, #0, #19
 8004166:	fa22 f20c 	lsr.w	r2, r2, ip
 800416a:	401a      	ands	r2, r3
 800416c:	ea21 0100 	bic.w	r1, r1, r0
 8004170:	430a      	orrs	r2, r1
 8004172:	f8c4 20b0 	str.w	r2, [r4, #176]	@ 0xb0
 8004176:	4a8f      	ldr	r2, [pc, #572]	@ (80043b4 <HAL_ADC_ConfigChannel+0x328>)
 8004178:	4297      	cmp	r7, r2
 800417a:	d11a      	bne.n	80041b2 <HAL_ADC_ConfigChannel+0x126>
 800417c:	2800      	cmp	r0, #0
 800417e:	f040 808a 	bne.w	8004296 <HAL_ADC_ConfigChannel+0x20a>
 8004182:	0e9a      	lsrs	r2, r3, #26
 8004184:	3201      	adds	r2, #1
 8004186:	f002 011f 	and.w	r1, r2, #31
 800418a:	2001      	movs	r0, #1
 800418c:	2909      	cmp	r1, #9
 800418e:	ea4f 6282 	mov.w	r2, r2, lsl #26
 8004192:	fa01 f300 	lsl.w	r3, r1, r0
 8004196:	f200 80a4 	bhi.w	80042e2 <HAL_ADC_ConfigChannel+0x256>
 800419a:	f002 42f8 	and.w	r2, r2, #2080374784	@ 0x7c000000
 800419e:	4088      	lsls	r0, r1
 80041a0:	4302      	orrs	r2, r0
 80041a2:	440b      	add	r3, r1
 80041a4:	051b      	lsls	r3, r3, #20
 80041a6:	ea43 0102 	orr.w	r1, r3, r2
 80041aa:	4620      	mov	r0, r4
 80041ac:	68b2      	ldr	r2, [r6, #8]
 80041ae:	f7ff fd5d 	bl	8003c6c <LL_ADC_SetChannelSamplingTime>
 80041b2:	6831      	ldr	r1, [r6, #0]
 80041b4:	4b80      	ldr	r3, [pc, #512]	@ (80043b8 <HAL_ADC_ConfigChannel+0x32c>)
 80041b6:	4219      	tst	r1, r3
 80041b8:	f040 80bf 	bne.w	800433a <HAL_ADC_ConfigChannel+0x2ae>
 80041bc:	2000      	movs	r0, #0
 80041be:	2300      	movs	r3, #0
 80041c0:	f885 3050 	strb.w	r3, [r5, #80]	@ 0x50
 80041c4:	b003      	add	sp, #12
 80041c6:	bdf0      	pop	{r4, r5, r6, r7, pc}
 80041c8:	461a      	mov	r2, r3
 80041ca:	4620      	mov	r0, r4
 80041cc:	f7ff fd4e 	bl	8003c6c <LL_ADC_SetChannelSamplingTime>
 80041d0:	6963      	ldr	r3, [r4, #20]
 80041d2:	f023 4300 	bic.w	r3, r3, #2147483648	@ 0x80000000
 80041d6:	e79e      	b.n	8004116 <HAL_ADC_ConfigChannel+0x8a>
 80041d8:	6e21      	ldr	r1, [r4, #96]	@ 0x60
 80041da:	6e21      	ldr	r1, [r4, #96]	@ 0x60
 80041dc:	f3c3 0012 	ubfx	r0, r3, #0, #19
 80041e0:	f3c1 6184 	ubfx	r1, r1, #26, #5
 80041e4:	2800      	cmp	r0, #0
 80041e6:	d139      	bne.n	800425c <HAL_ADC_ConfigChannel+0x1d0>
 80041e8:	f3c3 6384 	ubfx	r3, r3, #26, #5
 80041ec:	4299      	cmp	r1, r3
 80041ee:	bf02      	ittt	eq
 80041f0:	6e23      	ldreq	r3, [r4, #96]	@ 0x60
 80041f2:	f023 4300 	biceq.w	r3, r3, #2147483648	@ 0x80000000
 80041f6:	6623      	streq	r3, [r4, #96]	@ 0x60
 80041f8:	6e63      	ldr	r3, [r4, #100]	@ 0x64
 80041fa:	6833      	ldr	r3, [r6, #0]
 80041fc:	6e61      	ldr	r1, [r4, #100]	@ 0x64
 80041fe:	f3c3 0012 	ubfx	r0, r3, #0, #19
 8004202:	f3c1 6184 	ubfx	r1, r1, #26, #5
 8004206:	2800      	cmp	r0, #0
 8004208:	d12f      	bne.n	800426a <HAL_ADC_ConfigChannel+0x1de>
 800420a:	f3c3 6384 	ubfx	r3, r3, #26, #5
 800420e:	4299      	cmp	r1, r3
 8004210:	bf02      	ittt	eq
 8004212:	6e63      	ldreq	r3, [r4, #100]	@ 0x64
 8004214:	f023 4300 	biceq.w	r3, r3, #2147483648	@ 0x80000000
 8004218:	6663      	streq	r3, [r4, #100]	@ 0x64
 800421a:	6893      	ldr	r3, [r2, #8]
 800421c:	6833      	ldr	r3, [r6, #0]
 800421e:	6891      	ldr	r1, [r2, #8]
 8004220:	f3c3 0012 	ubfx	r0, r3, #0, #19
 8004224:	f3c1 6184 	ubfx	r1, r1, #26, #5
 8004228:	bb30      	cbnz	r0, 8004278 <HAL_ADC_ConfigChannel+0x1ec>
 800422a:	f3c3 6384 	ubfx	r3, r3, #26, #5
 800422e:	4299      	cmp	r1, r3
 8004230:	bf02      	ittt	eq
 8004232:	6893      	ldreq	r3, [r2, #8]
 8004234:	f023 4300 	biceq.w	r3, r3, #2147483648	@ 0x80000000
 8004238:	6093      	streq	r3, [r2, #8]
 800423a:	68d3      	ldr	r3, [r2, #12]
 800423c:	6833      	ldr	r3, [r6, #0]
 800423e:	68d1      	ldr	r1, [r2, #12]
 8004240:	f3c3 0012 	ubfx	r0, r3, #0, #19
 8004244:	f3c1 6184 	ubfx	r1, r1, #26, #5
 8004248:	b9e8      	cbnz	r0, 8004286 <HAL_ADC_ConfigChannel+0x1fa>
 800424a:	f3c3 6384 	ubfx	r3, r3, #26, #5
 800424e:	4299      	cmp	r1, r3
 8004250:	bf02      	ittt	eq
 8004252:	68d3      	ldreq	r3, [r2, #12]
 8004254:	f023 4300 	biceq.w	r3, r3, #2147483648	@ 0x80000000
 8004258:	60d3      	streq	r3, [r2, #12]
 800425a:	e777      	b.n	800414c <HAL_ADC_ConfigChannel+0xc0>
 800425c:	fa93 f3a3 	rbit	r3, r3
 8004260:	2b00      	cmp	r3, #0
 8004262:	d0c9      	beq.n	80041f8 <HAL_ADC_ConfigChannel+0x16c>
 8004264:	fab3 f383 	clz	r3, r3
 8004268:	e7c0      	b.n	80041ec <HAL_ADC_ConfigChannel+0x160>
 800426a:	fa93 f3a3 	rbit	r3, r3
 800426e:	2b00      	cmp	r3, #0
 8004270:	d0d3      	beq.n	800421a <HAL_ADC_ConfigChannel+0x18e>
 8004272:	fab3 f383 	clz	r3, r3
 8004276:	e7ca      	b.n	800420e <HAL_ADC_ConfigChannel+0x182>
 8004278:	fa93 f3a3 	rbit	r3, r3
 800427c:	2b00      	cmp	r3, #0
 800427e:	d0dc      	beq.n	800423a <HAL_ADC_ConfigChannel+0x1ae>
 8004280:	fab3 f383 	clz	r3, r3
 8004284:	e7d3      	b.n	800422e <HAL_ADC_ConfigChannel+0x1a2>
 8004286:	fa93 f3a3 	rbit	r3, r3
 800428a:	2b00      	cmp	r3, #0
 800428c:	f43f af5e 	beq.w	800414c <HAL_ADC_ConfigChannel+0xc0>
 8004290:	fab3 f383 	clz	r3, r3
 8004294:	e7db      	b.n	800424e <HAL_ADC_ConfigChannel+0x1c2>
 8004296:	fa93 f2a3 	rbit	r2, r3
 800429a:	b132      	cbz	r2, 80042aa <HAL_ADC_ConfigChannel+0x21e>
 800429c:	fab2 f282 	clz	r2, r2
 80042a0:	3201      	adds	r2, #1
 80042a2:	f002 021f 	and.w	r2, r2, #31
 80042a6:	2a09      	cmp	r2, #9
 80042a8:	d825      	bhi.n	80042f6 <HAL_ADC_ConfigChannel+0x26a>
 80042aa:	fa93 f1a3 	rbit	r1, r3
 80042ae:	fab1 f181 	clz	r1, r1
 80042b2:	3101      	adds	r1, #1
 80042b4:	0689      	lsls	r1, r1, #26
 80042b6:	f001 41f8 	and.w	r1, r1, #2080374784	@ 0x7c000000
 80042ba:	fa93 f0a3 	rbit	r0, r3
 80042be:	fab0 f080 	clz	r0, r0
 80042c2:	3001      	adds	r0, #1
 80042c4:	f000 001f 	and.w	r0, r0, #31
 80042c8:	2201      	movs	r2, #1
 80042ca:	4082      	lsls	r2, r0
 80042cc:	430a      	orrs	r2, r1
 80042ce:	fa93 f3a3 	rbit	r3, r3
 80042d2:	fab3 f383 	clz	r3, r3
 80042d6:	3301      	adds	r3, #1
 80042d8:	f003 031f 	and.w	r3, r3, #31
 80042dc:	eb03 0343 	add.w	r3, r3, r3, lsl #1
 80042e0:	e760      	b.n	80041a4 <HAL_ADC_ConfigChannel+0x118>
 80042e2:	4088      	lsls	r0, r1
 80042e4:	4419      	add	r1, r3
 80042e6:	391e      	subs	r1, #30
 80042e8:	f002 42f8 	and.w	r2, r2, #2080374784	@ 0x7c000000
 80042ec:	0509      	lsls	r1, r1, #20
 80042ee:	4302      	orrs	r2, r0
 80042f0:	f041 7300 	orr.w	r3, r1, #33554432	@ 0x2000000
 80042f4:	e757      	b.n	80041a6 <HAL_ADC_ConfigChannel+0x11a>
 80042f6:	fa93 f1a3 	rbit	r1, r3
 80042fa:	fab1 f181 	clz	r1, r1
 80042fe:	3101      	adds	r1, #1
 8004300:	0689      	lsls	r1, r1, #26
 8004302:	f001 41f8 	and.w	r1, r1, #2080374784	@ 0x7c000000
 8004306:	fa93 f0a3 	rbit	r0, r3
 800430a:	fab0 f080 	clz	r0, r0
 800430e:	3001      	adds	r0, #1
 8004310:	f000 001f 	and.w	r0, r0, #31
 8004314:	2201      	movs	r2, #1
 8004316:	4082      	lsls	r2, r0
 8004318:	430a      	orrs	r2, r1
 800431a:	fa93 f1a3 	rbit	r1, r3
 800431e:	fab1 f181 	clz	r1, r1
 8004322:	3101      	adds	r1, #1
 8004324:	f001 011f 	and.w	r1, r1, #31
 8004328:	2303      	movs	r3, #3
 800432a:	f06f 001d 	mvn.w	r0, #29
 800432e:	fb13 0301 	smlabb	r3, r3, r1, r0
 8004332:	051b      	lsls	r3, r3, #20
 8004334:	f043 7300 	orr.w	r3, r3, #33554432	@ 0x2000000
 8004338:	e735      	b.n	80041a6 <HAL_ADC_ConfigChannel+0x11a>
 800433a:	4b20      	ldr	r3, [pc, #128]	@ (80043bc <HAL_ADC_ConfigChannel+0x330>)
 800433c:	4e20      	ldr	r6, [pc, #128]	@ (80043c0 <HAL_ADC_ConfigChannel+0x334>)
 800433e:	689a      	ldr	r2, [r3, #8]
 8004340:	42b1      	cmp	r1, r6
 8004342:	f002 70e0 	and.w	r0, r2, #29360128	@ 0x1c00000
 8004346:	d11d      	bne.n	8004384 <HAL_ADC_ConfigChannel+0x2f8>
 8004348:	0216      	lsls	r6, r2, #8
 800434a:	f53f af37 	bmi.w	80041bc <HAL_ADC_ConfigChannel+0x130>
 800434e:	4a1d      	ldr	r2, [pc, #116]	@ (80043c4 <HAL_ADC_ConfigChannel+0x338>)
 8004350:	4294      	cmp	r4, r2
 8004352:	f47f af33 	bne.w	80041bc <HAL_ADC_ConfigChannel+0x130>
 8004356:	689a      	ldr	r2, [r3, #8]
 8004358:	f022 72e0 	bic.w	r2, r2, #29360128	@ 0x1c00000
 800435c:	4302      	orrs	r2, r0
 800435e:	f442 0200 	orr.w	r2, r2, #8388608	@ 0x800000
 8004362:	609a      	str	r2, [r3, #8]
 8004364:	4b18      	ldr	r3, [pc, #96]	@ (80043c8 <HAL_ADC_ConfigChannel+0x33c>)
 8004366:	681a      	ldr	r2, [r3, #0]
 8004368:	4b18      	ldr	r3, [pc, #96]	@ (80043cc <HAL_ADC_ConfigChannel+0x340>)
 800436a:	fbb2 f2f3 	udiv	r2, r2, r3
 800436e:	230c      	movs	r3, #12
 8004370:	fb02 3303 	mla	r3, r2, r3, r3
 8004374:	9301      	str	r3, [sp, #4]
 8004376:	9b01      	ldr	r3, [sp, #4]
 8004378:	2b00      	cmp	r3, #0
 800437a:	f43f af1f 	beq.w	80041bc <HAL_ADC_ConfigChannel+0x130>
 800437e:	9b01      	ldr	r3, [sp, #4]
 8004380:	3b01      	subs	r3, #1
 8004382:	e7f7      	b.n	8004374 <HAL_ADC_ConfigChannel+0x2e8>
 8004384:	4e12      	ldr	r6, [pc, #72]	@ (80043d0 <HAL_ADC_ConfigChannel+0x344>)
 8004386:	42b1      	cmp	r1, r6
 8004388:	d124      	bne.n	80043d4 <HAL_ADC_ConfigChannel+0x348>
 800438a:	01d1      	lsls	r1, r2, #7
 800438c:	f53f af16 	bmi.w	80041bc <HAL_ADC_ConfigChannel+0x130>
 8004390:	4a0c      	ldr	r2, [pc, #48]	@ (80043c4 <HAL_ADC_ConfigChannel+0x338>)
 8004392:	4294      	cmp	r4, r2
 8004394:	f47f af12 	bne.w	80041bc <HAL_ADC_ConfigChannel+0x130>
 8004398:	689a      	ldr	r2, [r3, #8]
 800439a:	f022 72e0 	bic.w	r2, r2, #29360128	@ 0x1c00000
 800439e:	4302      	orrs	r2, r0
 80043a0:	f042 7280 	orr.w	r2, r2, #16777216	@ 0x1000000
 80043a4:	609a      	str	r2, [r3, #8]
 80043a6:	e709      	b.n	80041bc <HAL_ADC_ConfigChannel+0x130>
 80043a8:	08006c2c 	.word	0x08006c2c
 80043ac:	03fff000 	.word	0x03fff000
 80043b0:	0007ffff 	.word	0x0007ffff
 80043b4:	407f0000 	.word	0x407f0000
 80043b8:	80080000 	.word	0x80080000
 80043bc:	50040300 	.word	0x50040300
 80043c0:	c7520000 	.word	0xc7520000
 80043c4:	50040000 	.word	0x50040000
 80043c8:	20000000 	.word	0x20000000
 80043cc:	00030d40 	.word	0x00030d40
 80043d0:	cb840000 	.word	0xcb840000
 80043d4:	4e0c      	ldr	r6, [pc, #48]	@ (8004408 <HAL_ADC_ConfigChannel+0x37c>)
 80043d6:	42b1      	cmp	r1, r6
 80043d8:	f47f aef0 	bne.w	80041bc <HAL_ADC_ConfigChannel+0x130>
 80043dc:	0252      	lsls	r2, r2, #9
 80043de:	f53f aeed 	bmi.w	80041bc <HAL_ADC_ConfigChannel+0x130>
 80043e2:	4a0a      	ldr	r2, [pc, #40]	@ (800440c <HAL_ADC_ConfigChannel+0x380>)
 80043e4:	4294      	cmp	r4, r2
 80043e6:	f47f aee9 	bne.w	80041bc <HAL_ADC_ConfigChannel+0x130>
 80043ea:	689a      	ldr	r2, [r3, #8]
 80043ec:	f022 72e0 	bic.w	r2, r2, #29360128	@ 0x1c00000
 80043f0:	4302      	orrs	r2, r0
 80043f2:	f442 0280 	orr.w	r2, r2, #4194304	@ 0x400000
 80043f6:	e7d5      	b.n	80043a4 <HAL_ADC_ConfigChannel+0x318>
 80043f8:	6d6a      	ldr	r2, [r5, #84]	@ 0x54
 80043fa:	f042 0220 	orr.w	r2, r2, #32
 80043fe:	656a      	str	r2, [r5, #84]	@ 0x54
 8004400:	4618      	mov	r0, r3
 8004402:	e6dc      	b.n	80041be <HAL_ADC_ConfigChannel+0x132>
 8004404:	2002      	movs	r0, #2
 8004406:	e6dd      	b.n	80041c4 <HAL_ADC_ConfigChannel+0x138>
 8004408:	80000001 	.word	0x80000001
 800440c:	50040000 	.word	0x50040000

08004410 <LL_ADC_IsEnabled>:
 8004410:	6880      	ldr	r0, [r0, #8]
 8004412:	f000 0001 	and.w	r0, r0, #1
 8004416:	4770      	bx	lr

08004418 <LL_ADC_REG_IsConversionOngoing>:
 8004418:	6880      	ldr	r0, [r0, #8]
 800441a:	f3c0 0080 	ubfx	r0, r0, #2, #1
 800441e:	4770      	bx	lr

08004420 <HAL_ADCEx_InjectedConvCpltCallback>:
 8004420:	4770      	bx	lr

08004422 <HAL_ADCEx_InjectedQueueOverflowCallback>:
 8004422:	4770      	bx	lr

08004424 <HAL_ADCEx_LevelOutOfWindow2Callback>:
 8004424:	4770      	bx	lr

08004426 <HAL_ADCEx_LevelOutOfWindow3Callback>:
 8004426:	4770      	bx	lr

08004428 <HAL_ADCEx_EndOfSamplingCallback>:
 8004428:	4770      	bx	lr
	...

0800442c <HAL_ADCEx_MultiModeConfigChannel>:
 800442c:	b570      	push	{r4, r5, r6, lr}
 800442e:	f890 2050 	ldrb.w	r2, [r0, #80]	@ 0x50
 8004432:	2a01      	cmp	r2, #1
 8004434:	b09a      	sub	sp, #104	@ 0x68
 8004436:	4603      	mov	r3, r0
 8004438:	d059      	beq.n	80044ee <HAL_ADCEx_MultiModeConfigChannel+0xc2>
 800443a:	2201      	movs	r2, #1
 800443c:	f880 2050 	strb.w	r2, [r0, #80]	@ 0x50
 8004440:	681d      	ldr	r5, [r3, #0]
 8004442:	4c2c      	ldr	r4, [pc, #176]	@ (80044f4 <HAL_ADCEx_MultiModeConfigChannel+0xc8>)
 8004444:	2000      	movs	r0, #0
 8004446:	42a5      	cmp	r5, r4
 8004448:	9016      	str	r0, [sp, #88]	@ 0x58
 800444a:	9017      	str	r0, [sp, #92]	@ 0x5c
 800444c:	d10e      	bne.n	800446c <HAL_ADCEx_MultiModeConfigChannel+0x40>
 800444e:	482a      	ldr	r0, [pc, #168]	@ (80044f8 <HAL_ADCEx_MultiModeConfigChannel+0xcc>)
 8004450:	f7ff ffe2 	bl	8004418 <LL_ADC_REG_IsConversionOngoing>
 8004454:	4604      	mov	r4, r0
 8004456:	4628      	mov	r0, r5
 8004458:	f7ff ffde 	bl	8004418 <LL_ADC_REG_IsConversionOngoing>
 800445c:	4320      	orrs	r0, r4
 800445e:	d00e      	beq.n	800447e <HAL_ADCEx_MultiModeConfigChannel+0x52>
 8004460:	6d59      	ldr	r1, [r3, #84]	@ 0x54
 8004462:	f041 0120 	orr.w	r1, r1, #32
 8004466:	6559      	str	r1, [r3, #84]	@ 0x54
 8004468:	4610      	mov	r0, r2
 800446a:	e028      	b.n	80044be <HAL_ADCEx_MultiModeConfigChannel+0x92>
 800446c:	6d59      	ldr	r1, [r3, #84]	@ 0x54
 800446e:	f883 0050 	strb.w	r0, [r3, #80]	@ 0x50
 8004472:	f041 0120 	orr.w	r1, r1, #32
 8004476:	6559      	str	r1, [r3, #84]	@ 0x54
 8004478:	4610      	mov	r0, r2
 800447a:	b01a      	add	sp, #104	@ 0x68
 800447c:	bd70      	pop	{r4, r5, r6, pc}
 800447e:	680c      	ldr	r4, [r1, #0]
 8004480:	4a1e      	ldr	r2, [pc, #120]	@ (80044fc <HAL_ADCEx_MultiModeConfigChannel+0xd0>)
 8004482:	b304      	cbz	r4, 80044c6 <HAL_ADCEx_MultiModeConfigChannel+0x9a>
 8004484:	6890      	ldr	r0, [r2, #8]
 8004486:	684e      	ldr	r6, [r1, #4]
 8004488:	f420 4060 	bic.w	r0, r0, #57344	@ 0xe000
 800448c:	4330      	orrs	r0, r6
 800448e:	f893 6030 	ldrb.w	r6, [r3, #48]	@ 0x30
 8004492:	ea40 3046 	orr.w	r0, r0, r6, lsl #13
 8004496:	6090      	str	r0, [r2, #8]
 8004498:	4628      	mov	r0, r5
 800449a:	f7ff ffb9 	bl	8004410 <LL_ADC_IsEnabled>
 800449e:	4605      	mov	r5, r0
 80044a0:	4815      	ldr	r0, [pc, #84]	@ (80044f8 <HAL_ADCEx_MultiModeConfigChannel+0xcc>)
 80044a2:	f7ff ffb5 	bl	8004410 <LL_ADC_IsEnabled>
 80044a6:	4305      	orrs	r5, r0
 80044a8:	d108      	bne.n	80044bc <HAL_ADCEx_MultiModeConfigChannel+0x90>
 80044aa:	6889      	ldr	r1, [r1, #8]
 80044ac:	6890      	ldr	r0, [r2, #8]
 80044ae:	430c      	orrs	r4, r1
 80044b0:	f420 6171 	bic.w	r1, r0, #3856	@ 0xf10
 80044b4:	f021 010f 	bic.w	r1, r1, #15
 80044b8:	430c      	orrs	r4, r1
 80044ba:	6094      	str	r4, [r2, #8]
 80044bc:	2000      	movs	r0, #0
 80044be:	2200      	movs	r2, #0
 80044c0:	f883 2050 	strb.w	r2, [r3, #80]	@ 0x50
 80044c4:	e7d9      	b.n	800447a <HAL_ADCEx_MultiModeConfigChannel+0x4e>
 80044c6:	6891      	ldr	r1, [r2, #8]
 80044c8:	f421 4160 	bic.w	r1, r1, #57344	@ 0xe000
 80044cc:	6091      	str	r1, [r2, #8]
 80044ce:	4628      	mov	r0, r5
 80044d0:	f7ff ff9e 	bl	8004410 <LL_ADC_IsEnabled>
 80044d4:	4601      	mov	r1, r0
 80044d6:	4808      	ldr	r0, [pc, #32]	@ (80044f8 <HAL_ADCEx_MultiModeConfigChannel+0xcc>)
 80044d8:	f7ff ff9a 	bl	8004410 <LL_ADC_IsEnabled>
 80044dc:	4301      	orrs	r1, r0
 80044de:	d1ed      	bne.n	80044bc <HAL_ADCEx_MultiModeConfigChannel+0x90>
 80044e0:	6891      	ldr	r1, [r2, #8]
 80044e2:	f421 6171 	bic.w	r1, r1, #3856	@ 0xf10
 80044e6:	f021 010f 	bic.w	r1, r1, #15
 80044ea:	6091      	str	r1, [r2, #8]
 80044ec:	e7e6      	b.n	80044bc <HAL_ADCEx_MultiModeConfigChannel+0x90>
 80044ee:	2002      	movs	r0, #2
 80044f0:	e7c3      	b.n	800447a <HAL_ADCEx_MultiModeConfigChannel+0x4e>
 80044f2:	bf00      	nop
 80044f4:	50040000 	.word	0x50040000
 80044f8:	50040100 	.word	0x50040100
 80044fc:	50040300 	.word	0x50040300

08004500 <HAL_NVIC_SetPriorityGrouping>:
 8004500:	4907      	ldr	r1, [pc, #28]	@ (8004520 <HAL_NVIC_SetPriorityGrouping+0x20>)
 8004502:	68ca      	ldr	r2, [r1, #12]
 8004504:	f422 62e0 	bic.w	r2, r2, #1792	@ 0x700
 8004508:	0203      	lsls	r3, r0, #8
 800450a:	0412      	lsls	r2, r2, #16
 800450c:	f403 63e0 	and.w	r3, r3, #1792	@ 0x700
 8004510:	0c12      	lsrs	r2, r2, #16
 8004512:	4313      	orrs	r3, r2
 8004514:	f043 63bf 	orr.w	r3, r3, #100139008	@ 0x5f80000
 8004518:	f443 3300 	orr.w	r3, r3, #131072	@ 0x20000
 800451c:	60cb      	str	r3, [r1, #12]
 800451e:	4770      	bx	lr
 8004520:	e000ed00 	.word	0xe000ed00

08004524 <HAL_NVIC_SetPriority>:
 8004524:	4b16      	ldr	r3, [pc, #88]	@ (8004580 <HAL_NVIC_SetPriority+0x5c>)
 8004526:	b530      	push	{r4, r5, lr}
 8004528:	68dc      	ldr	r4, [r3, #12]
 800452a:	f3c4 2402 	ubfx	r4, r4, #8, #3
 800452e:	f1c4 0307 	rsb	r3, r4, #7
 8004532:	1d25      	adds	r5, r4, #4
 8004534:	2b04      	cmp	r3, #4
 8004536:	bf28      	it	cs
 8004538:	2304      	movcs	r3, #4
 800453a:	2d06      	cmp	r5, #6
 800453c:	f04f 35ff 	mov.w	r5, #4294967295
 8004540:	bf8c      	ite	hi
 8004542:	3c03      	subhi	r4, #3
 8004544:	2400      	movls	r4, #0
 8004546:	fa05 f303 	lsl.w	r3, r5, r3
 800454a:	ea21 0303 	bic.w	r3, r1, r3
 800454e:	40a5      	lsls	r5, r4
 8004550:	ea22 0205 	bic.w	r2, r2, r5
 8004554:	40a3      	lsls	r3, r4
 8004556:	2800      	cmp	r0, #0
 8004558:	ea43 0302 	orr.w	r3, r3, r2
 800455c:	bfac      	ite	ge
 800455e:	f100 4060 	addge.w	r0, r0, #3758096384	@ 0xe0000000
 8004562:	4a08      	ldrlt	r2, [pc, #32]	@ (8004584 <HAL_NVIC_SetPriority+0x60>)
 8004564:	ea4f 1303 	mov.w	r3, r3, lsl #4
 8004568:	bfb8      	it	lt
 800456a:	f000 000f 	andlt.w	r0, r0, #15
 800456e:	b2db      	uxtb	r3, r3
 8004570:	bfaa      	itet	ge
 8004572:	f500 4061 	addge.w	r0, r0, #57600	@ 0xe100
 8004576:	5413      	strblt	r3, [r2, r0]
 8004578:	f880 3300 	strbge.w	r3, [r0, #768]	@ 0x300
 800457c:	bd30      	pop	{r4, r5, pc}
 800457e:	bf00      	nop
 8004580:	e000ed00 	.word	0xe000ed00
 8004584:	e000ed14 	.word	0xe000ed14

08004588 <HAL_NVIC_EnableIRQ>:
 8004588:	2800      	cmp	r0, #0
 800458a:	db07      	blt.n	800459c <HAL_NVIC_EnableIRQ+0x14>
 800458c:	4a04      	ldr	r2, [pc, #16]	@ (80045a0 <HAL_NVIC_EnableIRQ+0x18>)
 800458e:	0941      	lsrs	r1, r0, #5
 8004590:	2301      	movs	r3, #1
 8004592:	f000 001f 	and.w	r0, r0, #31
 8004596:	4083      	lsls	r3, r0
 8004598:	f842 3021 	str.w	r3, [r2, r1, lsl #2]
 800459c:	4770      	bx	lr
 800459e:	bf00      	nop
 80045a0:	e000e100 	.word	0xe000e100

080045a4 <HAL_NVIC_DisableIRQ>:
 80045a4:	2800      	cmp	r0, #0
 80045a6:	db0c      	blt.n	80045c2 <HAL_NVIC_DisableIRQ+0x1e>
 80045a8:	0943      	lsrs	r3, r0, #5
 80045aa:	4906      	ldr	r1, [pc, #24]	@ (80045c4 <HAL_NVIC_DisableIRQ+0x20>)
 80045ac:	f000 001f 	and.w	r0, r0, #31
 80045b0:	3320      	adds	r3, #32
 80045b2:	2201      	movs	r2, #1
 80045b4:	4082      	lsls	r2, r0
 80045b6:	f841 2023 	str.w	r2, [r1, r3, lsl #2]
 80045ba:	f3bf 8f4f 	dsb	sy
 80045be:	f3bf 8f6f 	isb	sy
 80045c2:	4770      	bx	lr
 80045c4:	e000e100 	.word	0xe000e100

080045c8 <HAL_SYSTICK_Config>:
 80045c8:	3801      	subs	r0, #1
 80045ca:	f1b0 7f80 	cmp.w	r0, #16777216	@ 0x1000000
 80045ce:	d20b      	bcs.n	80045e8 <HAL_SYSTICK_Config+0x20>
 80045d0:	f04f 23e0 	mov.w	r3, #3758153728	@ 0xe000e000
 80045d4:	4a05      	ldr	r2, [pc, #20]	@ (80045ec <HAL_SYSTICK_Config+0x24>)
 80045d6:	6158      	str	r0, [r3, #20]
 80045d8:	21f0      	movs	r1, #240	@ 0xf0
 80045da:	f882 1023 	strb.w	r1, [r2, #35]	@ 0x23
 80045de:	2000      	movs	r0, #0
 80045e0:	2207      	movs	r2, #7
 80045e2:	6198      	str	r0, [r3, #24]
 80045e4:	611a      	str	r2, [r3, #16]
 80045e6:	4770      	bx	lr
 80045e8:	2001      	movs	r0, #1
 80045ea:	4770      	bx	lr
 80045ec:	e000ed00 	.word	0xe000ed00

080045f0 <HAL_DMA_Init>:
 80045f0:	b5f0      	push	{r4, r5, r6, r7, lr}
 80045f2:	4603      	mov	r3, r0
 80045f4:	2800      	cmp	r0, #0
 80045f6:	d054      	beq.n	80046a2 <HAL_DMA_Init+0xb2>
 80045f8:	6804      	ldr	r4, [r0, #0]
 80045fa:	4a2b      	ldr	r2, [pc, #172]	@ (80046a8 <HAL_DMA_Init+0xb8>)
 80045fc:	4294      	cmp	r4, r2
 80045fe:	f04f 0114 	mov.w	r1, #20
 8004602:	d83c      	bhi.n	800467e <HAL_DMA_Init+0x8e>
 8004604:	4a29      	ldr	r2, [pc, #164]	@ (80046ac <HAL_DMA_Init+0xbc>)
 8004606:	482a      	ldr	r0, [pc, #168]	@ (80046b0 <HAL_DMA_Init+0xc0>)
 8004608:	4422      	add	r2, r4
 800460a:	fbb2 f2f1 	udiv	r2, r2, r1
 800460e:	0092      	lsls	r2, r2, #2
 8004610:	2102      	movs	r1, #2
 8004612:	f883 1025 	strb.w	r1, [r3, #37]	@ 0x25
 8004616:	e9d3 6102 	ldrd	r6, r1, [r3, #8]
 800461a:	691f      	ldr	r7, [r3, #16]
 800461c:	6825      	ldr	r5, [r4, #0]
 800461e:	4331      	orrs	r1, r6
 8004620:	4339      	orrs	r1, r7
 8004622:	695f      	ldr	r7, [r3, #20]
 8004624:	4339      	orrs	r1, r7
 8004626:	699f      	ldr	r7, [r3, #24]
 8004628:	4339      	orrs	r1, r7
 800462a:	69df      	ldr	r7, [r3, #28]
 800462c:	4339      	orrs	r1, r7
 800462e:	6a1f      	ldr	r7, [r3, #32]
 8004630:	f36f 150e 	bfc	r5, #4, #11
 8004634:	4339      	orrs	r1, r7
 8004636:	4329      	orrs	r1, r5
 8004638:	f5b6 4f80 	cmp.w	r6, #16384	@ 0x4000
 800463c:	e9c3 0210 	strd	r0, r2, [r3, #64]	@ 0x40
 8004640:	6021      	str	r1, [r4, #0]
 8004642:	d014      	beq.n	800466e <HAL_DMA_Init+0x7e>
 8004644:	685c      	ldr	r4, [r3, #4]
 8004646:	f002 021c 	and.w	r2, r2, #28
 800464a:	210f      	movs	r1, #15
 800464c:	4091      	lsls	r1, r2
 800464e:	4094      	lsls	r4, r2
 8004650:	4a17      	ldr	r2, [pc, #92]	@ (80046b0 <HAL_DMA_Init+0xc0>)
 8004652:	4290      	cmp	r0, r2
 8004654:	ea6f 0101 	mvn.w	r1, r1
 8004658:	d118      	bne.n	800468c <HAL_DMA_Init+0x9c>
 800465a:	f8d0 20a8 	ldr.w	r2, [r0, #168]	@ 0xa8
 800465e:	400a      	ands	r2, r1
 8004660:	f8c0 20a8 	str.w	r2, [r0, #168]	@ 0xa8
 8004664:	f8d0 20a8 	ldr.w	r2, [r0, #168]	@ 0xa8
 8004668:	4322      	orrs	r2, r4
 800466a:	f8c0 20a8 	str.w	r2, [r0, #168]	@ 0xa8
 800466e:	2000      	movs	r0, #0
 8004670:	2201      	movs	r2, #1
 8004672:	63d8      	str	r0, [r3, #60]	@ 0x3c
 8004674:	f883 0024 	strb.w	r0, [r3, #36]	@ 0x24
 8004678:	f883 2025 	strb.w	r2, [r3, #37]	@ 0x25
 800467c:	bdf0      	pop	{r4, r5, r6, r7, pc}
 800467e:	4a0d      	ldr	r2, [pc, #52]	@ (80046b4 <HAL_DMA_Init+0xc4>)
 8004680:	480d      	ldr	r0, [pc, #52]	@ (80046b8 <HAL_DMA_Init+0xc8>)
 8004682:	4422      	add	r2, r4
 8004684:	fbb2 f2f1 	udiv	r2, r2, r1
 8004688:	0092      	lsls	r2, r2, #2
 800468a:	e7c1      	b.n	8004610 <HAL_DMA_Init+0x20>
 800468c:	f8d2 04a8 	ldr.w	r0, [r2, #1192]	@ 0x4a8
 8004690:	4001      	ands	r1, r0
 8004692:	f8c2 14a8 	str.w	r1, [r2, #1192]	@ 0x4a8
 8004696:	f8d2 14a8 	ldr.w	r1, [r2, #1192]	@ 0x4a8
 800469a:	4321      	orrs	r1, r4
 800469c:	f8c2 14a8 	str.w	r1, [r2, #1192]	@ 0x4a8
 80046a0:	e7e5      	b.n	800466e <HAL_DMA_Init+0x7e>
 80046a2:	2001      	movs	r0, #1
 80046a4:	e7ea      	b.n	800467c <HAL_DMA_Init+0x8c>
 80046a6:	bf00      	nop
 80046a8:	40020407 	.word	0x40020407
 80046ac:	bffdfff8 	.word	0xbffdfff8
 80046b0:	40020000 	.word	0x40020000
 80046b4:	bffdfbf8 	.word	0xbffdfbf8
 80046b8:	40020400 	.word	0x40020400

080046bc <HAL_DMA_Start_IT>:
 80046bc:	b5f0      	push	{r4, r5, r6, r7, lr}
 80046be:	f890 4024 	ldrb.w	r4, [r0, #36]	@ 0x24
 80046c2:	2c01      	cmp	r4, #1
 80046c4:	d036      	beq.n	8004734 <HAL_DMA_Start_IT+0x78>
 80046c6:	2401      	movs	r4, #1
 80046c8:	f880 4024 	strb.w	r4, [r0, #36]	@ 0x24
 80046cc:	f890 4025 	ldrb.w	r4, [r0, #37]	@ 0x25
 80046d0:	2c01      	cmp	r4, #1
 80046d2:	b2e5      	uxtb	r5, r4
 80046d4:	f04f 0400 	mov.w	r4, #0
 80046d8:	d12a      	bne.n	8004730 <HAL_DMA_Start_IT+0x74>
 80046da:	2602      	movs	r6, #2
 80046dc:	f880 6025 	strb.w	r6, [r0, #37]	@ 0x25
 80046e0:	63c4      	str	r4, [r0, #60]	@ 0x3c
 80046e2:	6804      	ldr	r4, [r0, #0]
 80046e4:	6826      	ldr	r6, [r4, #0]
 80046e6:	f026 0601 	bic.w	r6, r6, #1
 80046ea:	6026      	str	r6, [r4, #0]
 80046ec:	e9d0 6710 	ldrd	r6, r7, [r0, #64]	@ 0x40
 80046f0:	f007 071c 	and.w	r7, r7, #28
 80046f4:	40bd      	lsls	r5, r7
 80046f6:	6075      	str	r5, [r6, #4]
 80046f8:	6063      	str	r3, [r4, #4]
 80046fa:	6883      	ldr	r3, [r0, #8]
 80046fc:	2b10      	cmp	r3, #16
 80046fe:	6b03      	ldr	r3, [r0, #48]	@ 0x30
 8004700:	bf0b      	itete	eq
 8004702:	60a2      	streq	r2, [r4, #8]
 8004704:	60a1      	strne	r1, [r4, #8]
 8004706:	60e1      	streq	r1, [r4, #12]
 8004708:	60e2      	strne	r2, [r4, #12]
 800470a:	b14b      	cbz	r3, 8004720 <HAL_DMA_Start_IT+0x64>
 800470c:	6823      	ldr	r3, [r4, #0]
 800470e:	f043 030e 	orr.w	r3, r3, #14
 8004712:	6023      	str	r3, [r4, #0]
 8004714:	6823      	ldr	r3, [r4, #0]
 8004716:	f043 0301 	orr.w	r3, r3, #1
 800471a:	6023      	str	r3, [r4, #0]
 800471c:	2000      	movs	r0, #0
 800471e:	bdf0      	pop	{r4, r5, r6, r7, pc}
 8004720:	6823      	ldr	r3, [r4, #0]
 8004722:	f023 0304 	bic.w	r3, r3, #4
 8004726:	6023      	str	r3, [r4, #0]
 8004728:	6823      	ldr	r3, [r4, #0]
 800472a:	f043 030a 	orr.w	r3, r3, #10
 800472e:	e7f0      	b.n	8004712 <HAL_DMA_Start_IT+0x56>
 8004730:	f880 4024 	strb.w	r4, [r0, #36]	@ 0x24
 8004734:	2002      	movs	r0, #2
 8004736:	e7f2      	b.n	800471e <HAL_DMA_Start_IT+0x62>

08004738 <HAL_DMA_Abort>:
 8004738:	f890 2025 	ldrb.w	r2, [r0, #37]	@ 0x25
 800473c:	2a02      	cmp	r2, #2
 800473e:	4603      	mov	r3, r0
 8004740:	d006      	beq.n	8004750 <HAL_DMA_Abort+0x18>
 8004742:	2204      	movs	r2, #4
 8004744:	63c2      	str	r2, [r0, #60]	@ 0x3c
 8004746:	2001      	movs	r0, #1
 8004748:	2200      	movs	r2, #0
 800474a:	f883 2024 	strb.w	r2, [r3, #36]	@ 0x24
 800474e:	4770      	bx	lr
 8004750:	6802      	ldr	r2, [r0, #0]
 8004752:	6811      	ldr	r1, [r2, #0]
 8004754:	f021 010e 	bic.w	r1, r1, #14
 8004758:	6011      	str	r1, [r2, #0]
 800475a:	6811      	ldr	r1, [r2, #0]
 800475c:	f021 0101 	bic.w	r1, r1, #1
 8004760:	6011      	str	r1, [r2, #0]
 8004762:	e9d0 0210 	ldrd	r0, r2, [r0, #64]	@ 0x40
 8004766:	2101      	movs	r1, #1
 8004768:	f002 021c 	and.w	r2, r2, #28
 800476c:	fa01 f202 	lsl.w	r2, r1, r2
 8004770:	6042      	str	r2, [r0, #4]
 8004772:	f883 1025 	strb.w	r1, [r3, #37]	@ 0x25
 8004776:	2000      	movs	r0, #0
 8004778:	e7e6      	b.n	8004748 <HAL_DMA_Abort+0x10>

0800477a <HAL_DMA_Abort_IT>:
 800477a:	b510      	push	{r4, lr}
 800477c:	f890 2025 	ldrb.w	r2, [r0, #37]	@ 0x25
 8004780:	2a02      	cmp	r2, #2
 8004782:	d003      	beq.n	800478c <HAL_DMA_Abort_IT+0x12>
 8004784:	2204      	movs	r2, #4
 8004786:	63c2      	str	r2, [r0, #60]	@ 0x3c
 8004788:	2001      	movs	r0, #1
 800478a:	bd10      	pop	{r4, pc}
 800478c:	6802      	ldr	r2, [r0, #0]
 800478e:	6b83      	ldr	r3, [r0, #56]	@ 0x38
 8004790:	6811      	ldr	r1, [r2, #0]
 8004792:	f021 010e 	bic.w	r1, r1, #14
 8004796:	6011      	str	r1, [r2, #0]
 8004798:	6811      	ldr	r1, [r2, #0]
 800479a:	f021 0101 	bic.w	r1, r1, #1
 800479e:	6011      	str	r1, [r2, #0]
 80047a0:	e9d0 4210 	ldrd	r4, r2, [r0, #64]	@ 0x40
 80047a4:	2101      	movs	r1, #1
 80047a6:	f002 021c 	and.w	r2, r2, #28
 80047aa:	fa01 f202 	lsl.w	r2, r1, r2
 80047ae:	6062      	str	r2, [r4, #4]
 80047b0:	2200      	movs	r2, #0
 80047b2:	f880 1025 	strb.w	r1, [r0, #37]	@ 0x25
 80047b6:	f880 2024 	strb.w	r2, [r0, #36]	@ 0x24
 80047ba:	b103      	cbz	r3, 80047be <HAL_DMA_Abort_IT+0x44>
 80047bc:	4798      	blx	r3
 80047be:	2000      	movs	r0, #0
 80047c0:	e7e3      	b.n	800478a <HAL_DMA_Abort_IT+0x10>

080047c2 <HAL_DMA_IRQHandler>:
 80047c2:	6c01      	ldr	r1, [r0, #64]	@ 0x40
 80047c4:	6c42      	ldr	r2, [r0, #68]	@ 0x44
 80047c6:	6803      	ldr	r3, [r0, #0]
 80047c8:	b470      	push	{r4, r5, r6}
 80047ca:	f002 021c 	and.w	r2, r2, #28
 80047ce:	680e      	ldr	r6, [r1, #0]
 80047d0:	681d      	ldr	r5, [r3, #0]
 80047d2:	2404      	movs	r4, #4
 80047d4:	4094      	lsls	r4, r2
 80047d6:	4234      	tst	r4, r6
 80047d8:	d00e      	beq.n	80047f8 <HAL_DMA_IRQHandler+0x36>
 80047da:	f015 0f04 	tst.w	r5, #4
 80047de:	d00b      	beq.n	80047f8 <HAL_DMA_IRQHandler+0x36>
 80047e0:	681a      	ldr	r2, [r3, #0]
 80047e2:	0692      	lsls	r2, r2, #26
 80047e4:	bf5e      	ittt	pl
 80047e6:	681a      	ldrpl	r2, [r3, #0]
 80047e8:	f022 0204 	bicpl.w	r2, r2, #4
 80047ec:	601a      	strpl	r2, [r3, #0]
 80047ee:	6b03      	ldr	r3, [r0, #48]	@ 0x30
 80047f0:	604c      	str	r4, [r1, #4]
 80047f2:	b373      	cbz	r3, 8004852 <HAL_DMA_IRQHandler+0x90>
 80047f4:	bc70      	pop	{r4, r5, r6}
 80047f6:	4718      	bx	r3
 80047f8:	2402      	movs	r4, #2
 80047fa:	4094      	lsls	r4, r2
 80047fc:	4234      	tst	r4, r6
 80047fe:	d012      	beq.n	8004826 <HAL_DMA_IRQHandler+0x64>
 8004800:	f015 0f02 	tst.w	r5, #2
 8004804:	d00f      	beq.n	8004826 <HAL_DMA_IRQHandler+0x64>
 8004806:	681a      	ldr	r2, [r3, #0]
 8004808:	0695      	lsls	r5, r2, #26
 800480a:	d406      	bmi.n	800481a <HAL_DMA_IRQHandler+0x58>
 800480c:	681a      	ldr	r2, [r3, #0]
 800480e:	f022 020a 	bic.w	r2, r2, #10
 8004812:	601a      	str	r2, [r3, #0]
 8004814:	2301      	movs	r3, #1
 8004816:	f880 3025 	strb.w	r3, [r0, #37]	@ 0x25
 800481a:	2300      	movs	r3, #0
 800481c:	604c      	str	r4, [r1, #4]
 800481e:	f880 3024 	strb.w	r3, [r0, #36]	@ 0x24
 8004822:	6ac3      	ldr	r3, [r0, #44]	@ 0x2c
 8004824:	e7e5      	b.n	80047f2 <HAL_DMA_IRQHandler+0x30>
 8004826:	2408      	movs	r4, #8
 8004828:	4094      	lsls	r4, r2
 800482a:	4234      	tst	r4, r6
 800482c:	d011      	beq.n	8004852 <HAL_DMA_IRQHandler+0x90>
 800482e:	072c      	lsls	r4, r5, #28
 8004830:	d50f      	bpl.n	8004852 <HAL_DMA_IRQHandler+0x90>
 8004832:	681c      	ldr	r4, [r3, #0]
 8004834:	f024 040e 	bic.w	r4, r4, #14
 8004838:	601c      	str	r4, [r3, #0]
 800483a:	2301      	movs	r3, #1
 800483c:	fa03 f202 	lsl.w	r2, r3, r2
 8004840:	604a      	str	r2, [r1, #4]
 8004842:	63c3      	str	r3, [r0, #60]	@ 0x3c
 8004844:	f880 3025 	strb.w	r3, [r0, #37]	@ 0x25
 8004848:	2300      	movs	r3, #0
 800484a:	f880 3024 	strb.w	r3, [r0, #36]	@ 0x24
 800484e:	6b43      	ldr	r3, [r0, #52]	@ 0x34
 8004850:	e7cf      	b.n	80047f2 <HAL_DMA_IRQHandler+0x30>
 8004852:	bc70      	pop	{r4, r5, r6}
 8004854:	4770      	bx	lr

08004856 <HAL_DMA_GetError>:
 8004856:	6bc0      	ldr	r0, [r0, #60]	@ 0x3c
 8004858:	4770      	bx	lr
	...

0800485c <HAL_GPIO_Init>:
 800485c:	e92d 4ff7 	stmdb	sp!, {r0, r1, r2, r4, r5, r6, r7, r8, r9, sl, fp, lr}
 8004860:	f8df 9170 	ldr.w	r9, [pc, #368]	@ 80049d4 <HAL_GPIO_Init+0x178>
 8004864:	4c59      	ldr	r4, [pc, #356]	@ (80049cc <HAL_GPIO_Init+0x170>)
 8004866:	2300      	movs	r3, #0
 8004868:	680a      	ldr	r2, [r1, #0]
 800486a:	fa32 f503 	lsrs.w	r5, r2, r3
 800486e:	d102      	bne.n	8004876 <HAL_GPIO_Init+0x1a>
 8004870:	b003      	add	sp, #12
 8004872:	e8bd 8ff0 	ldmia.w	sp!, {r4, r5, r6, r7, r8, r9, sl, fp, pc}
 8004876:	2501      	movs	r5, #1
 8004878:	fa05 f803 	lsl.w	r8, r5, r3
 800487c:	ea18 0202 	ands.w	r2, r8, r2
 8004880:	f000 809c 	beq.w	80049bc <HAL_GPIO_Init+0x160>
 8004884:	684e      	ldr	r6, [r1, #4]
 8004886:	2703      	movs	r7, #3
 8004888:	f006 0503 	and.w	r5, r6, #3
 800488c:	ea4f 0e43 	mov.w	lr, r3, lsl #1
 8004890:	fa07 fc0e 	lsl.w	ip, r7, lr
 8004894:	1e6f      	subs	r7, r5, #1
 8004896:	2f01      	cmp	r7, #1
 8004898:	ea6f 0c0c 	mvn.w	ip, ip
 800489c:	d834      	bhi.n	8004908 <HAL_GPIO_Init+0xac>
 800489e:	6887      	ldr	r7, [r0, #8]
 80048a0:	ea07 0a0c 	and.w	sl, r7, ip
 80048a4:	68cf      	ldr	r7, [r1, #12]
 80048a6:	fa07 f70e 	lsl.w	r7, r7, lr
 80048aa:	ea47 070a 	orr.w	r7, r7, sl
 80048ae:	6087      	str	r7, [r0, #8]
 80048b0:	6847      	ldr	r7, [r0, #4]
 80048b2:	ea27 0808 	bic.w	r8, r7, r8
 80048b6:	f3c6 1700 	ubfx	r7, r6, #4, #1
 80048ba:	409f      	lsls	r7, r3
 80048bc:	ea47 0708 	orr.w	r7, r7, r8
 80048c0:	6047      	str	r7, [r0, #4]
 80048c2:	68c7      	ldr	r7, [r0, #12]
 80048c4:	ea07 080c 	and.w	r8, r7, ip
 80048c8:	688f      	ldr	r7, [r1, #8]
 80048ca:	fa07 f70e 	lsl.w	r7, r7, lr
 80048ce:	ea47 0708 	orr.w	r7, r7, r8
 80048d2:	2d02      	cmp	r5, #2
 80048d4:	60c7      	str	r7, [r0, #12]
 80048d6:	d119      	bne.n	800490c <HAL_GPIO_Init+0xb0>
 80048d8:	ea4f 08d3 	mov.w	r8, r3, lsr #3
 80048dc:	eb00 0888 	add.w	r8, r0, r8, lsl #2
 80048e0:	f003 0a07 	and.w	sl, r3, #7
 80048e4:	f8d8 7020 	ldr.w	r7, [r8, #32]
 80048e8:	ea4f 0a8a 	mov.w	sl, sl, lsl #2
 80048ec:	f04f 0b0f 	mov.w	fp, #15
 80048f0:	fa0b fb0a 	lsl.w	fp, fp, sl
 80048f4:	ea27 0b0b 	bic.w	fp, r7, fp
 80048f8:	690f      	ldr	r7, [r1, #16]
 80048fa:	fa07 f70a 	lsl.w	r7, r7, sl
 80048fe:	ea47 070b 	orr.w	r7, r7, fp
 8004902:	f8c8 7020 	str.w	r7, [r8, #32]
 8004906:	e001      	b.n	800490c <HAL_GPIO_Init+0xb0>
 8004908:	2d03      	cmp	r5, #3
 800490a:	d1da      	bne.n	80048c2 <HAL_GPIO_Init+0x66>
 800490c:	6807      	ldr	r7, [r0, #0]
 800490e:	fa05 f50e 	lsl.w	r5, r5, lr
 8004912:	ea07 070c 	and.w	r7, r7, ip
 8004916:	433d      	orrs	r5, r7
 8004918:	f416 3f40 	tst.w	r6, #196608	@ 0x30000
 800491c:	6005      	str	r5, [r0, #0]
 800491e:	d04d      	beq.n	80049bc <HAL_GPIO_Init+0x160>
 8004920:	f8d9 5060 	ldr.w	r5, [r9, #96]	@ 0x60
 8004924:	f045 0501 	orr.w	r5, r5, #1
 8004928:	f8c9 5060 	str.w	r5, [r9, #96]	@ 0x60
 800492c:	f8d9 5060 	ldr.w	r5, [r9, #96]	@ 0x60
 8004930:	f023 0703 	bic.w	r7, r3, #3
 8004934:	f107 4780 	add.w	r7, r7, #1073741824	@ 0x40000000
 8004938:	f005 0501 	and.w	r5, r5, #1
 800493c:	f507 3780 	add.w	r7, r7, #65536	@ 0x10000
 8004940:	9501      	str	r5, [sp, #4]
 8004942:	f003 0c03 	and.w	ip, r3, #3
 8004946:	9d01      	ldr	r5, [sp, #4]
 8004948:	68bd      	ldr	r5, [r7, #8]
 800494a:	ea4f 0c8c 	mov.w	ip, ip, lsl #2
 800494e:	f04f 0e0f 	mov.w	lr, #15
 8004952:	fa0e fe0c 	lsl.w	lr, lr, ip
 8004956:	f1b0 4f90 	cmp.w	r0, #1207959552	@ 0x48000000
 800495a:	ea25 0e0e 	bic.w	lr, r5, lr
 800495e:	d02f      	beq.n	80049c0 <HAL_GPIO_Init+0x164>
 8004960:	4d1b      	ldr	r5, [pc, #108]	@ (80049d0 <HAL_GPIO_Init+0x174>)
 8004962:	42a8      	cmp	r0, r5
 8004964:	d02e      	beq.n	80049c4 <HAL_GPIO_Init+0x168>
 8004966:	f505 6580 	add.w	r5, r5, #1024	@ 0x400
 800496a:	42a8      	cmp	r0, r5
 800496c:	d02c      	beq.n	80049c8 <HAL_GPIO_Init+0x16c>
 800496e:	f505 6580 	add.w	r5, r5, #1024	@ 0x400
 8004972:	42a8      	cmp	r0, r5
 8004974:	bf14      	ite	ne
 8004976:	2507      	movne	r5, #7
 8004978:	2503      	moveq	r5, #3
 800497a:	fa05 f50c 	lsl.w	r5, r5, ip
 800497e:	ea45 050e 	orr.w	r5, r5, lr
 8004982:	60bd      	str	r5, [r7, #8]
 8004984:	68a5      	ldr	r5, [r4, #8]
 8004986:	43d7      	mvns	r7, r2
 8004988:	f416 1f80 	tst.w	r6, #1048576	@ 0x100000
 800498c:	bf0c      	ite	eq
 800498e:	403d      	andeq	r5, r7
 8004990:	4315      	orrne	r5, r2
 8004992:	60a5      	str	r5, [r4, #8]
 8004994:	68e5      	ldr	r5, [r4, #12]
 8004996:	f416 1f00 	tst.w	r6, #2097152	@ 0x200000
 800499a:	bf0c      	ite	eq
 800499c:	403d      	andeq	r5, r7
 800499e:	4315      	orrne	r5, r2
 80049a0:	60e5      	str	r5, [r4, #12]
 80049a2:	6865      	ldr	r5, [r4, #4]
 80049a4:	f416 3f00 	tst.w	r6, #131072	@ 0x20000
 80049a8:	bf0c      	ite	eq
 80049aa:	403d      	andeq	r5, r7
 80049ac:	4315      	orrne	r5, r2
 80049ae:	6065      	str	r5, [r4, #4]
 80049b0:	6825      	ldr	r5, [r4, #0]
 80049b2:	03f6      	lsls	r6, r6, #15
 80049b4:	bf54      	ite	pl
 80049b6:	403d      	andpl	r5, r7
 80049b8:	4315      	orrmi	r5, r2
 80049ba:	6025      	str	r5, [r4, #0]
 80049bc:	3301      	adds	r3, #1
 80049be:	e753      	b.n	8004868 <HAL_GPIO_Init+0xc>
 80049c0:	2500      	movs	r5, #0
 80049c2:	e7da      	b.n	800497a <HAL_GPIO_Init+0x11e>
 80049c4:	2501      	movs	r5, #1
 80049c6:	e7d8      	b.n	800497a <HAL_GPIO_Init+0x11e>
 80049c8:	2502      	movs	r5, #2
 80049ca:	e7d6      	b.n	800497a <HAL_GPIO_Init+0x11e>
 80049cc:	40010400 	.word	0x40010400
 80049d0:	48000400 	.word	0x48000400
 80049d4:	40021000 	.word	0x40021000

080049d8 <HAL_GPIO_WritePin>:
 80049d8:	b10a      	cbz	r2, 80049de <HAL_GPIO_WritePin+0x6>
 80049da:	6181      	str	r1, [r0, #24]
 80049dc:	4770      	bx	lr
 80049de:	6281      	str	r1, [r0, #40]	@ 0x28
 80049e0:	4770      	bx	lr
	...

080049e4 <HAL_GPIO_EXTI_IRQHandler>:
 80049e4:	4a04      	ldr	r2, [pc, #16]	@ (80049f8 <HAL_GPIO_EXTI_IRQHandler+0x14>)
 80049e6:	6951      	ldr	r1, [r2, #20]
 80049e8:	4201      	tst	r1, r0
 80049ea:	b508      	push	{r3, lr}
 80049ec:	d002      	beq.n	80049f4 <HAL_GPIO_EXTI_IRQHandler+0x10>
 80049ee:	6150      	str	r0, [r2, #20]
 80049f0:	f7fe fd08 	bl	8003404 <HAL_GPIO_EXTI_Callback>
 80049f4:	bd08      	pop	{r3, pc}
 80049f6:	bf00      	nop
 80049f8:	40010400 	.word	0x40010400

080049fc <I2C_Flush_TXDR>:
 80049fc:	6803      	ldr	r3, [r0, #0]
 80049fe:	699a      	ldr	r2, [r3, #24]
 8004a00:	0791      	lsls	r1, r2, #30
 8004a02:	bf44      	itt	mi
 8004a04:	2200      	movmi	r2, #0
 8004a06:	629a      	strmi	r2, [r3, #40]	@ 0x28
 8004a08:	699a      	ldr	r2, [r3, #24]
 8004a0a:	07d2      	lsls	r2, r2, #31
 8004a0c:	bf5e      	ittt	pl
 8004a0e:	699a      	ldrpl	r2, [r3, #24]
 8004a10:	f042 0201 	orrpl.w	r2, r2, #1
 8004a14:	619a      	strpl	r2, [r3, #24]
 8004a16:	4770      	bx	lr

08004a18 <I2C_TransferConfig>:
 8004a18:	b530      	push	{r4, r5, lr}
 8004a1a:	9d03      	ldr	r5, [sp, #12]
 8004a1c:	6804      	ldr	r4, [r0, #0]
 8004a1e:	432b      	orrs	r3, r5
 8004a20:	ea43 4302 	orr.w	r3, r3, r2, lsl #16
 8004a24:	4a06      	ldr	r2, [pc, #24]	@ (8004a40 <I2C_TransferConfig+0x28>)
 8004a26:	6860      	ldr	r0, [r4, #4]
 8004a28:	f3c1 0109 	ubfx	r1, r1, #0, #10
 8004a2c:	430b      	orrs	r3, r1
 8004a2e:	ea42 5255 	orr.w	r2, r2, r5, lsr #21
 8004a32:	f023 4300 	bic.w	r3, r3, #2147483648	@ 0x80000000
 8004a36:	ea20 0002 	bic.w	r0, r0, r2
 8004a3a:	4303      	orrs	r3, r0
 8004a3c:	6063      	str	r3, [r4, #4]
 8004a3e:	bd30      	pop	{r4, r5, pc}
 8004a40:	03ff63ff 	.word	0x03ff63ff

08004a44 <I2C_IsErrorOccurred>:
 8004a44:	6803      	ldr	r3, [r0, #0]
 8004a46:	e92d 41f0 	stmdb	sp!, {r4, r5, r6, r7, r8, lr}
 8004a4a:	699c      	ldr	r4, [r3, #24]
 8004a4c:	f014 0410 	ands.w	r4, r4, #16
 8004a50:	4605      	mov	r5, r0
 8004a52:	460f      	mov	r7, r1
 8004a54:	4616      	mov	r6, r2
 8004a56:	d06f      	beq.n	8004b38 <I2C_IsErrorOccurred+0xf4>
 8004a58:	2210      	movs	r2, #16
 8004a5a:	2400      	movs	r4, #0
 8004a5c:	61da      	str	r2, [r3, #28]
 8004a5e:	46a0      	mov	r8, r4
 8004a60:	682b      	ldr	r3, [r5, #0]
 8004a62:	699a      	ldr	r2, [r3, #24]
 8004a64:	0690      	lsls	r0, r2, #26
 8004a66:	d461      	bmi.n	8004b2c <I2C_IsErrorOccurred+0xe8>
 8004a68:	f1b8 0f00 	cmp.w	r8, #0
 8004a6c:	d035      	beq.n	8004ada <I2C_IsErrorOccurred+0x96>
 8004a6e:	f044 0404 	orr.w	r4, r4, #4
 8004a72:	2001      	movs	r0, #1
 8004a74:	682e      	ldr	r6, [r5, #0]
 8004a76:	69b3      	ldr	r3, [r6, #24]
 8004a78:	05d9      	lsls	r1, r3, #23
 8004a7a:	bf41      	itttt	mi
 8004a7c:	f44f 7280 	movmi.w	r2, #256	@ 0x100
 8004a80:	61f2      	strmi	r2, [r6, #28]
 8004a82:	f044 0401 	orrmi.w	r4, r4, #1
 8004a86:	2001      	movmi	r0, #1
 8004a88:	055a      	lsls	r2, r3, #21
 8004a8a:	bf41      	itttt	mi
 8004a8c:	f44f 6280 	movmi.w	r2, #1024	@ 0x400
 8004a90:	f044 0408 	orrmi.w	r4, r4, #8
 8004a94:	61f2      	strmi	r2, [r6, #28]
 8004a96:	2001      	movmi	r0, #1
 8004a98:	059b      	lsls	r3, r3, #22
 8004a9a:	d54f      	bpl.n	8004b3c <I2C_IsErrorOccurred+0xf8>
 8004a9c:	f44f 7300 	mov.w	r3, #512	@ 0x200
 8004aa0:	f044 0402 	orr.w	r4, r4, #2
 8004aa4:	61f3      	str	r3, [r6, #28]
 8004aa6:	4628      	mov	r0, r5
 8004aa8:	f7ff ffa8 	bl	80049fc <I2C_Flush_TXDR>
 8004aac:	6873      	ldr	r3, [r6, #4]
 8004aae:	f023 73ff 	bic.w	r3, r3, #33423360	@ 0x1fe0000
 8004ab2:	f423 338b 	bic.w	r3, r3, #71168	@ 0x11600
 8004ab6:	f423 73ff 	bic.w	r3, r3, #510	@ 0x1fe
 8004aba:	f023 0301 	bic.w	r3, r3, #1
 8004abe:	6073      	str	r3, [r6, #4]
 8004ac0:	6c6b      	ldr	r3, [r5, #68]	@ 0x44
 8004ac2:	4323      	orrs	r3, r4
 8004ac4:	646b      	str	r3, [r5, #68]	@ 0x44
 8004ac6:	2320      	movs	r3, #32
 8004ac8:	f885 3041 	strb.w	r3, [r5, #65]	@ 0x41
 8004acc:	2300      	movs	r3, #0
 8004ace:	f885 3042 	strb.w	r3, [r5, #66]	@ 0x42
 8004ad2:	f885 3040 	strb.w	r3, [r5, #64]	@ 0x40
 8004ad6:	2001      	movs	r0, #1
 8004ad8:	e032      	b.n	8004b40 <I2C_IsErrorOccurred+0xfc>
 8004ada:	1c7a      	adds	r2, r7, #1
 8004adc:	d0c1      	beq.n	8004a62 <I2C_IsErrorOccurred+0x1e>
 8004ade:	f7ff f8bf 	bl	8003c60 <HAL_GetTick>
 8004ae2:	1b80      	subs	r0, r0, r6
 8004ae4:	42b8      	cmp	r0, r7
 8004ae6:	d801      	bhi.n	8004aec <I2C_IsErrorOccurred+0xa8>
 8004ae8:	2f00      	cmp	r7, #0
 8004aea:	d1b9      	bne.n	8004a60 <I2C_IsErrorOccurred+0x1c>
 8004aec:	682b      	ldr	r3, [r5, #0]
 8004aee:	6859      	ldr	r1, [r3, #4]
 8004af0:	f895 2042 	ldrb.w	r2, [r5, #66]	@ 0x42
 8004af4:	6998      	ldr	r0, [r3, #24]
 8004af6:	0400      	lsls	r0, r0, #16
 8004af8:	b2d2      	uxtb	r2, r2
 8004afa:	d50a      	bpl.n	8004b12 <I2C_IsErrorOccurred+0xce>
 8004afc:	0449      	lsls	r1, r1, #17
 8004afe:	d408      	bmi.n	8004b12 <I2C_IsErrorOccurred+0xce>
 8004b00:	2a20      	cmp	r2, #32
 8004b02:	d006      	beq.n	8004b12 <I2C_IsErrorOccurred+0xce>
 8004b04:	685a      	ldr	r2, [r3, #4]
 8004b06:	f442 4280 	orr.w	r2, r2, #16384	@ 0x4000
 8004b0a:	605a      	str	r2, [r3, #4]
 8004b0c:	f7ff f8a8 	bl	8003c60 <HAL_GetTick>
 8004b10:	4606      	mov	r6, r0
 8004b12:	682b      	ldr	r3, [r5, #0]
 8004b14:	699b      	ldr	r3, [r3, #24]
 8004b16:	069b      	lsls	r3, r3, #26
 8004b18:	d4a2      	bmi.n	8004a60 <I2C_IsErrorOccurred+0x1c>
 8004b1a:	f7ff f8a1 	bl	8003c60 <HAL_GetTick>
 8004b1e:	1b80      	subs	r0, r0, r6
 8004b20:	2819      	cmp	r0, #25
 8004b22:	d9f6      	bls.n	8004b12 <I2C_IsErrorOccurred+0xce>
 8004b24:	2420      	movs	r4, #32
 8004b26:	f04f 0801 	mov.w	r8, #1
 8004b2a:	e799      	b.n	8004a60 <I2C_IsErrorOccurred+0x1c>
 8004b2c:	f1b8 0f00 	cmp.w	r8, #0
 8004b30:	d19d      	bne.n	8004a6e <I2C_IsErrorOccurred+0x2a>
 8004b32:	2220      	movs	r2, #32
 8004b34:	61da      	str	r2, [r3, #28]
 8004b36:	e79a      	b.n	8004a6e <I2C_IsErrorOccurred+0x2a>
 8004b38:	4620      	mov	r0, r4
 8004b3a:	e79b      	b.n	8004a74 <I2C_IsErrorOccurred+0x30>
 8004b3c:	2800      	cmp	r0, #0
 8004b3e:	d1b2      	bne.n	8004aa6 <I2C_IsErrorOccurred+0x62>
 8004b40:	e8bd 81f0 	ldmia.w	sp!, {r4, r5, r6, r7, r8, pc}

08004b44 <I2C_WaitOnTXISFlagUntilTimeout>:
 8004b44:	b570      	push	{r4, r5, r6, lr}
 8004b46:	4604      	mov	r4, r0
 8004b48:	460d      	mov	r5, r1
 8004b4a:	4616      	mov	r6, r2
 8004b4c:	6823      	ldr	r3, [r4, #0]
 8004b4e:	699b      	ldr	r3, [r3, #24]
 8004b50:	079b      	lsls	r3, r3, #30
 8004b52:	d501      	bpl.n	8004b58 <I2C_WaitOnTXISFlagUntilTimeout+0x14>
 8004b54:	2000      	movs	r0, #0
 8004b56:	e01f      	b.n	8004b98 <I2C_WaitOnTXISFlagUntilTimeout+0x54>
 8004b58:	4632      	mov	r2, r6
 8004b5a:	4629      	mov	r1, r5
 8004b5c:	4620      	mov	r0, r4
 8004b5e:	f7ff ff71 	bl	8004a44 <I2C_IsErrorOccurred>
 8004b62:	b9c0      	cbnz	r0, 8004b96 <I2C_WaitOnTXISFlagUntilTimeout+0x52>
 8004b64:	1c6a      	adds	r2, r5, #1
 8004b66:	d0f1      	beq.n	8004b4c <I2C_WaitOnTXISFlagUntilTimeout+0x8>
 8004b68:	f7ff f87a 	bl	8003c60 <HAL_GetTick>
 8004b6c:	1b80      	subs	r0, r0, r6
 8004b6e:	42a8      	cmp	r0, r5
 8004b70:	d801      	bhi.n	8004b76 <I2C_WaitOnTXISFlagUntilTimeout+0x32>
 8004b72:	2d00      	cmp	r5, #0
 8004b74:	d1ea      	bne.n	8004b4c <I2C_WaitOnTXISFlagUntilTimeout+0x8>
 8004b76:	6823      	ldr	r3, [r4, #0]
 8004b78:	699b      	ldr	r3, [r3, #24]
 8004b7a:	f013 0302 	ands.w	r3, r3, #2
 8004b7e:	d1e5      	bne.n	8004b4c <I2C_WaitOnTXISFlagUntilTimeout+0x8>
 8004b80:	6c62      	ldr	r2, [r4, #68]	@ 0x44
 8004b82:	f884 3040 	strb.w	r3, [r4, #64]	@ 0x40
 8004b86:	f042 0220 	orr.w	r2, r2, #32
 8004b8a:	6462      	str	r2, [r4, #68]	@ 0x44
 8004b8c:	2220      	movs	r2, #32
 8004b8e:	f884 2041 	strb.w	r2, [r4, #65]	@ 0x41
 8004b92:	f884 3042 	strb.w	r3, [r4, #66]	@ 0x42
 8004b96:	2001      	movs	r0, #1
 8004b98:	bd70      	pop	{r4, r5, r6, pc}

08004b9a <I2C_WaitOnFlagUntilTimeout>:
 8004b9a:	e92d 41f0 	stmdb	sp!, {r4, r5, r6, r7, r8, lr}
 8004b9e:	f8dd 8018 	ldr.w	r8, [sp, #24]
 8004ba2:	4604      	mov	r4, r0
 8004ba4:	460f      	mov	r7, r1
 8004ba6:	4616      	mov	r6, r2
 8004ba8:	461d      	mov	r5, r3
 8004baa:	6823      	ldr	r3, [r4, #0]
 8004bac:	699b      	ldr	r3, [r3, #24]
 8004bae:	ea37 0303 	bics.w	r3, r7, r3
 8004bb2:	bf0c      	ite	eq
 8004bb4:	2301      	moveq	r3, #1
 8004bb6:	2300      	movne	r3, #0
 8004bb8:	42b3      	cmp	r3, r6
 8004bba:	d001      	beq.n	8004bc0 <I2C_WaitOnFlagUntilTimeout+0x26>
 8004bbc:	2000      	movs	r0, #0
 8004bbe:	e025      	b.n	8004c0c <I2C_WaitOnFlagUntilTimeout+0x72>
 8004bc0:	4642      	mov	r2, r8
 8004bc2:	4629      	mov	r1, r5
 8004bc4:	4620      	mov	r0, r4
 8004bc6:	f7ff ff3d 	bl	8004a44 <I2C_IsErrorOccurred>
 8004bca:	b9f0      	cbnz	r0, 8004c0a <I2C_WaitOnFlagUntilTimeout+0x70>
 8004bcc:	1c6b      	adds	r3, r5, #1
 8004bce:	d0ec      	beq.n	8004baa <I2C_WaitOnFlagUntilTimeout+0x10>
 8004bd0:	f7ff f846 	bl	8003c60 <HAL_GetTick>
 8004bd4:	eba0 0008 	sub.w	r0, r0, r8
 8004bd8:	42a8      	cmp	r0, r5
 8004bda:	d801      	bhi.n	8004be0 <I2C_WaitOnFlagUntilTimeout+0x46>
 8004bdc:	2d00      	cmp	r5, #0
 8004bde:	d1e4      	bne.n	8004baa <I2C_WaitOnFlagUntilTimeout+0x10>
 8004be0:	6823      	ldr	r3, [r4, #0]
 8004be2:	699b      	ldr	r3, [r3, #24]
 8004be4:	ea37 0303 	bics.w	r3, r7, r3
 8004be8:	bf0c      	ite	eq
 8004bea:	2301      	moveq	r3, #1
 8004bec:	2300      	movne	r3, #0
 8004bee:	42b3      	cmp	r3, r6
 8004bf0:	d1db      	bne.n	8004baa <I2C_WaitOnFlagUntilTimeout+0x10>
 8004bf2:	6c63      	ldr	r3, [r4, #68]	@ 0x44
 8004bf4:	f043 0320 	orr.w	r3, r3, #32
 8004bf8:	6463      	str	r3, [r4, #68]	@ 0x44
 8004bfa:	2320      	movs	r3, #32
 8004bfc:	f884 3041 	strb.w	r3, [r4, #65]	@ 0x41
 8004c00:	2300      	movs	r3, #0
 8004c02:	f884 3042 	strb.w	r3, [r4, #66]	@ 0x42
 8004c06:	f884 3040 	strb.w	r3, [r4, #64]	@ 0x40
 8004c0a:	2001      	movs	r0, #1
 8004c0c:	e8bd 81f0 	ldmia.w	sp!, {r4, r5, r6, r7, r8, pc}

08004c10 <I2C_WaitOnSTOPFlagUntilTimeout>:
 8004c10:	b570      	push	{r4, r5, r6, lr}
 8004c12:	4604      	mov	r4, r0
 8004c14:	460d      	mov	r5, r1
 8004c16:	4616      	mov	r6, r2
 8004c18:	6823      	ldr	r3, [r4, #0]
 8004c1a:	699b      	ldr	r3, [r3, #24]
 8004c1c:	069b      	lsls	r3, r3, #26
 8004c1e:	d501      	bpl.n	8004c24 <I2C_WaitOnSTOPFlagUntilTimeout+0x14>
 8004c20:	2000      	movs	r0, #0
 8004c22:	e01d      	b.n	8004c60 <I2C_WaitOnSTOPFlagUntilTimeout+0x50>
 8004c24:	4632      	mov	r2, r6
 8004c26:	4629      	mov	r1, r5
 8004c28:	4620      	mov	r0, r4
 8004c2a:	f7ff ff0b 	bl	8004a44 <I2C_IsErrorOccurred>
 8004c2e:	b9b0      	cbnz	r0, 8004c5e <I2C_WaitOnSTOPFlagUntilTimeout+0x4e>
 8004c30:	f7ff f816 	bl	8003c60 <HAL_GetTick>
 8004c34:	1b80      	subs	r0, r0, r6
 8004c36:	42a8      	cmp	r0, r5
 8004c38:	d801      	bhi.n	8004c3e <I2C_WaitOnSTOPFlagUntilTimeout+0x2e>
 8004c3a:	2d00      	cmp	r5, #0
 8004c3c:	d1ec      	bne.n	8004c18 <I2C_WaitOnSTOPFlagUntilTimeout+0x8>
 8004c3e:	6823      	ldr	r3, [r4, #0]
 8004c40:	699b      	ldr	r3, [r3, #24]
 8004c42:	f013 0320 	ands.w	r3, r3, #32
 8004c46:	d1e7      	bne.n	8004c18 <I2C_WaitOnSTOPFlagUntilTimeout+0x8>
 8004c48:	6c62      	ldr	r2, [r4, #68]	@ 0x44
 8004c4a:	f884 3040 	strb.w	r3, [r4, #64]	@ 0x40
 8004c4e:	f042 0220 	orr.w	r2, r2, #32
 8004c52:	6462      	str	r2, [r4, #68]	@ 0x44
 8004c54:	2220      	movs	r2, #32
 8004c56:	f884 2041 	strb.w	r2, [r4, #65]	@ 0x41
 8004c5a:	f884 3042 	strb.w	r3, [r4, #66]	@ 0x42
 8004c5e:	2001      	movs	r0, #1
 8004c60:	bd70      	pop	{r4, r5, r6, pc}

08004c62 <HAL_I2C_Init>:
 8004c62:	b510      	push	{r4, lr}
 8004c64:	4604      	mov	r4, r0
 8004c66:	2800      	cmp	r0, #0
 8004c68:	d04e      	beq.n	8004d08 <HAL_I2C_Init+0xa6>
 8004c6a:	f890 3041 	ldrb.w	r3, [r0, #65]	@ 0x41
 8004c6e:	f003 02ff 	and.w	r2, r3, #255	@ 0xff
 8004c72:	b91b      	cbnz	r3, 8004c7c <HAL_I2C_Init+0x1a>
 8004c74:	f880 2040 	strb.w	r2, [r0, #64]	@ 0x40
 8004c78:	f7fe fe8c 	bl	8003994 <HAL_I2C_MspInit>
 8004c7c:	2324      	movs	r3, #36	@ 0x24
 8004c7e:	f884 3041 	strb.w	r3, [r4, #65]	@ 0x41
 8004c82:	6823      	ldr	r3, [r4, #0]
 8004c84:	681a      	ldr	r2, [r3, #0]
 8004c86:	f022 0201 	bic.w	r2, r2, #1
 8004c8a:	601a      	str	r2, [r3, #0]
 8004c8c:	6862      	ldr	r2, [r4, #4]
 8004c8e:	f022 6270 	bic.w	r2, r2, #251658240	@ 0xf000000
 8004c92:	611a      	str	r2, [r3, #16]
 8004c94:	689a      	ldr	r2, [r3, #8]
 8004c96:	f422 4200 	bic.w	r2, r2, #32768	@ 0x8000
 8004c9a:	609a      	str	r2, [r3, #8]
 8004c9c:	e9d4 2102 	ldrd	r2, r1, [r4, #8]
 8004ca0:	2901      	cmp	r1, #1
 8004ca2:	d106      	bne.n	8004cb2 <HAL_I2C_Init+0x50>
 8004ca4:	f442 4200 	orr.w	r2, r2, #32768	@ 0x8000
 8004ca8:	609a      	str	r2, [r3, #8]
 8004caa:	685a      	ldr	r2, [r3, #4]
 8004cac:	f422 6200 	bic.w	r2, r2, #2048	@ 0x800
 8004cb0:	e007      	b.n	8004cc2 <HAL_I2C_Init+0x60>
 8004cb2:	f442 4204 	orr.w	r2, r2, #33792	@ 0x8400
 8004cb6:	2902      	cmp	r1, #2
 8004cb8:	609a      	str	r2, [r3, #8]
 8004cba:	d1f6      	bne.n	8004caa <HAL_I2C_Init+0x48>
 8004cbc:	685a      	ldr	r2, [r3, #4]
 8004cbe:	f442 6200 	orr.w	r2, r2, #2048	@ 0x800
 8004cc2:	605a      	str	r2, [r3, #4]
 8004cc4:	685a      	ldr	r2, [r3, #4]
 8004cc6:	f042 7200 	orr.w	r2, r2, #33554432	@ 0x2000000
 8004cca:	f442 4200 	orr.w	r2, r2, #32768	@ 0x8000
 8004cce:	605a      	str	r2, [r3, #4]
 8004cd0:	68da      	ldr	r2, [r3, #12]
 8004cd2:	f422 4200 	bic.w	r2, r2, #32768	@ 0x8000
 8004cd6:	60da      	str	r2, [r3, #12]
 8004cd8:	e9d4 2104 	ldrd	r2, r1, [r4, #16]
 8004cdc:	430a      	orrs	r2, r1
 8004cde:	69a1      	ldr	r1, [r4, #24]
 8004ce0:	ea42 2201 	orr.w	r2, r2, r1, lsl #8
 8004ce4:	60da      	str	r2, [r3, #12]
 8004ce6:	e9d4 2107 	ldrd	r2, r1, [r4, #28]
 8004cea:	430a      	orrs	r2, r1
 8004cec:	601a      	str	r2, [r3, #0]
 8004cee:	681a      	ldr	r2, [r3, #0]
 8004cf0:	f042 0201 	orr.w	r2, r2, #1
 8004cf4:	601a      	str	r2, [r3, #0]
 8004cf6:	2000      	movs	r0, #0
 8004cf8:	2320      	movs	r3, #32
 8004cfa:	6460      	str	r0, [r4, #68]	@ 0x44
 8004cfc:	f884 3041 	strb.w	r3, [r4, #65]	@ 0x41
 8004d00:	6320      	str	r0, [r4, #48]	@ 0x30
 8004d02:	f884 0042 	strb.w	r0, [r4, #66]	@ 0x42
 8004d06:	bd10      	pop	{r4, pc}
 8004d08:	2001      	movs	r0, #1
 8004d0a:	e7fc      	b.n	8004d06 <HAL_I2C_Init+0xa4>

08004d0c <HAL_I2C_Mem_Write>:
 8004d0c:	e92d 4ff7 	stmdb	sp!, {r0, r1, r2, r4, r5, r6, r7, r8, r9, sl, fp, lr}
 8004d10:	4699      	mov	r9, r3
 8004d12:	f890 3041 	ldrb.w	r3, [r0, #65]	@ 0x41
 8004d16:	f8bd a034 	ldrh.w	sl, [sp, #52]	@ 0x34
 8004d1a:	f8dd 8038 	ldr.w	r8, [sp, #56]	@ 0x38
 8004d1e:	2b20      	cmp	r3, #32
 8004d20:	4604      	mov	r4, r0
 8004d22:	460f      	mov	r7, r1
 8004d24:	4616      	mov	r6, r2
 8004d26:	f040 80c6 	bne.w	8004eb6 <HAL_I2C_Mem_Write+0x1aa>
 8004d2a:	9b0c      	ldr	r3, [sp, #48]	@ 0x30
 8004d2c:	b113      	cbz	r3, 8004d34 <HAL_I2C_Mem_Write+0x28>
 8004d2e:	f1ba 0f00 	cmp.w	sl, #0
 8004d32:	d106      	bne.n	8004d42 <HAL_I2C_Mem_Write+0x36>
 8004d34:	f44f 7300 	mov.w	r3, #512	@ 0x200
 8004d38:	6463      	str	r3, [r4, #68]	@ 0x44
 8004d3a:	2001      	movs	r0, #1
 8004d3c:	b003      	add	sp, #12
 8004d3e:	e8bd 8ff0 	ldmia.w	sp!, {r4, r5, r6, r7, r8, r9, sl, fp, pc}
 8004d42:	f890 3040 	ldrb.w	r3, [r0, #64]	@ 0x40
 8004d46:	2b01      	cmp	r3, #1
 8004d48:	f000 80b5 	beq.w	8004eb6 <HAL_I2C_Mem_Write+0x1aa>
 8004d4c:	f04f 0b01 	mov.w	fp, #1
 8004d50:	f880 b040 	strb.w	fp, [r0, #64]	@ 0x40
 8004d54:	f7fe ff84 	bl	8003c60 <HAL_GetTick>
 8004d58:	2319      	movs	r3, #25
 8004d5a:	4605      	mov	r5, r0
 8004d5c:	9000      	str	r0, [sp, #0]
 8004d5e:	465a      	mov	r2, fp
 8004d60:	f44f 4100 	mov.w	r1, #32768	@ 0x8000
 8004d64:	4620      	mov	r0, r4
 8004d66:	f7ff ff18 	bl	8004b9a <I2C_WaitOnFlagUntilTimeout>
 8004d6a:	2800      	cmp	r0, #0
 8004d6c:	d1e5      	bne.n	8004d3a <HAL_I2C_Mem_Write+0x2e>
 8004d6e:	2321      	movs	r3, #33	@ 0x21
 8004d70:	f884 3041 	strb.w	r3, [r4, #65]	@ 0x41
 8004d74:	2340      	movs	r3, #64	@ 0x40
 8004d76:	f884 3042 	strb.w	r3, [r4, #66]	@ 0x42
 8004d7a:	9b0c      	ldr	r3, [sp, #48]	@ 0x30
 8004d7c:	6263      	str	r3, [r4, #36]	@ 0x24
 8004d7e:	4b4f      	ldr	r3, [pc, #316]	@ (8004ebc <HAL_I2C_Mem_Write+0x1b0>)
 8004d80:	6460      	str	r0, [r4, #68]	@ 0x44
 8004d82:	6360      	str	r0, [r4, #52]	@ 0x34
 8004d84:	f8a4 a02a 	strh.w	sl, [r4, #42]	@ 0x2a
 8004d88:	fa5f f289 	uxtb.w	r2, r9
 8004d8c:	9300      	str	r3, [sp, #0]
 8004d8e:	4639      	mov	r1, r7
 8004d90:	4620      	mov	r0, r4
 8004d92:	f04f 7380 	mov.w	r3, #16777216	@ 0x1000000
 8004d96:	f7ff fe3f 	bl	8004a18 <I2C_TransferConfig>
 8004d9a:	462a      	mov	r2, r5
 8004d9c:	4641      	mov	r1, r8
 8004d9e:	4620      	mov	r0, r4
 8004da0:	f7ff fed0 	bl	8004b44 <I2C_WaitOnTXISFlagUntilTimeout>
 8004da4:	bb18      	cbnz	r0, 8004dee <HAL_I2C_Mem_Write+0xe2>
 8004da6:	f1b9 0f01 	cmp.w	r9, #1
 8004daa:	6823      	ldr	r3, [r4, #0]
 8004dac:	d115      	bne.n	8004dda <HAL_I2C_Mem_Write+0xce>
 8004dae:	b2f6      	uxtb	r6, r6
 8004db0:	629e      	str	r6, [r3, #40]	@ 0x28
 8004db2:	2200      	movs	r2, #0
 8004db4:	9500      	str	r5, [sp, #0]
 8004db6:	4643      	mov	r3, r8
 8004db8:	2180      	movs	r1, #128	@ 0x80
 8004dba:	4620      	mov	r0, r4
 8004dbc:	f7ff feed 	bl	8004b9a <I2C_WaitOnFlagUntilTimeout>
 8004dc0:	b9a8      	cbnz	r0, 8004dee <HAL_I2C_Mem_Write+0xe2>
 8004dc2:	8d63      	ldrh	r3, [r4, #42]	@ 0x2a
 8004dc4:	b29b      	uxth	r3, r3
 8004dc6:	2bff      	cmp	r3, #255	@ 0xff
 8004dc8:	d815      	bhi.n	8004df6 <HAL_I2C_Mem_Write+0xea>
 8004dca:	8d62      	ldrh	r2, [r4, #42]	@ 0x2a
 8004dcc:	b292      	uxth	r2, r2
 8004dce:	8522      	strh	r2, [r4, #40]	@ 0x28
 8004dd0:	f04f 7300 	mov.w	r3, #33554432	@ 0x2000000
 8004dd4:	9000      	str	r0, [sp, #0]
 8004dd6:	b2d2      	uxtb	r2, r2
 8004dd8:	e012      	b.n	8004e00 <HAL_I2C_Mem_Write+0xf4>
 8004dda:	0a32      	lsrs	r2, r6, #8
 8004ddc:	629a      	str	r2, [r3, #40]	@ 0x28
 8004dde:	4641      	mov	r1, r8
 8004de0:	462a      	mov	r2, r5
 8004de2:	4620      	mov	r0, r4
 8004de4:	f7ff feae 	bl	8004b44 <I2C_WaitOnTXISFlagUntilTimeout>
 8004de8:	b908      	cbnz	r0, 8004dee <HAL_I2C_Mem_Write+0xe2>
 8004dea:	6823      	ldr	r3, [r4, #0]
 8004dec:	e7df      	b.n	8004dae <HAL_I2C_Mem_Write+0xa2>
 8004dee:	2300      	movs	r3, #0
 8004df0:	f884 3040 	strb.w	r3, [r4, #64]	@ 0x40
 8004df4:	e7a1      	b.n	8004d3a <HAL_I2C_Mem_Write+0x2e>
 8004df6:	22ff      	movs	r2, #255	@ 0xff
 8004df8:	8522      	strh	r2, [r4, #40]	@ 0x28
 8004dfa:	f04f 7380 	mov.w	r3, #16777216	@ 0x1000000
 8004dfe:	9000      	str	r0, [sp, #0]
 8004e00:	4639      	mov	r1, r7
 8004e02:	4620      	mov	r0, r4
 8004e04:	f7ff fe08 	bl	8004a18 <I2C_TransferConfig>
 8004e08:	462a      	mov	r2, r5
 8004e0a:	4641      	mov	r1, r8
 8004e0c:	4620      	mov	r0, r4
 8004e0e:	f7ff fe99 	bl	8004b44 <I2C_WaitOnTXISFlagUntilTimeout>
 8004e12:	2800      	cmp	r0, #0
 8004e14:	d191      	bne.n	8004d3a <HAL_I2C_Mem_Write+0x2e>
 8004e16:	6a63      	ldr	r3, [r4, #36]	@ 0x24
 8004e18:	6822      	ldr	r2, [r4, #0]
 8004e1a:	f813 1b01 	ldrb.w	r1, [r3], #1
 8004e1e:	6291      	str	r1, [r2, #40]	@ 0x28
 8004e20:	6263      	str	r3, [r4, #36]	@ 0x24
 8004e22:	8d63      	ldrh	r3, [r4, #42]	@ 0x2a
 8004e24:	8d22      	ldrh	r2, [r4, #40]	@ 0x28
 8004e26:	3b01      	subs	r3, #1
 8004e28:	b29b      	uxth	r3, r3
 8004e2a:	8563      	strh	r3, [r4, #42]	@ 0x2a
 8004e2c:	8d63      	ldrh	r3, [r4, #42]	@ 0x2a
 8004e2e:	3a01      	subs	r2, #1
 8004e30:	b292      	uxth	r2, r2
 8004e32:	b29b      	uxth	r3, r3
 8004e34:	8522      	strh	r2, [r4, #40]	@ 0x28
 8004e36:	b1b3      	cbz	r3, 8004e66 <HAL_I2C_Mem_Write+0x15a>
 8004e38:	b9aa      	cbnz	r2, 8004e66 <HAL_I2C_Mem_Write+0x15a>
 8004e3a:	9500      	str	r5, [sp, #0]
 8004e3c:	4643      	mov	r3, r8
 8004e3e:	2180      	movs	r1, #128	@ 0x80
 8004e40:	4620      	mov	r0, r4
 8004e42:	f7ff feaa 	bl	8004b9a <I2C_WaitOnFlagUntilTimeout>
 8004e46:	2800      	cmp	r0, #0
 8004e48:	f47f af77 	bne.w	8004d3a <HAL_I2C_Mem_Write+0x2e>
 8004e4c:	8d63      	ldrh	r3, [r4, #42]	@ 0x2a
 8004e4e:	b29b      	uxth	r3, r3
 8004e50:	2bff      	cmp	r3, #255	@ 0xff
 8004e52:	d928      	bls.n	8004ea6 <HAL_I2C_Mem_Write+0x19a>
 8004e54:	22ff      	movs	r2, #255	@ 0xff
 8004e56:	8522      	strh	r2, [r4, #40]	@ 0x28
 8004e58:	f04f 7380 	mov.w	r3, #16777216	@ 0x1000000
 8004e5c:	9000      	str	r0, [sp, #0]
 8004e5e:	4639      	mov	r1, r7
 8004e60:	4620      	mov	r0, r4
 8004e62:	f7ff fdd9 	bl	8004a18 <I2C_TransferConfig>
 8004e66:	8d63      	ldrh	r3, [r4, #42]	@ 0x2a
 8004e68:	b29b      	uxth	r3, r3
 8004e6a:	2b00      	cmp	r3, #0
 8004e6c:	d1cc      	bne.n	8004e08 <HAL_I2C_Mem_Write+0xfc>
 8004e6e:	462a      	mov	r2, r5
 8004e70:	4641      	mov	r1, r8
 8004e72:	4620      	mov	r0, r4
 8004e74:	f7ff fecc 	bl	8004c10 <I2C_WaitOnSTOPFlagUntilTimeout>
 8004e78:	2800      	cmp	r0, #0
 8004e7a:	f47f af5e 	bne.w	8004d3a <HAL_I2C_Mem_Write+0x2e>
 8004e7e:	6823      	ldr	r3, [r4, #0]
 8004e80:	2120      	movs	r1, #32
 8004e82:	61d9      	str	r1, [r3, #28]
 8004e84:	685a      	ldr	r2, [r3, #4]
 8004e86:	f022 72ff 	bic.w	r2, r2, #33423360	@ 0x1fe0000
 8004e8a:	f422 328b 	bic.w	r2, r2, #71168	@ 0x11600
 8004e8e:	f422 72ff 	bic.w	r2, r2, #510	@ 0x1fe
 8004e92:	f022 0201 	bic.w	r2, r2, #1
 8004e96:	605a      	str	r2, [r3, #4]
 8004e98:	f884 1041 	strb.w	r1, [r4, #65]	@ 0x41
 8004e9c:	f884 0040 	strb.w	r0, [r4, #64]	@ 0x40
 8004ea0:	f884 0042 	strb.w	r0, [r4, #66]	@ 0x42
 8004ea4:	e74a      	b.n	8004d3c <HAL_I2C_Mem_Write+0x30>
 8004ea6:	8d62      	ldrh	r2, [r4, #42]	@ 0x2a
 8004ea8:	b292      	uxth	r2, r2
 8004eaa:	8522      	strh	r2, [r4, #40]	@ 0x28
 8004eac:	f04f 7300 	mov.w	r3, #33554432	@ 0x2000000
 8004eb0:	9000      	str	r0, [sp, #0]
 8004eb2:	b2d2      	uxtb	r2, r2
 8004eb4:	e7d3      	b.n	8004e5e <HAL_I2C_Mem_Write+0x152>
 8004eb6:	2002      	movs	r0, #2
 8004eb8:	e740      	b.n	8004d3c <HAL_I2C_Mem_Write+0x30>
 8004eba:	bf00      	nop
 8004ebc:	80002000 	.word	0x80002000

08004ec0 <HAL_I2C_Mem_Read>:
 8004ec0:	e92d 4ff7 	stmdb	sp!, {r0, r1, r2, r4, r5, r6, r7, r8, r9, sl, fp, lr}
 8004ec4:	4699      	mov	r9, r3
 8004ec6:	f890 3041 	ldrb.w	r3, [r0, #65]	@ 0x41
 8004eca:	f8bd a034 	ldrh.w	sl, [sp, #52]	@ 0x34
 8004ece:	f8dd 8038 	ldr.w	r8, [sp, #56]	@ 0x38
 8004ed2:	2b20      	cmp	r3, #32
 8004ed4:	4604      	mov	r4, r0
 8004ed6:	460f      	mov	r7, r1
 8004ed8:	4616      	mov	r6, r2
 8004eda:	f040 80c9 	bne.w	8005070 <HAL_I2C_Mem_Read+0x1b0>
 8004ede:	9b0c      	ldr	r3, [sp, #48]	@ 0x30
 8004ee0:	b113      	cbz	r3, 8004ee8 <HAL_I2C_Mem_Read+0x28>
 8004ee2:	f1ba 0f00 	cmp.w	sl, #0
 8004ee6:	d106      	bne.n	8004ef6 <HAL_I2C_Mem_Read+0x36>
 8004ee8:	f44f 7300 	mov.w	r3, #512	@ 0x200
 8004eec:	6463      	str	r3, [r4, #68]	@ 0x44
 8004eee:	2001      	movs	r0, #1
 8004ef0:	b003      	add	sp, #12
 8004ef2:	e8bd 8ff0 	ldmia.w	sp!, {r4, r5, r6, r7, r8, r9, sl, fp, pc}
 8004ef6:	f890 3040 	ldrb.w	r3, [r0, #64]	@ 0x40
 8004efa:	2b01      	cmp	r3, #1
 8004efc:	f000 80b8 	beq.w	8005070 <HAL_I2C_Mem_Read+0x1b0>
 8004f00:	f04f 0b01 	mov.w	fp, #1
 8004f04:	f880 b040 	strb.w	fp, [r0, #64]	@ 0x40
 8004f08:	f7fe feaa 	bl	8003c60 <HAL_GetTick>
 8004f0c:	2319      	movs	r3, #25
 8004f0e:	9000      	str	r0, [sp, #0]
 8004f10:	4605      	mov	r5, r0
 8004f12:	465a      	mov	r2, fp
 8004f14:	f44f 4100 	mov.w	r1, #32768	@ 0x8000
 8004f18:	4620      	mov	r0, r4
 8004f1a:	f7ff fe3e 	bl	8004b9a <I2C_WaitOnFlagUntilTimeout>
 8004f1e:	4603      	mov	r3, r0
 8004f20:	2800      	cmp	r0, #0
 8004f22:	d1e4      	bne.n	8004eee <HAL_I2C_Mem_Read+0x2e>
 8004f24:	2222      	movs	r2, #34	@ 0x22
 8004f26:	f884 2041 	strb.w	r2, [r4, #65]	@ 0x41
 8004f2a:	2240      	movs	r2, #64	@ 0x40
 8004f2c:	f884 2042 	strb.w	r2, [r4, #66]	@ 0x42
 8004f30:	9a0c      	ldr	r2, [sp, #48]	@ 0x30
 8004f32:	6262      	str	r2, [r4, #36]	@ 0x24
 8004f34:	4a4f      	ldr	r2, [pc, #316]	@ (8005074 <HAL_I2C_Mem_Read+0x1b4>)
 8004f36:	6460      	str	r0, [r4, #68]	@ 0x44
 8004f38:	6360      	str	r0, [r4, #52]	@ 0x34
 8004f3a:	f8a4 a02a 	strh.w	sl, [r4, #42]	@ 0x2a
 8004f3e:	4639      	mov	r1, r7
 8004f40:	9200      	str	r2, [sp, #0]
 8004f42:	4620      	mov	r0, r4
 8004f44:	fa5f f289 	uxtb.w	r2, r9
 8004f48:	f7ff fd66 	bl	8004a18 <I2C_TransferConfig>
 8004f4c:	462a      	mov	r2, r5
 8004f4e:	4641      	mov	r1, r8
 8004f50:	4620      	mov	r0, r4
 8004f52:	f7ff fdf7 	bl	8004b44 <I2C_WaitOnTXISFlagUntilTimeout>
 8004f56:	bb20      	cbnz	r0, 8004fa2 <HAL_I2C_Mem_Read+0xe2>
 8004f58:	f1b9 0f01 	cmp.w	r9, #1
 8004f5c:	6823      	ldr	r3, [r4, #0]
 8004f5e:	d116      	bne.n	8004f8e <HAL_I2C_Mem_Read+0xce>
 8004f60:	b2f6      	uxtb	r6, r6
 8004f62:	629e      	str	r6, [r3, #40]	@ 0x28
 8004f64:	2200      	movs	r2, #0
 8004f66:	9500      	str	r5, [sp, #0]
 8004f68:	4643      	mov	r3, r8
 8004f6a:	2140      	movs	r1, #64	@ 0x40
 8004f6c:	4620      	mov	r0, r4
 8004f6e:	f7ff fe14 	bl	8004b9a <I2C_WaitOnFlagUntilTimeout>
 8004f72:	b9b0      	cbnz	r0, 8004fa2 <HAL_I2C_Mem_Read+0xe2>
 8004f74:	8d63      	ldrh	r3, [r4, #42]	@ 0x2a
 8004f76:	b29b      	uxth	r3, r3
 8004f78:	2bff      	cmp	r3, #255	@ 0xff
 8004f7a:	4b3f      	ldr	r3, [pc, #252]	@ (8005078 <HAL_I2C_Mem_Read+0x1b8>)
 8004f7c:	d815      	bhi.n	8004faa <HAL_I2C_Mem_Read+0xea>
 8004f7e:	8d62      	ldrh	r2, [r4, #42]	@ 0x2a
 8004f80:	b292      	uxth	r2, r2
 8004f82:	8522      	strh	r2, [r4, #40]	@ 0x28
 8004f84:	9300      	str	r3, [sp, #0]
 8004f86:	b2d2      	uxtb	r2, r2
 8004f88:	f04f 7300 	mov.w	r3, #33554432	@ 0x2000000
 8004f8c:	e012      	b.n	8004fb4 <HAL_I2C_Mem_Read+0xf4>
 8004f8e:	0a32      	lsrs	r2, r6, #8
 8004f90:	629a      	str	r2, [r3, #40]	@ 0x28
 8004f92:	4641      	mov	r1, r8
 8004f94:	462a      	mov	r2, r5
 8004f96:	4620      	mov	r0, r4
 8004f98:	f7ff fdd4 	bl	8004b44 <I2C_WaitOnTXISFlagUntilTimeout>
 8004f9c:	b908      	cbnz	r0, 8004fa2 <HAL_I2C_Mem_Read+0xe2>
 8004f9e:	6823      	ldr	r3, [r4, #0]
 8004fa0:	e7de      	b.n	8004f60 <HAL_I2C_Mem_Read+0xa0>
 8004fa2:	2300      	movs	r3, #0
 8004fa4:	f884 3040 	strb.w	r3, [r4, #64]	@ 0x40
 8004fa8:	e7a1      	b.n	8004eee <HAL_I2C_Mem_Read+0x2e>
 8004faa:	2201      	movs	r2, #1
 8004fac:	8522      	strh	r2, [r4, #40]	@ 0x28
 8004fae:	9300      	str	r3, [sp, #0]
 8004fb0:	f04f 7380 	mov.w	r3, #16777216	@ 0x1000000
 8004fb4:	4639      	mov	r1, r7
 8004fb6:	4620      	mov	r0, r4
 8004fb8:	f7ff fd2e 	bl	8004a18 <I2C_TransferConfig>
 8004fbc:	9500      	str	r5, [sp, #0]
 8004fbe:	4643      	mov	r3, r8
 8004fc0:	2200      	movs	r2, #0
 8004fc2:	2104      	movs	r1, #4
 8004fc4:	4620      	mov	r0, r4
 8004fc6:	f7ff fde8 	bl	8004b9a <I2C_WaitOnFlagUntilTimeout>
 8004fca:	2800      	cmp	r0, #0
 8004fcc:	d18f      	bne.n	8004eee <HAL_I2C_Mem_Read+0x2e>
 8004fce:	6823      	ldr	r3, [r4, #0]
 8004fd0:	6a5a      	ldr	r2, [r3, #36]	@ 0x24
 8004fd2:	6a63      	ldr	r3, [r4, #36]	@ 0x24
 8004fd4:	701a      	strb	r2, [r3, #0]
 8004fd6:	6a63      	ldr	r3, [r4, #36]	@ 0x24
 8004fd8:	8d22      	ldrh	r2, [r4, #40]	@ 0x28
 8004fda:	3301      	adds	r3, #1
 8004fdc:	6263      	str	r3, [r4, #36]	@ 0x24
 8004fde:	8d63      	ldrh	r3, [r4, #42]	@ 0x2a
 8004fe0:	3b01      	subs	r3, #1
 8004fe2:	b29b      	uxth	r3, r3
 8004fe4:	8563      	strh	r3, [r4, #42]	@ 0x2a
 8004fe6:	8d63      	ldrh	r3, [r4, #42]	@ 0x2a
 8004fe8:	3a01      	subs	r2, #1
 8004fea:	b292      	uxth	r2, r2
 8004fec:	b29b      	uxth	r3, r3
 8004fee:	8522      	strh	r2, [r4, #40]	@ 0x28
 8004ff0:	b1b3      	cbz	r3, 8005020 <HAL_I2C_Mem_Read+0x160>
 8004ff2:	b9aa      	cbnz	r2, 8005020 <HAL_I2C_Mem_Read+0x160>
 8004ff4:	9500      	str	r5, [sp, #0]
 8004ff6:	4643      	mov	r3, r8
 8004ff8:	2180      	movs	r1, #128	@ 0x80
 8004ffa:	4620      	mov	r0, r4
 8004ffc:	f7ff fdcd 	bl	8004b9a <I2C_WaitOnFlagUntilTimeout>
 8005000:	2800      	cmp	r0, #0
 8005002:	f47f af74 	bne.w	8004eee <HAL_I2C_Mem_Read+0x2e>
 8005006:	8d63      	ldrh	r3, [r4, #42]	@ 0x2a
 8005008:	b29b      	uxth	r3, r3
 800500a:	2bff      	cmp	r3, #255	@ 0xff
 800500c:	d928      	bls.n	8005060 <HAL_I2C_Mem_Read+0x1a0>
 800500e:	2201      	movs	r2, #1
 8005010:	8522      	strh	r2, [r4, #40]	@ 0x28
 8005012:	f04f 7380 	mov.w	r3, #16777216	@ 0x1000000
 8005016:	9000      	str	r0, [sp, #0]
 8005018:	4639      	mov	r1, r7
 800501a:	4620      	mov	r0, r4
 800501c:	f7ff fcfc 	bl	8004a18 <I2C_TransferConfig>
 8005020:	8d63      	ldrh	r3, [r4, #42]	@ 0x2a
 8005022:	b29b      	uxth	r3, r3
 8005024:	2b00      	cmp	r3, #0
 8005026:	d1c9      	bne.n	8004fbc <HAL_I2C_Mem_Read+0xfc>
 8005028:	462a      	mov	r2, r5
 800502a:	4641      	mov	r1, r8
 800502c:	4620      	mov	r0, r4
 800502e:	f7ff fdef 	bl	8004c10 <I2C_WaitOnSTOPFlagUntilTimeout>
 8005032:	2800      	cmp	r0, #0
 8005034:	f47f af5b 	bne.w	8004eee <HAL_I2C_Mem_Read+0x2e>
 8005038:	6823      	ldr	r3, [r4, #0]
 800503a:	2120      	movs	r1, #32
 800503c:	61d9      	str	r1, [r3, #28]
 800503e:	685a      	ldr	r2, [r3, #4]
 8005040:	f022 72ff 	bic.w	r2, r2, #33423360	@ 0x1fe0000
 8005044:	f422 328b 	bic.w	r2, r2, #71168	@ 0x11600
 8005048:	f422 72ff 	bic.w	r2, r2, #510	@ 0x1fe
 800504c:	f022 0201 	bic.w	r2, r2, #1
 8005050:	605a      	str	r2, [r3, #4]
 8005052:	f884 1041 	strb.w	r1, [r4, #65]	@ 0x41
 8005056:	f884 0040 	strb.w	r0, [r4, #64]	@ 0x40
 800505a:	f884 0042 	strb.w	r0, [r4, #66]	@ 0x42
 800505e:	e747      	b.n	8004ef0 <HAL_I2C_Mem_Read+0x30>
 8005060:	8d62      	ldrh	r2, [r4, #42]	@ 0x2a
 8005062:	b292      	uxth	r2, r2
 8005064:	8522      	strh	r2, [r4, #40]	@ 0x28
 8005066:	f04f 7300 	mov.w	r3, #33554432	@ 0x2000000
 800506a:	9000      	str	r0, [sp, #0]
 800506c:	b2d2      	uxtb	r2, r2
 800506e:	e7d3      	b.n	8005018 <HAL_I2C_Mem_Read+0x158>
 8005070:	2002      	movs	r0, #2
 8005072:	e73d      	b.n	8004ef0 <HAL_I2C_Mem_Read+0x30>
 8005074:	80002000 	.word	0x80002000
 8005078:	80002400 	.word	0x80002400

0800507c <HAL_I2C_IsDeviceReady>:
 800507c:	e92d 43f0 	stmdb	sp!, {r4, r5, r6, r7, r8, r9, lr}
 8005080:	b085      	sub	sp, #20
 8005082:	461d      	mov	r5, r3
 8005084:	2300      	movs	r3, #0
 8005086:	9303      	str	r3, [sp, #12]
 8005088:	f890 3041 	ldrb.w	r3, [r0, #65]	@ 0x41
 800508c:	2b20      	cmp	r3, #32
 800508e:	4604      	mov	r4, r0
 8005090:	4617      	mov	r7, r2
 8005092:	d172      	bne.n	800517a <HAL_I2C_IsDeviceReady+0xfe>
 8005094:	6803      	ldr	r3, [r0, #0]
 8005096:	699b      	ldr	r3, [r3, #24]
 8005098:	f413 4300 	ands.w	r3, r3, #32768	@ 0x8000
 800509c:	d16d      	bne.n	800517a <HAL_I2C_IsDeviceReady+0xfe>
 800509e:	f890 2040 	ldrb.w	r2, [r0, #64]	@ 0x40
 80050a2:	2a01      	cmp	r2, #1
 80050a4:	d069      	beq.n	800517a <HAL_I2C_IsDeviceReady+0xfe>
 80050a6:	2201      	movs	r2, #1
 80050a8:	f3c1 0609 	ubfx	r6, r1, #0, #10
 80050ac:	f880 2040 	strb.w	r2, [r0, #64]	@ 0x40
 80050b0:	f046 7800 	orr.w	r8, r6, #33554432	@ 0x2000000
 80050b4:	2224      	movs	r2, #36	@ 0x24
 80050b6:	f880 2041 	strb.w	r2, [r0, #65]	@ 0x41
 80050ba:	f448 5820 	orr.w	r8, r8, #10240	@ 0x2800
 80050be:	6443      	str	r3, [r0, #68]	@ 0x44
 80050c0:	68e3      	ldr	r3, [r4, #12]
 80050c2:	6822      	ldr	r2, [r4, #0]
 80050c4:	2b01      	cmp	r3, #1
 80050c6:	bf06      	itte	eq
 80050c8:	f046 7300 	orreq.w	r3, r6, #33554432	@ 0x2000000
 80050cc:	f443 5300 	orreq.w	r3, r3, #8192	@ 0x2000
 80050d0:	4643      	movne	r3, r8
 80050d2:	6053      	str	r3, [r2, #4]
 80050d4:	f7fe fdc4 	bl	8003c60 <HAL_GetTick>
 80050d8:	4681      	mov	r9, r0
 80050da:	6822      	ldr	r2, [r4, #0]
 80050dc:	6993      	ldr	r3, [r2, #24]
 80050de:	6992      	ldr	r2, [r2, #24]
 80050e0:	f3c3 1340 	ubfx	r3, r3, #5, #1
 80050e4:	f3c2 1200 	ubfx	r2, r2, #4, #1
 80050e8:	4313      	orrs	r3, r2
 80050ea:	d016      	beq.n	800511a <HAL_I2C_IsDeviceReady+0x9e>
 80050ec:	6823      	ldr	r3, [r4, #0]
 80050ee:	699a      	ldr	r2, [r3, #24]
 80050f0:	f8cd 9000 	str.w	r9, [sp]
 80050f4:	f012 0210 	ands.w	r2, r2, #16
 80050f8:	462b      	mov	r3, r5
 80050fa:	d124      	bne.n	8005146 <HAL_I2C_IsDeviceReady+0xca>
 80050fc:	2120      	movs	r1, #32
 80050fe:	4620      	mov	r0, r4
 8005100:	f7ff fd4b 	bl	8004b9a <I2C_WaitOnFlagUntilTimeout>
 8005104:	b9e8      	cbnz	r0, 8005142 <HAL_I2C_IsDeviceReady+0xc6>
 8005106:	6822      	ldr	r2, [r4, #0]
 8005108:	2320      	movs	r3, #32
 800510a:	61d3      	str	r3, [r2, #28]
 800510c:	f884 3041 	strb.w	r3, [r4, #65]	@ 0x41
 8005110:	f884 0040 	strb.w	r0, [r4, #64]	@ 0x40
 8005114:	b005      	add	sp, #20
 8005116:	e8bd 83f0 	ldmia.w	sp!, {r4, r5, r6, r7, r8, r9, pc}
 800511a:	1c6b      	adds	r3, r5, #1
 800511c:	d0dd      	beq.n	80050da <HAL_I2C_IsDeviceReady+0x5e>
 800511e:	f7fe fd9f 	bl	8003c60 <HAL_GetTick>
 8005122:	eba0 0009 	sub.w	r0, r0, r9
 8005126:	42a8      	cmp	r0, r5
 8005128:	d801      	bhi.n	800512e <HAL_I2C_IsDeviceReady+0xb2>
 800512a:	2d00      	cmp	r5, #0
 800512c:	d1d5      	bne.n	80050da <HAL_I2C_IsDeviceReady+0x5e>
 800512e:	2320      	movs	r3, #32
 8005130:	f884 3041 	strb.w	r3, [r4, #65]	@ 0x41
 8005134:	6c63      	ldr	r3, [r4, #68]	@ 0x44
 8005136:	f043 0320 	orr.w	r3, r3, #32
 800513a:	6463      	str	r3, [r4, #68]	@ 0x44
 800513c:	2300      	movs	r3, #0
 800513e:	f884 3040 	strb.w	r3, [r4, #64]	@ 0x40
 8005142:	2001      	movs	r0, #1
 8005144:	e7e6      	b.n	8005114 <HAL_I2C_IsDeviceReady+0x98>
 8005146:	2200      	movs	r2, #0
 8005148:	2120      	movs	r1, #32
 800514a:	4620      	mov	r0, r4
 800514c:	f7ff fd25 	bl	8004b9a <I2C_WaitOnFlagUntilTimeout>
 8005150:	2800      	cmp	r0, #0
 8005152:	d1f6      	bne.n	8005142 <HAL_I2C_IsDeviceReady+0xc6>
 8005154:	6823      	ldr	r3, [r4, #0]
 8005156:	2210      	movs	r2, #16
 8005158:	61da      	str	r2, [r3, #28]
 800515a:	2220      	movs	r2, #32
 800515c:	61da      	str	r2, [r3, #28]
 800515e:	9b03      	ldr	r3, [sp, #12]
 8005160:	3301      	adds	r3, #1
 8005162:	9303      	str	r3, [sp, #12]
 8005164:	9b03      	ldr	r3, [sp, #12]
 8005166:	42bb      	cmp	r3, r7
 8005168:	d3aa      	bcc.n	80050c0 <HAL_I2C_IsDeviceReady+0x44>
 800516a:	f884 2041 	strb.w	r2, [r4, #65]	@ 0x41
 800516e:	6c63      	ldr	r3, [r4, #68]	@ 0x44
 8005170:	f884 0040 	strb.w	r0, [r4, #64]	@ 0x40
 8005174:	4313      	orrs	r3, r2
 8005176:	6463      	str	r3, [r4, #68]	@ 0x44
 8005178:	e7e3      	b.n	8005142 <HAL_I2C_IsDeviceReady+0xc6>
 800517a:	2002      	movs	r0, #2
 800517c:	e7ca      	b.n	8005114 <HAL_I2C_IsDeviceReady+0x98>

0800517e <HAL_I2CEx_ConfigAnalogFilter>:
 800517e:	b510      	push	{r4, lr}
 8005180:	f890 2041 	ldrb.w	r2, [r0, #65]	@ 0x41
 8005184:	2a20      	cmp	r2, #32
 8005186:	4603      	mov	r3, r0
 8005188:	b2d4      	uxtb	r4, r2
 800518a:	d11c      	bne.n	80051c6 <HAL_I2CEx_ConfigAnalogFilter+0x48>
 800518c:	f890 2040 	ldrb.w	r2, [r0, #64]	@ 0x40
 8005190:	2a01      	cmp	r2, #1
 8005192:	d018      	beq.n	80051c6 <HAL_I2CEx_ConfigAnalogFilter+0x48>
 8005194:	2224      	movs	r2, #36	@ 0x24
 8005196:	f880 2041 	strb.w	r2, [r0, #65]	@ 0x41
 800519a:	6802      	ldr	r2, [r0, #0]
 800519c:	6810      	ldr	r0, [r2, #0]
 800519e:	f020 0001 	bic.w	r0, r0, #1
 80051a2:	6010      	str	r0, [r2, #0]
 80051a4:	6810      	ldr	r0, [r2, #0]
 80051a6:	f420 5080 	bic.w	r0, r0, #4096	@ 0x1000
 80051aa:	6010      	str	r0, [r2, #0]
 80051ac:	6810      	ldr	r0, [r2, #0]
 80051ae:	4301      	orrs	r1, r0
 80051b0:	6011      	str	r1, [r2, #0]
 80051b2:	6811      	ldr	r1, [r2, #0]
 80051b4:	2000      	movs	r0, #0
 80051b6:	f041 0101 	orr.w	r1, r1, #1
 80051ba:	6011      	str	r1, [r2, #0]
 80051bc:	f883 4041 	strb.w	r4, [r3, #65]	@ 0x41
 80051c0:	f883 0040 	strb.w	r0, [r3, #64]	@ 0x40
 80051c4:	bd10      	pop	{r4, pc}
 80051c6:	2002      	movs	r0, #2
 80051c8:	e7fc      	b.n	80051c4 <HAL_I2CEx_ConfigAnalogFilter+0x46>

080051ca <HAL_I2CEx_ConfigDigitalFilter>:
 80051ca:	b510      	push	{r4, lr}
 80051cc:	f890 2041 	ldrb.w	r2, [r0, #65]	@ 0x41
 80051d0:	2a20      	cmp	r2, #32
 80051d2:	4603      	mov	r3, r0
 80051d4:	b2d4      	uxtb	r4, r2
 80051d6:	d11b      	bne.n	8005210 <HAL_I2CEx_ConfigDigitalFilter+0x46>
 80051d8:	f890 2040 	ldrb.w	r2, [r0, #64]	@ 0x40
 80051dc:	2a01      	cmp	r2, #1
 80051de:	d017      	beq.n	8005210 <HAL_I2CEx_ConfigDigitalFilter+0x46>
 80051e0:	2224      	movs	r2, #36	@ 0x24
 80051e2:	f880 2041 	strb.w	r2, [r0, #65]	@ 0x41
 80051e6:	6802      	ldr	r2, [r0, #0]
 80051e8:	6810      	ldr	r0, [r2, #0]
 80051ea:	f020 0001 	bic.w	r0, r0, #1
 80051ee:	6010      	str	r0, [r2, #0]
 80051f0:	6810      	ldr	r0, [r2, #0]
 80051f2:	f420 6070 	bic.w	r0, r0, #3840	@ 0xf00
 80051f6:	ea40 2101 	orr.w	r1, r0, r1, lsl #8
 80051fa:	6011      	str	r1, [r2, #0]
 80051fc:	6811      	ldr	r1, [r2, #0]
 80051fe:	2000      	movs	r0, #0
 8005200:	f041 0101 	orr.w	r1, r1, #1
 8005204:	6011      	str	r1, [r2, #0]
 8005206:	f883 4041 	strb.w	r4, [r3, #65]	@ 0x41
 800520a:	f883 0040 	strb.w	r0, [r3, #64]	@ 0x40
 800520e:	bd10      	pop	{r4, pc}
 8005210:	2002      	movs	r0, #2
 8005212:	e7fc      	b.n	800520e <HAL_I2CEx_ConfigDigitalFilter+0x44>

08005214 <HAL_PWREx_GetVoltageRange>:
 8005214:	4b02      	ldr	r3, [pc, #8]	@ (8005220 <HAL_PWREx_GetVoltageRange+0xc>)
 8005216:	6818      	ldr	r0, [r3, #0]
 8005218:	f400 60c0 	and.w	r0, r0, #1536	@ 0x600
 800521c:	4770      	bx	lr
 800521e:	bf00      	nop
 8005220:	40007000 	.word	0x40007000

08005224 <HAL_PWREx_ControlVoltageScaling>:
 8005224:	4a17      	ldr	r2, [pc, #92]	@ (8005284 <HAL_PWREx_ControlVoltageScaling+0x60>)
 8005226:	6813      	ldr	r3, [r2, #0]
 8005228:	f5b0 7f00 	cmp.w	r0, #512	@ 0x200
 800522c:	f403 63c0 	and.w	r3, r3, #1536	@ 0x600
 8005230:	d11b      	bne.n	800526a <HAL_PWREx_ControlVoltageScaling+0x46>
 8005232:	f5b3 7f00 	cmp.w	r3, #512	@ 0x200
 8005236:	d01b      	beq.n	8005270 <HAL_PWREx_ControlVoltageScaling+0x4c>
 8005238:	6813      	ldr	r3, [r2, #0]
 800523a:	f423 63c0 	bic.w	r3, r3, #1536	@ 0x600
 800523e:	f443 7300 	orr.w	r3, r3, #512	@ 0x200
 8005242:	6013      	str	r3, [r2, #0]
 8005244:	4b10      	ldr	r3, [pc, #64]	@ (8005288 <HAL_PWREx_ControlVoltageScaling+0x64>)
 8005246:	681b      	ldr	r3, [r3, #0]
 8005248:	2132      	movs	r1, #50	@ 0x32
 800524a:	434b      	muls	r3, r1
 800524c:	490f      	ldr	r1, [pc, #60]	@ (800528c <HAL_PWREx_ControlVoltageScaling+0x68>)
 800524e:	fbb3 f3f1 	udiv	r3, r3, r1
 8005252:	3301      	adds	r3, #1
 8005254:	6951      	ldr	r1, [r2, #20]
 8005256:	0549      	lsls	r1, r1, #21
 8005258:	d500      	bpl.n	800525c <HAL_PWREx_ControlVoltageScaling+0x38>
 800525a:	b923      	cbnz	r3, 8005266 <HAL_PWREx_ControlVoltageScaling+0x42>
 800525c:	6953      	ldr	r3, [r2, #20]
 800525e:	055b      	lsls	r3, r3, #21
 8005260:	d506      	bpl.n	8005270 <HAL_PWREx_ControlVoltageScaling+0x4c>
 8005262:	2003      	movs	r0, #3
 8005264:	4770      	bx	lr
 8005266:	3b01      	subs	r3, #1
 8005268:	e7f4      	b.n	8005254 <HAL_PWREx_ControlVoltageScaling+0x30>
 800526a:	f5b3 6f80 	cmp.w	r3, #1024	@ 0x400
 800526e:	d101      	bne.n	8005274 <HAL_PWREx_ControlVoltageScaling+0x50>
 8005270:	2000      	movs	r0, #0
 8005272:	4770      	bx	lr
 8005274:	6813      	ldr	r3, [r2, #0]
 8005276:	f423 63c0 	bic.w	r3, r3, #1536	@ 0x600
 800527a:	f443 6380 	orr.w	r3, r3, #1024	@ 0x400
 800527e:	6013      	str	r3, [r2, #0]
 8005280:	e7f6      	b.n	8005270 <HAL_PWREx_ControlVoltageScaling+0x4c>
 8005282:	bf00      	nop
 8005284:	40007000 	.word	0x40007000
 8005288:	20000000 	.word	0x20000000
 800528c:	000f4240 	.word	0x000f4240

08005290 <RCC_SetFlashLatencyFromMSIRange>:
 8005290:	b537      	push	{r0, r1, r2, r4, r5, lr}
 8005292:	4d1e      	ldr	r5, [pc, #120]	@ (800530c <RCC_SetFlashLatencyFromMSIRange+0x7c>)
 8005294:	6dab      	ldr	r3, [r5, #88]	@ 0x58
 8005296:	00da      	lsls	r2, r3, #3
 8005298:	4604      	mov	r4, r0
 800529a:	d518      	bpl.n	80052ce <RCC_SetFlashLatencyFromMSIRange+0x3e>
 800529c:	f7ff ffba 	bl	8005214 <HAL_PWREx_GetVoltageRange>
 80052a0:	f5b0 7f00 	cmp.w	r0, #512	@ 0x200
 80052a4:	d123      	bne.n	80052ee <RCC_SetFlashLatencyFromMSIRange+0x5e>
 80052a6:	2c80      	cmp	r4, #128	@ 0x80
 80052a8:	d929      	bls.n	80052fe <RCC_SetFlashLatencyFromMSIRange+0x6e>
 80052aa:	2ca0      	cmp	r4, #160	@ 0xa0
 80052ac:	bf8c      	ite	hi
 80052ae:	2402      	movhi	r4, #2
 80052b0:	2401      	movls	r4, #1
 80052b2:	4917      	ldr	r1, [pc, #92]	@ (8005310 <RCC_SetFlashLatencyFromMSIRange+0x80>)
 80052b4:	680a      	ldr	r2, [r1, #0]
 80052b6:	f022 0207 	bic.w	r2, r2, #7
 80052ba:	4322      	orrs	r2, r4
 80052bc:	600a      	str	r2, [r1, #0]
 80052be:	6808      	ldr	r0, [r1, #0]
 80052c0:	f000 0007 	and.w	r0, r0, #7
 80052c4:	1b00      	subs	r0, r0, r4
 80052c6:	bf18      	it	ne
 80052c8:	2001      	movne	r0, #1
 80052ca:	b003      	add	sp, #12
 80052cc:	bd30      	pop	{r4, r5, pc}
 80052ce:	6dab      	ldr	r3, [r5, #88]	@ 0x58
 80052d0:	f043 5380 	orr.w	r3, r3, #268435456	@ 0x10000000
 80052d4:	65ab      	str	r3, [r5, #88]	@ 0x58
 80052d6:	6dab      	ldr	r3, [r5, #88]	@ 0x58
 80052d8:	f003 5380 	and.w	r3, r3, #268435456	@ 0x10000000
 80052dc:	9301      	str	r3, [sp, #4]
 80052de:	9b01      	ldr	r3, [sp, #4]
 80052e0:	f7ff ff98 	bl	8005214 <HAL_PWREx_GetVoltageRange>
 80052e4:	6dab      	ldr	r3, [r5, #88]	@ 0x58
 80052e6:	f023 5380 	bic.w	r3, r3, #268435456	@ 0x10000000
 80052ea:	65ab      	str	r3, [r5, #88]	@ 0x58
 80052ec:	e7d8      	b.n	80052a0 <RCC_SetFlashLatencyFromMSIRange+0x10>
 80052ee:	2c80      	cmp	r4, #128	@ 0x80
 80052f0:	d807      	bhi.n	8005302 <RCC_SetFlashLatencyFromMSIRange+0x72>
 80052f2:	d008      	beq.n	8005306 <RCC_SetFlashLatencyFromMSIRange+0x76>
 80052f4:	f1a4 0370 	sub.w	r3, r4, #112	@ 0x70
 80052f8:	425c      	negs	r4, r3
 80052fa:	415c      	adcs	r4, r3
 80052fc:	e7d9      	b.n	80052b2 <RCC_SetFlashLatencyFromMSIRange+0x22>
 80052fe:	2400      	movs	r4, #0
 8005300:	e7d7      	b.n	80052b2 <RCC_SetFlashLatencyFromMSIRange+0x22>
 8005302:	2403      	movs	r4, #3
 8005304:	e7d5      	b.n	80052b2 <RCC_SetFlashLatencyFromMSIRange+0x22>
 8005306:	2402      	movs	r4, #2
 8005308:	e7d3      	b.n	80052b2 <RCC_SetFlashLatencyFromMSIRange+0x22>
 800530a:	bf00      	nop
 800530c:	40021000 	.word	0x40021000
 8005310:	40022000 	.word	0x40022000

08005314 <HAL_RCC_GetSysClockFreq>:
 8005314:	4b20      	ldr	r3, [pc, #128]	@ (8005398 <HAL_RCC_GetSysClockFreq+0x84>)
 8005316:	689a      	ldr	r2, [r3, #8]
 8005318:	68d9      	ldr	r1, [r3, #12]
 800531a:	f012 020c 	ands.w	r2, r2, #12
 800531e:	d005      	beq.n	800532c <HAL_RCC_GetSysClockFreq+0x18>
 8005320:	2a0c      	cmp	r2, #12
 8005322:	d12c      	bne.n	800537e <HAL_RCC_GetSysClockFreq+0x6a>
 8005324:	f001 0103 	and.w	r1, r1, #3
 8005328:	2901      	cmp	r1, #1
 800532a:	d12f      	bne.n	800538c <HAL_RCC_GetSysClockFreq+0x78>
 800532c:	6819      	ldr	r1, [r3, #0]
 800532e:	481b      	ldr	r0, [pc, #108]	@ (800539c <HAL_RCC_GetSysClockFreq+0x88>)
 8005330:	0709      	lsls	r1, r1, #28
 8005332:	bf55      	itete	pl
 8005334:	f8d3 1094 	ldrpl.w	r1, [r3, #148]	@ 0x94
 8005338:	6819      	ldrmi	r1, [r3, #0]
 800533a:	f3c1 2103 	ubfxpl	r1, r1, #8, #4
 800533e:	f3c1 1103 	ubfxmi	r1, r1, #4, #4
 8005342:	f850 0021 	ldr.w	r0, [r0, r1, lsl #2]
 8005346:	b332      	cbz	r2, 8005396 <HAL_RCC_GetSysClockFreq+0x82>
 8005348:	68da      	ldr	r2, [r3, #12]
 800534a:	f002 0203 	and.w	r2, r2, #3
 800534e:	2a02      	cmp	r2, #2
 8005350:	d01e      	beq.n	8005390 <HAL_RCC_GetSysClockFreq+0x7c>
 8005352:	4913      	ldr	r1, [pc, #76]	@ (80053a0 <HAL_RCC_GetSysClockFreq+0x8c>)
 8005354:	2a03      	cmp	r2, #3
 8005356:	bf08      	it	eq
 8005358:	4608      	moveq	r0, r1
 800535a:	68d9      	ldr	r1, [r3, #12]
 800535c:	68da      	ldr	r2, [r3, #12]
 800535e:	f3c2 2206 	ubfx	r2, r2, #8, #7
 8005362:	4342      	muls	r2, r0
 8005364:	68d8      	ldr	r0, [r3, #12]
 8005366:	f3c0 6041 	ubfx	r0, r0, #25, #2
 800536a:	f3c1 1102 	ubfx	r1, r1, #4, #3
 800536e:	3001      	adds	r0, #1
 8005370:	3101      	adds	r1, #1
 8005372:	0040      	lsls	r0, r0, #1
 8005374:	fbb2 f2f1 	udiv	r2, r2, r1
 8005378:	fbb2 f0f0 	udiv	r0, r2, r0
 800537c:	4770      	bx	lr
 800537e:	2a04      	cmp	r2, #4
 8005380:	d008      	beq.n	8005394 <HAL_RCC_GetSysClockFreq+0x80>
 8005382:	2a08      	cmp	r2, #8
 8005384:	4806      	ldr	r0, [pc, #24]	@ (80053a0 <HAL_RCC_GetSysClockFreq+0x8c>)
 8005386:	bf18      	it	ne
 8005388:	2000      	movne	r0, #0
 800538a:	4770      	bx	lr
 800538c:	2000      	movs	r0, #0
 800538e:	e7db      	b.n	8005348 <HAL_RCC_GetSysClockFreq+0x34>
 8005390:	4804      	ldr	r0, [pc, #16]	@ (80053a4 <HAL_RCC_GetSysClockFreq+0x90>)
 8005392:	e7e2      	b.n	800535a <HAL_RCC_GetSysClockFreq+0x46>
 8005394:	4803      	ldr	r0, [pc, #12]	@ (80053a4 <HAL_RCC_GetSysClockFreq+0x90>)
 8005396:	4770      	bx	lr
 8005398:	40021000 	.word	0x40021000
 800539c:	08006be4 	.word	0x08006be4
 80053a0:	007a1200 	.word	0x007a1200
 80053a4:	00f42400 	.word	0x00f42400

080053a8 <HAL_RCC_OscConfig>:
 80053a8:	e92d 43f7 	stmdb	sp!, {r0, r1, r2, r4, r5, r6, r7, r8, r9, lr}
 80053ac:	4605      	mov	r5, r0
 80053ae:	b918      	cbnz	r0, 80053b8 <HAL_RCC_OscConfig+0x10>
 80053b0:	2001      	movs	r0, #1
 80053b2:	b003      	add	sp, #12
 80053b4:	e8bd 83f0 	ldmia.w	sp!, {r4, r5, r6, r7, r8, r9, pc}
 80053b8:	4c94      	ldr	r4, [pc, #592]	@ (800560c <HAL_RCC_OscConfig+0x264>)
 80053ba:	6803      	ldr	r3, [r0, #0]
 80053bc:	68a6      	ldr	r6, [r4, #8]
 80053be:	68e7      	ldr	r7, [r4, #12]
 80053c0:	06db      	lsls	r3, r3, #27
 80053c2:	f006 060c 	and.w	r6, r6, #12
 80053c6:	f007 0703 	and.w	r7, r7, #3
 80053ca:	d53d      	bpl.n	8005448 <HAL_RCC_OscConfig+0xa0>
 80053cc:	b11e      	cbz	r6, 80053d6 <HAL_RCC_OscConfig+0x2e>
 80053ce:	2e0c      	cmp	r6, #12
 80053d0:	d16a      	bne.n	80054a8 <HAL_RCC_OscConfig+0x100>
 80053d2:	2f01      	cmp	r7, #1
 80053d4:	d168      	bne.n	80054a8 <HAL_RCC_OscConfig+0x100>
 80053d6:	6823      	ldr	r3, [r4, #0]
 80053d8:	0798      	lsls	r0, r3, #30
 80053da:	d502      	bpl.n	80053e2 <HAL_RCC_OscConfig+0x3a>
 80053dc:	69eb      	ldr	r3, [r5, #28]
 80053de:	2b00      	cmp	r3, #0
 80053e0:	d0e6      	beq.n	80053b0 <HAL_RCC_OscConfig+0x8>
 80053e2:	6823      	ldr	r3, [r4, #0]
 80053e4:	6a68      	ldr	r0, [r5, #36]	@ 0x24
 80053e6:	0719      	lsls	r1, r3, #28
 80053e8:	bf56      	itet	pl
 80053ea:	f8d4 3094 	ldrpl.w	r3, [r4, #148]	@ 0x94
 80053ee:	6823      	ldrmi	r3, [r4, #0]
 80053f0:	091b      	lsrpl	r3, r3, #4
 80053f2:	f003 03f0 	and.w	r3, r3, #240	@ 0xf0
 80053f6:	4298      	cmp	r0, r3
 80053f8:	d93f      	bls.n	800547a <HAL_RCC_OscConfig+0xd2>
 80053fa:	f7ff ff49 	bl	8005290 <RCC_SetFlashLatencyFromMSIRange>
 80053fe:	2800      	cmp	r0, #0
 8005400:	d1d6      	bne.n	80053b0 <HAL_RCC_OscConfig+0x8>
 8005402:	6823      	ldr	r3, [r4, #0]
 8005404:	f043 0308 	orr.w	r3, r3, #8
 8005408:	6023      	str	r3, [r4, #0]
 800540a:	6823      	ldr	r3, [r4, #0]
 800540c:	6a6a      	ldr	r2, [r5, #36]	@ 0x24
 800540e:	f023 03f0 	bic.w	r3, r3, #240	@ 0xf0
 8005412:	4313      	orrs	r3, r2
 8005414:	6023      	str	r3, [r4, #0]
 8005416:	6863      	ldr	r3, [r4, #4]
 8005418:	6a2a      	ldr	r2, [r5, #32]
 800541a:	f423 437f 	bic.w	r3, r3, #65280	@ 0xff00
 800541e:	ea43 2302 	orr.w	r3, r3, r2, lsl #8
 8005422:	6063      	str	r3, [r4, #4]
 8005424:	f7ff ff76 	bl	8005314 <HAL_RCC_GetSysClockFreq>
 8005428:	68a3      	ldr	r3, [r4, #8]
 800542a:	4a79      	ldr	r2, [pc, #484]	@ (8005610 <HAL_RCC_OscConfig+0x268>)
 800542c:	f3c3 1303 	ubfx	r3, r3, #4, #4
 8005430:	5cd3      	ldrb	r3, [r2, r3]
 8005432:	f003 031f 	and.w	r3, r3, #31
 8005436:	40d8      	lsrs	r0, r3
 8005438:	4b76      	ldr	r3, [pc, #472]	@ (8005614 <HAL_RCC_OscConfig+0x26c>)
 800543a:	6018      	str	r0, [r3, #0]
 800543c:	4b76      	ldr	r3, [pc, #472]	@ (8005618 <HAL_RCC_OscConfig+0x270>)
 800543e:	6818      	ldr	r0, [r3, #0]
 8005440:	f7fe fbcc 	bl	8003bdc <HAL_InitTick>
 8005444:	2800      	cmp	r0, #0
 8005446:	d1b4      	bne.n	80053b2 <HAL_RCC_OscConfig+0xa>
 8005448:	682b      	ldr	r3, [r5, #0]
 800544a:	07d8      	lsls	r0, r3, #31
 800544c:	d463      	bmi.n	8005516 <HAL_RCC_OscConfig+0x16e>
 800544e:	682b      	ldr	r3, [r5, #0]
 8005450:	0799      	lsls	r1, r3, #30
 8005452:	f100 80a2 	bmi.w	800559a <HAL_RCC_OscConfig+0x1f2>
 8005456:	682b      	ldr	r3, [r5, #0]
 8005458:	0718      	lsls	r0, r3, #28
 800545a:	f100 80df 	bmi.w	800561c <HAL_RCC_OscConfig+0x274>
 800545e:	682b      	ldr	r3, [r5, #0]
 8005460:	0759      	lsls	r1, r3, #29
 8005462:	f100 812f 	bmi.w	80056c4 <HAL_RCC_OscConfig+0x31c>
 8005466:	682b      	ldr	r3, [r5, #0]
 8005468:	0699      	lsls	r1, r3, #26
 800546a:	f100 81ab 	bmi.w	80057c4 <HAL_RCC_OscConfig+0x41c>
 800546e:	6aeb      	ldr	r3, [r5, #44]	@ 0x2c
 8005470:	2b00      	cmp	r3, #0
 8005472:	f040 81d1 	bne.w	8005818 <HAL_RCC_OscConfig+0x470>
 8005476:	2000      	movs	r0, #0
 8005478:	e79b      	b.n	80053b2 <HAL_RCC_OscConfig+0xa>
 800547a:	6823      	ldr	r3, [r4, #0]
 800547c:	f043 0308 	orr.w	r3, r3, #8
 8005480:	6023      	str	r3, [r4, #0]
 8005482:	6823      	ldr	r3, [r4, #0]
 8005484:	f023 03f0 	bic.w	r3, r3, #240	@ 0xf0
 8005488:	4303      	orrs	r3, r0
 800548a:	6023      	str	r3, [r4, #0]
 800548c:	6863      	ldr	r3, [r4, #4]
 800548e:	6a2a      	ldr	r2, [r5, #32]
 8005490:	f423 437f 	bic.w	r3, r3, #65280	@ 0xff00
 8005494:	ea43 2302 	orr.w	r3, r3, r2, lsl #8
 8005498:	6063      	str	r3, [r4, #4]
 800549a:	2e00      	cmp	r6, #0
 800549c:	d1c2      	bne.n	8005424 <HAL_RCC_OscConfig+0x7c>
 800549e:	f7ff fef7 	bl	8005290 <RCC_SetFlashLatencyFromMSIRange>
 80054a2:	2800      	cmp	r0, #0
 80054a4:	d0be      	beq.n	8005424 <HAL_RCC_OscConfig+0x7c>
 80054a6:	e783      	b.n	80053b0 <HAL_RCC_OscConfig+0x8>
 80054a8:	69eb      	ldr	r3, [r5, #28]
 80054aa:	b31b      	cbz	r3, 80054f4 <HAL_RCC_OscConfig+0x14c>
 80054ac:	6823      	ldr	r3, [r4, #0]
 80054ae:	f043 0301 	orr.w	r3, r3, #1
 80054b2:	6023      	str	r3, [r4, #0]
 80054b4:	f7fe fbd4 	bl	8003c60 <HAL_GetTick>
 80054b8:	4680      	mov	r8, r0
 80054ba:	6823      	ldr	r3, [r4, #0]
 80054bc:	079a      	lsls	r2, r3, #30
 80054be:	d511      	bpl.n	80054e4 <HAL_RCC_OscConfig+0x13c>
 80054c0:	6823      	ldr	r3, [r4, #0]
 80054c2:	f043 0308 	orr.w	r3, r3, #8
 80054c6:	6023      	str	r3, [r4, #0]
 80054c8:	6823      	ldr	r3, [r4, #0]
 80054ca:	6a6a      	ldr	r2, [r5, #36]	@ 0x24
 80054cc:	f023 03f0 	bic.w	r3, r3, #240	@ 0xf0
 80054d0:	4313      	orrs	r3, r2
 80054d2:	6023      	str	r3, [r4, #0]
 80054d4:	6863      	ldr	r3, [r4, #4]
 80054d6:	6a2a      	ldr	r2, [r5, #32]
 80054d8:	f423 437f 	bic.w	r3, r3, #65280	@ 0xff00
 80054dc:	ea43 2302 	orr.w	r3, r3, r2, lsl #8
 80054e0:	6063      	str	r3, [r4, #4]
 80054e2:	e7b1      	b.n	8005448 <HAL_RCC_OscConfig+0xa0>
 80054e4:	f7fe fbbc 	bl	8003c60 <HAL_GetTick>
 80054e8:	eba0 0008 	sub.w	r0, r0, r8
 80054ec:	2802      	cmp	r0, #2
 80054ee:	d9e4      	bls.n	80054ba <HAL_RCC_OscConfig+0x112>
 80054f0:	2003      	movs	r0, #3
 80054f2:	e75e      	b.n	80053b2 <HAL_RCC_OscConfig+0xa>
 80054f4:	6823      	ldr	r3, [r4, #0]
 80054f6:	f023 0301 	bic.w	r3, r3, #1
 80054fa:	6023      	str	r3, [r4, #0]
 80054fc:	f7fe fbb0 	bl	8003c60 <HAL_GetTick>
 8005500:	4680      	mov	r8, r0
 8005502:	6823      	ldr	r3, [r4, #0]
 8005504:	079b      	lsls	r3, r3, #30
 8005506:	d59f      	bpl.n	8005448 <HAL_RCC_OscConfig+0xa0>
 8005508:	f7fe fbaa 	bl	8003c60 <HAL_GetTick>
 800550c:	eba0 0008 	sub.w	r0, r0, r8
 8005510:	2802      	cmp	r0, #2
 8005512:	d9f6      	bls.n	8005502 <HAL_RCC_OscConfig+0x15a>
 8005514:	e7ec      	b.n	80054f0 <HAL_RCC_OscConfig+0x148>
 8005516:	2e08      	cmp	r6, #8
 8005518:	d003      	beq.n	8005522 <HAL_RCC_OscConfig+0x17a>
 800551a:	2e0c      	cmp	r6, #12
 800551c:	d108      	bne.n	8005530 <HAL_RCC_OscConfig+0x188>
 800551e:	2f03      	cmp	r7, #3
 8005520:	d106      	bne.n	8005530 <HAL_RCC_OscConfig+0x188>
 8005522:	6823      	ldr	r3, [r4, #0]
 8005524:	039a      	lsls	r2, r3, #14
 8005526:	d592      	bpl.n	800544e <HAL_RCC_OscConfig+0xa6>
 8005528:	686b      	ldr	r3, [r5, #4]
 800552a:	2b00      	cmp	r3, #0
 800552c:	d18f      	bne.n	800544e <HAL_RCC_OscConfig+0xa6>
 800552e:	e73f      	b.n	80053b0 <HAL_RCC_OscConfig+0x8>
 8005530:	686b      	ldr	r3, [r5, #4]
 8005532:	f5b3 3f80 	cmp.w	r3, #65536	@ 0x10000
 8005536:	d110      	bne.n	800555a <HAL_RCC_OscConfig+0x1b2>
 8005538:	6823      	ldr	r3, [r4, #0]
 800553a:	f443 3380 	orr.w	r3, r3, #65536	@ 0x10000
 800553e:	6023      	str	r3, [r4, #0]
 8005540:	f7fe fb8e 	bl	8003c60 <HAL_GetTick>
 8005544:	4680      	mov	r8, r0
 8005546:	6823      	ldr	r3, [r4, #0]
 8005548:	039b      	lsls	r3, r3, #14
 800554a:	d480      	bmi.n	800544e <HAL_RCC_OscConfig+0xa6>
 800554c:	f7fe fb88 	bl	8003c60 <HAL_GetTick>
 8005550:	eba0 0008 	sub.w	r0, r0, r8
 8005554:	2864      	cmp	r0, #100	@ 0x64
 8005556:	d9f6      	bls.n	8005546 <HAL_RCC_OscConfig+0x19e>
 8005558:	e7ca      	b.n	80054f0 <HAL_RCC_OscConfig+0x148>
 800555a:	f5b3 2fa0 	cmp.w	r3, #327680	@ 0x50000
 800555e:	d104      	bne.n	800556a <HAL_RCC_OscConfig+0x1c2>
 8005560:	6823      	ldr	r3, [r4, #0]
 8005562:	f443 2380 	orr.w	r3, r3, #262144	@ 0x40000
 8005566:	6023      	str	r3, [r4, #0]
 8005568:	e7e6      	b.n	8005538 <HAL_RCC_OscConfig+0x190>
 800556a:	6822      	ldr	r2, [r4, #0]
 800556c:	f422 3280 	bic.w	r2, r2, #65536	@ 0x10000
 8005570:	6022      	str	r2, [r4, #0]
 8005572:	6822      	ldr	r2, [r4, #0]
 8005574:	f422 2280 	bic.w	r2, r2, #262144	@ 0x40000
 8005578:	6022      	str	r2, [r4, #0]
 800557a:	2b00      	cmp	r3, #0
 800557c:	d1e0      	bne.n	8005540 <HAL_RCC_OscConfig+0x198>
 800557e:	f7fe fb6f 	bl	8003c60 <HAL_GetTick>
 8005582:	4680      	mov	r8, r0
 8005584:	6823      	ldr	r3, [r4, #0]
 8005586:	0398      	lsls	r0, r3, #14
 8005588:	f57f af61 	bpl.w	800544e <HAL_RCC_OscConfig+0xa6>
 800558c:	f7fe fb68 	bl	8003c60 <HAL_GetTick>
 8005590:	eba0 0008 	sub.w	r0, r0, r8
 8005594:	2864      	cmp	r0, #100	@ 0x64
 8005596:	d9f5      	bls.n	8005584 <HAL_RCC_OscConfig+0x1dc>
 8005598:	e7aa      	b.n	80054f0 <HAL_RCC_OscConfig+0x148>
 800559a:	2e04      	cmp	r6, #4
 800559c:	d003      	beq.n	80055a6 <HAL_RCC_OscConfig+0x1fe>
 800559e:	2e0c      	cmp	r6, #12
 80055a0:	d110      	bne.n	80055c4 <HAL_RCC_OscConfig+0x21c>
 80055a2:	2f02      	cmp	r7, #2
 80055a4:	d10e      	bne.n	80055c4 <HAL_RCC_OscConfig+0x21c>
 80055a6:	6823      	ldr	r3, [r4, #0]
 80055a8:	0559      	lsls	r1, r3, #21
 80055aa:	d503      	bpl.n	80055b4 <HAL_RCC_OscConfig+0x20c>
 80055ac:	68eb      	ldr	r3, [r5, #12]
 80055ae:	2b00      	cmp	r3, #0
 80055b0:	f43f aefe 	beq.w	80053b0 <HAL_RCC_OscConfig+0x8>
 80055b4:	6863      	ldr	r3, [r4, #4]
 80055b6:	692a      	ldr	r2, [r5, #16]
 80055b8:	f023 43fe 	bic.w	r3, r3, #2130706432	@ 0x7f000000
 80055bc:	ea43 6302 	orr.w	r3, r3, r2, lsl #24
 80055c0:	6063      	str	r3, [r4, #4]
 80055c2:	e748      	b.n	8005456 <HAL_RCC_OscConfig+0xae>
 80055c4:	68eb      	ldr	r3, [r5, #12]
 80055c6:	b17b      	cbz	r3, 80055e8 <HAL_RCC_OscConfig+0x240>
 80055c8:	6823      	ldr	r3, [r4, #0]
 80055ca:	f443 7380 	orr.w	r3, r3, #256	@ 0x100
 80055ce:	6023      	str	r3, [r4, #0]
 80055d0:	f7fe fb46 	bl	8003c60 <HAL_GetTick>
 80055d4:	4607      	mov	r7, r0
 80055d6:	6823      	ldr	r3, [r4, #0]
 80055d8:	055a      	lsls	r2, r3, #21
 80055da:	d4eb      	bmi.n	80055b4 <HAL_RCC_OscConfig+0x20c>
 80055dc:	f7fe fb40 	bl	8003c60 <HAL_GetTick>
 80055e0:	1bc0      	subs	r0, r0, r7
 80055e2:	2802      	cmp	r0, #2
 80055e4:	d9f7      	bls.n	80055d6 <HAL_RCC_OscConfig+0x22e>
 80055e6:	e783      	b.n	80054f0 <HAL_RCC_OscConfig+0x148>
 80055e8:	6823      	ldr	r3, [r4, #0]
 80055ea:	f423 7380 	bic.w	r3, r3, #256	@ 0x100
 80055ee:	6023      	str	r3, [r4, #0]
 80055f0:	f7fe fb36 	bl	8003c60 <HAL_GetTick>
 80055f4:	4607      	mov	r7, r0
 80055f6:	6823      	ldr	r3, [r4, #0]
 80055f8:	055b      	lsls	r3, r3, #21
 80055fa:	f57f af2c 	bpl.w	8005456 <HAL_RCC_OscConfig+0xae>
 80055fe:	f7fe fb2f 	bl	8003c60 <HAL_GetTick>
 8005602:	1bc0      	subs	r0, r0, r7
 8005604:	2802      	cmp	r0, #2
 8005606:	d9f6      	bls.n	80055f6 <HAL_RCC_OscConfig+0x24e>
 8005608:	e772      	b.n	80054f0 <HAL_RCC_OscConfig+0x148>
 800560a:	bf00      	nop
 800560c:	40021000 	.word	0x40021000
 8005610:	08006c1c 	.word	0x08006c1c
 8005614:	20000000 	.word	0x20000000
 8005618:	20000008 	.word	0x20000008
 800561c:	696b      	ldr	r3, [r5, #20]
 800561e:	2b00      	cmp	r3, #0
 8005620:	d03c      	beq.n	800569c <HAL_RCC_OscConfig+0x2f4>
 8005622:	f8d4 3094 	ldr.w	r3, [r4, #148]	@ 0x94
 8005626:	69a9      	ldr	r1, [r5, #24]
 8005628:	f003 0210 	and.w	r2, r3, #16
 800562c:	4291      	cmp	r1, r2
 800562e:	d00e      	beq.n	800564e <HAL_RCC_OscConfig+0x2a6>
 8005630:	f003 0203 	and.w	r2, r3, #3
 8005634:	2a02      	cmp	r2, #2
 8005636:	f43f aebb 	beq.w	80053b0 <HAL_RCC_OscConfig+0x8>
 800563a:	07da      	lsls	r2, r3, #31
 800563c:	d41b      	bmi.n	8005676 <HAL_RCC_OscConfig+0x2ce>
 800563e:	f8d4 3094 	ldr.w	r3, [r4, #148]	@ 0x94
 8005642:	69aa      	ldr	r2, [r5, #24]
 8005644:	f023 0310 	bic.w	r3, r3, #16
 8005648:	4313      	orrs	r3, r2
 800564a:	f8c4 3094 	str.w	r3, [r4, #148]	@ 0x94
 800564e:	f8d4 3094 	ldr.w	r3, [r4, #148]	@ 0x94
 8005652:	f043 0301 	orr.w	r3, r3, #1
 8005656:	f8c4 3094 	str.w	r3, [r4, #148]	@ 0x94
 800565a:	f7fe fb01 	bl	8003c60 <HAL_GetTick>
 800565e:	4607      	mov	r7, r0
 8005660:	f8d4 3094 	ldr.w	r3, [r4, #148]	@ 0x94
 8005664:	0798      	lsls	r0, r3, #30
 8005666:	f53f aefa 	bmi.w	800545e <HAL_RCC_OscConfig+0xb6>
 800566a:	f7fe faf9 	bl	8003c60 <HAL_GetTick>
 800566e:	1bc0      	subs	r0, r0, r7
 8005670:	2811      	cmp	r0, #17
 8005672:	d9f5      	bls.n	8005660 <HAL_RCC_OscConfig+0x2b8>
 8005674:	e73c      	b.n	80054f0 <HAL_RCC_OscConfig+0x148>
 8005676:	f8d4 3094 	ldr.w	r3, [r4, #148]	@ 0x94
 800567a:	f023 0301 	bic.w	r3, r3, #1
 800567e:	f8c4 3094 	str.w	r3, [r4, #148]	@ 0x94
 8005682:	f7fe faed 	bl	8003c60 <HAL_GetTick>
 8005686:	4607      	mov	r7, r0
 8005688:	f8d4 3094 	ldr.w	r3, [r4, #148]	@ 0x94
 800568c:	079b      	lsls	r3, r3, #30
 800568e:	d5d6      	bpl.n	800563e <HAL_RCC_OscConfig+0x296>
 8005690:	f7fe fae6 	bl	8003c60 <HAL_GetTick>
 8005694:	1bc0      	subs	r0, r0, r7
 8005696:	2811      	cmp	r0, #17
 8005698:	d9f6      	bls.n	8005688 <HAL_RCC_OscConfig+0x2e0>
 800569a:	e729      	b.n	80054f0 <HAL_RCC_OscConfig+0x148>
 800569c:	f8d4 3094 	ldr.w	r3, [r4, #148]	@ 0x94
 80056a0:	f023 0301 	bic.w	r3, r3, #1
 80056a4:	f8c4 3094 	str.w	r3, [r4, #148]	@ 0x94
 80056a8:	f7fe fada 	bl	8003c60 <HAL_GetTick>
 80056ac:	4607      	mov	r7, r0
 80056ae:	f8d4 3094 	ldr.w	r3, [r4, #148]	@ 0x94
 80056b2:	0799      	lsls	r1, r3, #30
 80056b4:	f57f aed3 	bpl.w	800545e <HAL_RCC_OscConfig+0xb6>
 80056b8:	f7fe fad2 	bl	8003c60 <HAL_GetTick>
 80056bc:	1bc0      	subs	r0, r0, r7
 80056be:	2811      	cmp	r0, #17
 80056c0:	d9f5      	bls.n	80056ae <HAL_RCC_OscConfig+0x306>
 80056c2:	e715      	b.n	80054f0 <HAL_RCC_OscConfig+0x148>
 80056c4:	6da3      	ldr	r3, [r4, #88]	@ 0x58
 80056c6:	00da      	lsls	r2, r3, #3
 80056c8:	d430      	bmi.n	800572c <HAL_RCC_OscConfig+0x384>
 80056ca:	6da3      	ldr	r3, [r4, #88]	@ 0x58
 80056cc:	f043 5380 	orr.w	r3, r3, #268435456	@ 0x10000000
 80056d0:	65a3      	str	r3, [r4, #88]	@ 0x58
 80056d2:	6da3      	ldr	r3, [r4, #88]	@ 0x58
 80056d4:	f003 5380 	and.w	r3, r3, #268435456	@ 0x10000000
 80056d8:	9301      	str	r3, [sp, #4]
 80056da:	9b01      	ldr	r3, [sp, #4]
 80056dc:	2701      	movs	r7, #1
 80056de:	f8df 826c 	ldr.w	r8, [pc, #620]	@ 800594c <HAL_RCC_OscConfig+0x5a4>
 80056e2:	f8d8 3000 	ldr.w	r3, [r8]
 80056e6:	05db      	lsls	r3, r3, #23
 80056e8:	d522      	bpl.n	8005730 <HAL_RCC_OscConfig+0x388>
 80056ea:	68aa      	ldr	r2, [r5, #8]
 80056ec:	07d0      	lsls	r0, r2, #31
 80056ee:	d433      	bmi.n	8005758 <HAL_RCC_OscConfig+0x3b0>
 80056f0:	f8d4 3090 	ldr.w	r3, [r4, #144]	@ 0x90
 80056f4:	f023 0301 	bic.w	r3, r3, #1
 80056f8:	f8c4 3090 	str.w	r3, [r4, #144]	@ 0x90
 80056fc:	f8d4 3090 	ldr.w	r3, [r4, #144]	@ 0x90
 8005700:	f023 0304 	bic.w	r3, r3, #4
 8005704:	f8c4 3090 	str.w	r3, [r4, #144]	@ 0x90
 8005708:	2a00      	cmp	r2, #0
 800570a:	d13c      	bne.n	8005786 <HAL_RCC_OscConfig+0x3de>
 800570c:	f7fe faa8 	bl	8003c60 <HAL_GetTick>
 8005710:	f241 3988 	movw	r9, #5000	@ 0x1388
 8005714:	4680      	mov	r8, r0
 8005716:	f8d4 3090 	ldr.w	r3, [r4, #144]	@ 0x90
 800571a:	0798      	lsls	r0, r3, #30
 800571c:	d44b      	bmi.n	80057b6 <HAL_RCC_OscConfig+0x40e>
 800571e:	f8d4 3090 	ldr.w	r3, [r4, #144]	@ 0x90
 8005722:	f023 0380 	bic.w	r3, r3, #128	@ 0x80
 8005726:	f8c4 3090 	str.w	r3, [r4, #144]	@ 0x90
 800572a:	e035      	b.n	8005798 <HAL_RCC_OscConfig+0x3f0>
 800572c:	2700      	movs	r7, #0
 800572e:	e7d6      	b.n	80056de <HAL_RCC_OscConfig+0x336>
 8005730:	f8d8 3000 	ldr.w	r3, [r8]
 8005734:	f443 7380 	orr.w	r3, r3, #256	@ 0x100
 8005738:	f8c8 3000 	str.w	r3, [r8]
 800573c:	f7fe fa90 	bl	8003c60 <HAL_GetTick>
 8005740:	4681      	mov	r9, r0
 8005742:	f8d8 3000 	ldr.w	r3, [r8]
 8005746:	05d9      	lsls	r1, r3, #23
 8005748:	d4cf      	bmi.n	80056ea <HAL_RCC_OscConfig+0x342>
 800574a:	f7fe fa89 	bl	8003c60 <HAL_GetTick>
 800574e:	eba0 0009 	sub.w	r0, r0, r9
 8005752:	2802      	cmp	r0, #2
 8005754:	d9f5      	bls.n	8005742 <HAL_RCC_OscConfig+0x39a>
 8005756:	e6cb      	b.n	80054f0 <HAL_RCC_OscConfig+0x148>
 8005758:	f8d4 3090 	ldr.w	r3, [r4, #144]	@ 0x90
 800575c:	f002 0180 	and.w	r1, r2, #128	@ 0x80
 8005760:	f023 0380 	bic.w	r3, r3, #128	@ 0x80
 8005764:	430b      	orrs	r3, r1
 8005766:	f8c4 3090 	str.w	r3, [r4, #144]	@ 0x90
 800576a:	f8d4 3090 	ldr.w	r3, [r4, #144]	@ 0x90
 800576e:	0752      	lsls	r2, r2, #29
 8005770:	bf42      	ittt	mi
 8005772:	f043 0304 	orrmi.w	r3, r3, #4
 8005776:	f8c4 3090 	strmi.w	r3, [r4, #144]	@ 0x90
 800577a:	f8d4 3090 	ldrmi.w	r3, [r4, #144]	@ 0x90
 800577e:	f043 0301 	orr.w	r3, r3, #1
 8005782:	f8c4 3090 	str.w	r3, [r4, #144]	@ 0x90
 8005786:	f7fe fa6b 	bl	8003c60 <HAL_GetTick>
 800578a:	f241 3988 	movw	r9, #5000	@ 0x1388
 800578e:	4680      	mov	r8, r0
 8005790:	f8d4 3090 	ldr.w	r3, [r4, #144]	@ 0x90
 8005794:	079b      	lsls	r3, r3, #30
 8005796:	d507      	bpl.n	80057a8 <HAL_RCC_OscConfig+0x400>
 8005798:	2f00      	cmp	r7, #0
 800579a:	f43f ae64 	beq.w	8005466 <HAL_RCC_OscConfig+0xbe>
 800579e:	6da3      	ldr	r3, [r4, #88]	@ 0x58
 80057a0:	f023 5380 	bic.w	r3, r3, #268435456	@ 0x10000000
 80057a4:	65a3      	str	r3, [r4, #88]	@ 0x58
 80057a6:	e65e      	b.n	8005466 <HAL_RCC_OscConfig+0xbe>
 80057a8:	f7fe fa5a 	bl	8003c60 <HAL_GetTick>
 80057ac:	eba0 0008 	sub.w	r0, r0, r8
 80057b0:	4548      	cmp	r0, r9
 80057b2:	d9ed      	bls.n	8005790 <HAL_RCC_OscConfig+0x3e8>
 80057b4:	e69c      	b.n	80054f0 <HAL_RCC_OscConfig+0x148>
 80057b6:	f7fe fa53 	bl	8003c60 <HAL_GetTick>
 80057ba:	eba0 0008 	sub.w	r0, r0, r8
 80057be:	4548      	cmp	r0, r9
 80057c0:	d9a9      	bls.n	8005716 <HAL_RCC_OscConfig+0x36e>
 80057c2:	e695      	b.n	80054f0 <HAL_RCC_OscConfig+0x148>
 80057c4:	6aab      	ldr	r3, [r5, #40]	@ 0x28
 80057c6:	b19b      	cbz	r3, 80057f0 <HAL_RCC_OscConfig+0x448>
 80057c8:	f8d4 3098 	ldr.w	r3, [r4, #152]	@ 0x98
 80057cc:	f043 0301 	orr.w	r3, r3, #1
 80057d0:	f8c4 3098 	str.w	r3, [r4, #152]	@ 0x98
 80057d4:	f7fe fa44 	bl	8003c60 <HAL_GetTick>
 80057d8:	4607      	mov	r7, r0
 80057da:	f8d4 3098 	ldr.w	r3, [r4, #152]	@ 0x98
 80057de:	079a      	lsls	r2, r3, #30
 80057e0:	f53f ae45 	bmi.w	800546e <HAL_RCC_OscConfig+0xc6>
 80057e4:	f7fe fa3c 	bl	8003c60 <HAL_GetTick>
 80057e8:	1bc0      	subs	r0, r0, r7
 80057ea:	2802      	cmp	r0, #2
 80057ec:	d9f5      	bls.n	80057da <HAL_RCC_OscConfig+0x432>
 80057ee:	e67f      	b.n	80054f0 <HAL_RCC_OscConfig+0x148>
 80057f0:	f8d4 3098 	ldr.w	r3, [r4, #152]	@ 0x98
 80057f4:	f023 0301 	bic.w	r3, r3, #1
 80057f8:	f8c4 3098 	str.w	r3, [r4, #152]	@ 0x98
 80057fc:	f7fe fa30 	bl	8003c60 <HAL_GetTick>
 8005800:	4607      	mov	r7, r0
 8005802:	f8d4 3098 	ldr.w	r3, [r4, #152]	@ 0x98
 8005806:	079b      	lsls	r3, r3, #30
 8005808:	f57f ae31 	bpl.w	800546e <HAL_RCC_OscConfig+0xc6>
 800580c:	f7fe fa28 	bl	8003c60 <HAL_GetTick>
 8005810:	1bc0      	subs	r0, r0, r7
 8005812:	2802      	cmp	r0, #2
 8005814:	d9f5      	bls.n	8005802 <HAL_RCC_OscConfig+0x45a>
 8005816:	e66b      	b.n	80054f0 <HAL_RCC_OscConfig+0x148>
 8005818:	2b02      	cmp	r3, #2
 800581a:	d17a      	bne.n	8005912 <HAL_RCC_OscConfig+0x56a>
 800581c:	68e3      	ldr	r3, [r4, #12]
 800581e:	6b2a      	ldr	r2, [r5, #48]	@ 0x30
 8005820:	f003 0103 	and.w	r1, r3, #3
 8005824:	4291      	cmp	r1, r2
 8005826:	d11c      	bne.n	8005862 <HAL_RCC_OscConfig+0x4ba>
 8005828:	6b69      	ldr	r1, [r5, #52]	@ 0x34
 800582a:	f003 0270 	and.w	r2, r3, #112	@ 0x70
 800582e:	3901      	subs	r1, #1
 8005830:	ebb2 1f01 	cmp.w	r2, r1, lsl #4
 8005834:	d115      	bne.n	8005862 <HAL_RCC_OscConfig+0x4ba>
 8005836:	6ba9      	ldr	r1, [r5, #56]	@ 0x38
 8005838:	f403 42fe 	and.w	r2, r3, #32512	@ 0x7f00
 800583c:	ebb2 2f01 	cmp.w	r2, r1, lsl #8
 8005840:	d10f      	bne.n	8005862 <HAL_RCC_OscConfig+0x4ba>
 8005842:	6bea      	ldr	r2, [r5, #60]	@ 0x3c
 8005844:	0852      	lsrs	r2, r2, #1
 8005846:	f403 01c0 	and.w	r1, r3, #6291456	@ 0x600000
 800584a:	3a01      	subs	r2, #1
 800584c:	ebb1 5f42 	cmp.w	r1, r2, lsl #21
 8005850:	d107      	bne.n	8005862 <HAL_RCC_OscConfig+0x4ba>
 8005852:	6c2a      	ldr	r2, [r5, #64]	@ 0x40
 8005854:	0852      	lsrs	r2, r2, #1
 8005856:	f003 63c0 	and.w	r3, r3, #100663296	@ 0x6000000
 800585a:	3a01      	subs	r2, #1
 800585c:	ebb3 6f42 	cmp.w	r3, r2, lsl #25
 8005860:	d03e      	beq.n	80058e0 <HAL_RCC_OscConfig+0x538>
 8005862:	2e0c      	cmp	r6, #12
 8005864:	f43f ada4 	beq.w	80053b0 <HAL_RCC_OscConfig+0x8>
 8005868:	6823      	ldr	r3, [r4, #0]
 800586a:	f023 7380 	bic.w	r3, r3, #16777216	@ 0x1000000
 800586e:	6023      	str	r3, [r4, #0]
 8005870:	f7fe f9f6 	bl	8003c60 <HAL_GetTick>
 8005874:	4606      	mov	r6, r0
 8005876:	6823      	ldr	r3, [r4, #0]
 8005878:	019f      	lsls	r7, r3, #6
 800587a:	d42b      	bmi.n	80058d4 <HAL_RCC_OscConfig+0x52c>
 800587c:	68e2      	ldr	r2, [r4, #12]
 800587e:	4b32      	ldr	r3, [pc, #200]	@ (8005948 <HAL_RCC_OscConfig+0x5a0>)
 8005880:	4013      	ands	r3, r2
 8005882:	6b2a      	ldr	r2, [r5, #48]	@ 0x30
 8005884:	4313      	orrs	r3, r2
 8005886:	6baa      	ldr	r2, [r5, #56]	@ 0x38
 8005888:	ea43 2302 	orr.w	r3, r3, r2, lsl #8
 800588c:	6b6a      	ldr	r2, [r5, #52]	@ 0x34
 800588e:	3a01      	subs	r2, #1
 8005890:	ea43 1302 	orr.w	r3, r3, r2, lsl #4
 8005894:	6bea      	ldr	r2, [r5, #60]	@ 0x3c
 8005896:	0852      	lsrs	r2, r2, #1
 8005898:	3a01      	subs	r2, #1
 800589a:	ea43 5342 	orr.w	r3, r3, r2, lsl #21
 800589e:	6c2a      	ldr	r2, [r5, #64]	@ 0x40
 80058a0:	0852      	lsrs	r2, r2, #1
 80058a2:	3a01      	subs	r2, #1
 80058a4:	ea43 6342 	orr.w	r3, r3, r2, lsl #25
 80058a8:	60e3      	str	r3, [r4, #12]
 80058aa:	6823      	ldr	r3, [r4, #0]
 80058ac:	f043 7380 	orr.w	r3, r3, #16777216	@ 0x1000000
 80058b0:	6023      	str	r3, [r4, #0]
 80058b2:	68e3      	ldr	r3, [r4, #12]
 80058b4:	f043 7380 	orr.w	r3, r3, #16777216	@ 0x1000000
 80058b8:	60e3      	str	r3, [r4, #12]
 80058ba:	f7fe f9d1 	bl	8003c60 <HAL_GetTick>
 80058be:	4605      	mov	r5, r0
 80058c0:	6823      	ldr	r3, [r4, #0]
 80058c2:	0198      	lsls	r0, r3, #6
 80058c4:	f53f add7 	bmi.w	8005476 <HAL_RCC_OscConfig+0xce>
 80058c8:	f7fe f9ca 	bl	8003c60 <HAL_GetTick>
 80058cc:	1b40      	subs	r0, r0, r5
 80058ce:	2802      	cmp	r0, #2
 80058d0:	d9f6      	bls.n	80058c0 <HAL_RCC_OscConfig+0x518>
 80058d2:	e60d      	b.n	80054f0 <HAL_RCC_OscConfig+0x148>
 80058d4:	f7fe f9c4 	bl	8003c60 <HAL_GetTick>
 80058d8:	1b80      	subs	r0, r0, r6
 80058da:	2802      	cmp	r0, #2
 80058dc:	d9cb      	bls.n	8005876 <HAL_RCC_OscConfig+0x4ce>
 80058de:	e607      	b.n	80054f0 <HAL_RCC_OscConfig+0x148>
 80058e0:	6823      	ldr	r3, [r4, #0]
 80058e2:	0199      	lsls	r1, r3, #6
 80058e4:	f53f adc7 	bmi.w	8005476 <HAL_RCC_OscConfig+0xce>
 80058e8:	6823      	ldr	r3, [r4, #0]
 80058ea:	f043 7380 	orr.w	r3, r3, #16777216	@ 0x1000000
 80058ee:	6023      	str	r3, [r4, #0]
 80058f0:	68e3      	ldr	r3, [r4, #12]
 80058f2:	f043 7380 	orr.w	r3, r3, #16777216	@ 0x1000000
 80058f6:	60e3      	str	r3, [r4, #12]
 80058f8:	f7fe f9b2 	bl	8003c60 <HAL_GetTick>
 80058fc:	4605      	mov	r5, r0
 80058fe:	6823      	ldr	r3, [r4, #0]
 8005900:	019a      	lsls	r2, r3, #6
 8005902:	f53f adb8 	bmi.w	8005476 <HAL_RCC_OscConfig+0xce>
 8005906:	f7fe f9ab 	bl	8003c60 <HAL_GetTick>
 800590a:	1b40      	subs	r0, r0, r5
 800590c:	2802      	cmp	r0, #2
 800590e:	d9f6      	bls.n	80058fe <HAL_RCC_OscConfig+0x556>
 8005910:	e5ee      	b.n	80054f0 <HAL_RCC_OscConfig+0x148>
 8005912:	2e0c      	cmp	r6, #12
 8005914:	f43f ad4c 	beq.w	80053b0 <HAL_RCC_OscConfig+0x8>
 8005918:	6823      	ldr	r3, [r4, #0]
 800591a:	f023 7380 	bic.w	r3, r3, #16777216	@ 0x1000000
 800591e:	6023      	str	r3, [r4, #0]
 8005920:	f7fe f99e 	bl	8003c60 <HAL_GetTick>
 8005924:	4605      	mov	r5, r0
 8005926:	6823      	ldr	r3, [r4, #0]
 8005928:	019b      	lsls	r3, r3, #6
 800592a:	d406      	bmi.n	800593a <HAL_RCC_OscConfig+0x592>
 800592c:	68e3      	ldr	r3, [r4, #12]
 800592e:	f023 7388 	bic.w	r3, r3, #17825792	@ 0x1100000
 8005932:	f023 0303 	bic.w	r3, r3, #3
 8005936:	60e3      	str	r3, [r4, #12]
 8005938:	e59d      	b.n	8005476 <HAL_RCC_OscConfig+0xce>
 800593a:	f7fe f991 	bl	8003c60 <HAL_GetTick>
 800593e:	1b40      	subs	r0, r0, r5
 8005940:	2802      	cmp	r0, #2
 8005942:	d9f0      	bls.n	8005926 <HAL_RCC_OscConfig+0x57e>
 8005944:	e5d4      	b.n	80054f0 <HAL_RCC_OscConfig+0x148>
 8005946:	bf00      	nop
 8005948:	f99f808c 	.word	0xf99f808c
 800594c:	40007000 	.word	0x40007000

08005950 <HAL_RCC_ClockConfig>:
 8005950:	e92d 41f0 	stmdb	sp!, {r4, r5, r6, r7, r8, lr}
 8005954:	460d      	mov	r5, r1
 8005956:	4604      	mov	r4, r0
 8005958:	b910      	cbnz	r0, 8005960 <HAL_RCC_ClockConfig+0x10>
 800595a:	2001      	movs	r0, #1
 800595c:	e8bd 81f0 	ldmia.w	sp!, {r4, r5, r6, r7, r8, pc}
 8005960:	4a4b      	ldr	r2, [pc, #300]	@ (8005a90 <HAL_RCC_ClockConfig+0x140>)
 8005962:	6813      	ldr	r3, [r2, #0]
 8005964:	f003 0307 	and.w	r3, r3, #7
 8005968:	428b      	cmp	r3, r1
 800596a:	d32c      	bcc.n	80059c6 <HAL_RCC_ClockConfig+0x76>
 800596c:	6821      	ldr	r1, [r4, #0]
 800596e:	0788      	lsls	r0, r1, #30
 8005970:	d434      	bmi.n	80059dc <HAL_RCC_ClockConfig+0x8c>
 8005972:	07c9      	lsls	r1, r1, #31
 8005974:	d43f      	bmi.n	80059f6 <HAL_RCC_ClockConfig+0xa6>
 8005976:	6821      	ldr	r1, [r4, #0]
 8005978:	078a      	lsls	r2, r1, #30
 800597a:	d468      	bmi.n	8005a4e <HAL_RCC_ClockConfig+0xfe>
 800597c:	4a44      	ldr	r2, [pc, #272]	@ (8005a90 <HAL_RCC_ClockConfig+0x140>)
 800597e:	6813      	ldr	r3, [r2, #0]
 8005980:	f003 0307 	and.w	r3, r3, #7
 8005984:	42ab      	cmp	r3, r5
 8005986:	d86f      	bhi.n	8005a68 <HAL_RCC_ClockConfig+0x118>
 8005988:	f011 0f04 	tst.w	r1, #4
 800598c:	4d41      	ldr	r5, [pc, #260]	@ (8005a94 <HAL_RCC_ClockConfig+0x144>)
 800598e:	d177      	bne.n	8005a80 <HAL_RCC_ClockConfig+0x130>
 8005990:	070b      	lsls	r3, r1, #28
 8005992:	d506      	bpl.n	80059a2 <HAL_RCC_ClockConfig+0x52>
 8005994:	68ab      	ldr	r3, [r5, #8]
 8005996:	6922      	ldr	r2, [r4, #16]
 8005998:	f423 5360 	bic.w	r3, r3, #14336	@ 0x3800
 800599c:	ea43 03c2 	orr.w	r3, r3, r2, lsl #3
 80059a0:	60ab      	str	r3, [r5, #8]
 80059a2:	f7ff fcb7 	bl	8005314 <HAL_RCC_GetSysClockFreq>
 80059a6:	68ab      	ldr	r3, [r5, #8]
 80059a8:	4a3b      	ldr	r2, [pc, #236]	@ (8005a98 <HAL_RCC_ClockConfig+0x148>)
 80059aa:	f3c3 1303 	ubfx	r3, r3, #4, #4
 80059ae:	e8bd 41f0 	ldmia.w	sp!, {r4, r5, r6, r7, r8, lr}
 80059b2:	5cd3      	ldrb	r3, [r2, r3]
 80059b4:	f003 031f 	and.w	r3, r3, #31
 80059b8:	40d8      	lsrs	r0, r3
 80059ba:	4b38      	ldr	r3, [pc, #224]	@ (8005a9c <HAL_RCC_ClockConfig+0x14c>)
 80059bc:	6018      	str	r0, [r3, #0]
 80059be:	4b38      	ldr	r3, [pc, #224]	@ (8005aa0 <HAL_RCC_ClockConfig+0x150>)
 80059c0:	6818      	ldr	r0, [r3, #0]
 80059c2:	f7fe b90b 	b.w	8003bdc <HAL_InitTick>
 80059c6:	6813      	ldr	r3, [r2, #0]
 80059c8:	f023 0307 	bic.w	r3, r3, #7
 80059cc:	430b      	orrs	r3, r1
 80059ce:	6013      	str	r3, [r2, #0]
 80059d0:	6813      	ldr	r3, [r2, #0]
 80059d2:	f003 0307 	and.w	r3, r3, #7
 80059d6:	428b      	cmp	r3, r1
 80059d8:	d1bf      	bne.n	800595a <HAL_RCC_ClockConfig+0xa>
 80059da:	e7c7      	b.n	800596c <HAL_RCC_ClockConfig+0x1c>
 80059dc:	4a2d      	ldr	r2, [pc, #180]	@ (8005a94 <HAL_RCC_ClockConfig+0x144>)
 80059de:	68a0      	ldr	r0, [r4, #8]
 80059e0:	6893      	ldr	r3, [r2, #8]
 80059e2:	f003 03f0 	and.w	r3, r3, #240	@ 0xf0
 80059e6:	4298      	cmp	r0, r3
 80059e8:	bf81      	itttt	hi
 80059ea:	6893      	ldrhi	r3, [r2, #8]
 80059ec:	f023 03f0 	bichi.w	r3, r3, #240	@ 0xf0
 80059f0:	4303      	orrhi	r3, r0
 80059f2:	6093      	strhi	r3, [r2, #8]
 80059f4:	e7bd      	b.n	8005972 <HAL_RCC_ClockConfig+0x22>
 80059f6:	6862      	ldr	r2, [r4, #4]
 80059f8:	4e26      	ldr	r6, [pc, #152]	@ (8005a94 <HAL_RCC_ClockConfig+0x144>)
 80059fa:	2a03      	cmp	r2, #3
 80059fc:	6833      	ldr	r3, [r6, #0]
 80059fe:	d11a      	bne.n	8005a36 <HAL_RCC_ClockConfig+0xe6>
 8005a00:	f013 7f00 	tst.w	r3, #33554432	@ 0x2000000
 8005a04:	d0a9      	beq.n	800595a <HAL_RCC_ClockConfig+0xa>
 8005a06:	68b3      	ldr	r3, [r6, #8]
 8005a08:	f023 0303 	bic.w	r3, r3, #3
 8005a0c:	4313      	orrs	r3, r2
 8005a0e:	60b3      	str	r3, [r6, #8]
 8005a10:	f7fe f926 	bl	8003c60 <HAL_GetTick>
 8005a14:	f241 3888 	movw	r8, #5000	@ 0x1388
 8005a18:	4607      	mov	r7, r0
 8005a1a:	68b3      	ldr	r3, [r6, #8]
 8005a1c:	6862      	ldr	r2, [r4, #4]
 8005a1e:	f003 030c 	and.w	r3, r3, #12
 8005a22:	ebb3 0f82 	cmp.w	r3, r2, lsl #2
 8005a26:	d0a6      	beq.n	8005976 <HAL_RCC_ClockConfig+0x26>
 8005a28:	f7fe f91a 	bl	8003c60 <HAL_GetTick>
 8005a2c:	1bc0      	subs	r0, r0, r7
 8005a2e:	4540      	cmp	r0, r8
 8005a30:	d9f3      	bls.n	8005a1a <HAL_RCC_ClockConfig+0xca>
 8005a32:	2003      	movs	r0, #3
 8005a34:	e792      	b.n	800595c <HAL_RCC_ClockConfig+0xc>
 8005a36:	2a02      	cmp	r2, #2
 8005a38:	d102      	bne.n	8005a40 <HAL_RCC_ClockConfig+0xf0>
 8005a3a:	f413 3f00 	tst.w	r3, #131072	@ 0x20000
 8005a3e:	e7e1      	b.n	8005a04 <HAL_RCC_ClockConfig+0xb4>
 8005a40:	b912      	cbnz	r2, 8005a48 <HAL_RCC_ClockConfig+0xf8>
 8005a42:	f013 0f02 	tst.w	r3, #2
 8005a46:	e7dd      	b.n	8005a04 <HAL_RCC_ClockConfig+0xb4>
 8005a48:	f413 6f80 	tst.w	r3, #1024	@ 0x400
 8005a4c:	e7da      	b.n	8005a04 <HAL_RCC_ClockConfig+0xb4>
 8005a4e:	4a11      	ldr	r2, [pc, #68]	@ (8005a94 <HAL_RCC_ClockConfig+0x144>)
 8005a50:	68a0      	ldr	r0, [r4, #8]
 8005a52:	6893      	ldr	r3, [r2, #8]
 8005a54:	f003 03f0 	and.w	r3, r3, #240	@ 0xf0
 8005a58:	4298      	cmp	r0, r3
 8005a5a:	bf3f      	itttt	cc
 8005a5c:	6893      	ldrcc	r3, [r2, #8]
 8005a5e:	f023 03f0 	biccc.w	r3, r3, #240	@ 0xf0
 8005a62:	4303      	orrcc	r3, r0
 8005a64:	6093      	strcc	r3, [r2, #8]
 8005a66:	e789      	b.n	800597c <HAL_RCC_ClockConfig+0x2c>
 8005a68:	6813      	ldr	r3, [r2, #0]
 8005a6a:	f023 0307 	bic.w	r3, r3, #7
 8005a6e:	432b      	orrs	r3, r5
 8005a70:	6013      	str	r3, [r2, #0]
 8005a72:	6813      	ldr	r3, [r2, #0]
 8005a74:	f003 0307 	and.w	r3, r3, #7
 8005a78:	42ab      	cmp	r3, r5
 8005a7a:	f47f af6e 	bne.w	800595a <HAL_RCC_ClockConfig+0xa>
 8005a7e:	e783      	b.n	8005988 <HAL_RCC_ClockConfig+0x38>
 8005a80:	68ab      	ldr	r3, [r5, #8]
 8005a82:	68e2      	ldr	r2, [r4, #12]
 8005a84:	f423 63e0 	bic.w	r3, r3, #1792	@ 0x700
 8005a88:	4313      	orrs	r3, r2
 8005a8a:	60ab      	str	r3, [r5, #8]
 8005a8c:	e780      	b.n	8005990 <HAL_RCC_ClockConfig+0x40>
 8005a8e:	bf00      	nop
 8005a90:	40022000 	.word	0x40022000
 8005a94:	40021000 	.word	0x40021000
 8005a98:	08006c1c 	.word	0x08006c1c
 8005a9c:	20000000 	.word	0x20000000
 8005aa0:	20000008 	.word	0x20000008

08005aa4 <HAL_RCC_GetPCLK1Freq>:
 8005aa4:	4b05      	ldr	r3, [pc, #20]	@ (8005abc <HAL_RCC_GetPCLK1Freq+0x18>)
 8005aa6:	4a06      	ldr	r2, [pc, #24]	@ (8005ac0 <HAL_RCC_GetPCLK1Freq+0x1c>)
 8005aa8:	689b      	ldr	r3, [r3, #8]
 8005aaa:	f3c3 2302 	ubfx	r3, r3, #8, #3
 8005aae:	5cd3      	ldrb	r3, [r2, r3]
 8005ab0:	4a04      	ldr	r2, [pc, #16]	@ (8005ac4 <HAL_RCC_GetPCLK1Freq+0x20>)
 8005ab2:	6810      	ldr	r0, [r2, #0]
 8005ab4:	f003 031f 	and.w	r3, r3, #31
 8005ab8:	40d8      	lsrs	r0, r3
 8005aba:	4770      	bx	lr
 8005abc:	40021000 	.word	0x40021000
 8005ac0:	08006c14 	.word	0x08006c14
 8005ac4:	20000000 	.word	0x20000000

08005ac8 <HAL_RCC_GetPCLK2Freq>:
 8005ac8:	4b05      	ldr	r3, [pc, #20]	@ (8005ae0 <HAL_RCC_GetPCLK2Freq+0x18>)
 8005aca:	4a06      	ldr	r2, [pc, #24]	@ (8005ae4 <HAL_RCC_GetPCLK2Freq+0x1c>)
 8005acc:	689b      	ldr	r3, [r3, #8]
 8005ace:	f3c3 23c2 	ubfx	r3, r3, #11, #3
 8005ad2:	5cd3      	ldrb	r3, [r2, r3]
 8005ad4:	4a04      	ldr	r2, [pc, #16]	@ (8005ae8 <HAL_RCC_GetPCLK2Freq+0x20>)
 8005ad6:	6810      	ldr	r0, [r2, #0]
 8005ad8:	f003 031f 	and.w	r3, r3, #31
 8005adc:	40d8      	lsrs	r0, r3
 8005ade:	4770      	bx	lr
 8005ae0:	40021000 	.word	0x40021000
 8005ae4:	08006c14 	.word	0x08006c14
 8005ae8:	20000000 	.word	0x20000000

08005aec <HAL_RCCEx_PeriphCLKConfig>:
 8005aec:	e92d 41f3 	stmdb	sp!, {r0, r1, r4, r5, r6, r7, r8, lr}
 8005af0:	4604      	mov	r4, r0
 8005af2:	6800      	ldr	r0, [r0, #0]
 8005af4:	f410 3000 	ands.w	r0, r0, #131072	@ 0x20000
 8005af8:	d056      	beq.n	8005ba8 <HAL_RCCEx_PeriphCLKConfig+0xbc>
 8005afa:	4d74      	ldr	r5, [pc, #464]	@ (8005ccc <HAL_RCCEx_PeriphCLKConfig+0x1e0>)
 8005afc:	6dab      	ldr	r3, [r5, #88]	@ 0x58
 8005afe:	00d8      	lsls	r0, r3, #3
 8005b00:	d444      	bmi.n	8005b8c <HAL_RCCEx_PeriphCLKConfig+0xa0>
 8005b02:	6dab      	ldr	r3, [r5, #88]	@ 0x58
 8005b04:	f043 5380 	orr.w	r3, r3, #268435456	@ 0x10000000
 8005b08:	65ab      	str	r3, [r5, #88]	@ 0x58
 8005b0a:	6dab      	ldr	r3, [r5, #88]	@ 0x58
 8005b0c:	f003 5380 	and.w	r3, r3, #268435456	@ 0x10000000
 8005b10:	9301      	str	r3, [sp, #4]
 8005b12:	9b01      	ldr	r3, [sp, #4]
 8005b14:	2601      	movs	r6, #1
 8005b16:	4f6e      	ldr	r7, [pc, #440]	@ (8005cd0 <HAL_RCCEx_PeriphCLKConfig+0x1e4>)
 8005b18:	683b      	ldr	r3, [r7, #0]
 8005b1a:	f443 7380 	orr.w	r3, r3, #256	@ 0x100
 8005b1e:	603b      	str	r3, [r7, #0]
 8005b20:	f7fe f89e 	bl	8003c60 <HAL_GetTick>
 8005b24:	4680      	mov	r8, r0
 8005b26:	683b      	ldr	r3, [r7, #0]
 8005b28:	05d9      	lsls	r1, r3, #23
 8005b2a:	d531      	bpl.n	8005b90 <HAL_RCCEx_PeriphCLKConfig+0xa4>
 8005b2c:	f8d5 3090 	ldr.w	r3, [r5, #144]	@ 0x90
 8005b30:	6b22      	ldr	r2, [r4, #48]	@ 0x30
 8005b32:	f413 7340 	ands.w	r3, r3, #768	@ 0x300
 8005b36:	d01f      	beq.n	8005b78 <HAL_RCCEx_PeriphCLKConfig+0x8c>
 8005b38:	429a      	cmp	r2, r3
 8005b3a:	d01d      	beq.n	8005b78 <HAL_RCCEx_PeriphCLKConfig+0x8c>
 8005b3c:	f8d5 2090 	ldr.w	r2, [r5, #144]	@ 0x90
 8005b40:	f8d5 3090 	ldr.w	r3, [r5, #144]	@ 0x90
 8005b44:	f443 3380 	orr.w	r3, r3, #65536	@ 0x10000
 8005b48:	f8c5 3090 	str.w	r3, [r5, #144]	@ 0x90
 8005b4c:	f8d5 3090 	ldr.w	r3, [r5, #144]	@ 0x90
 8005b50:	f422 7140 	bic.w	r1, r2, #768	@ 0x300
 8005b54:	f423 3380 	bic.w	r3, r3, #65536	@ 0x10000
 8005b58:	07d2      	lsls	r2, r2, #31
 8005b5a:	f8c5 3090 	str.w	r3, [r5, #144]	@ 0x90
 8005b5e:	f8c5 1090 	str.w	r1, [r5, #144]	@ 0x90
 8005b62:	d509      	bpl.n	8005b78 <HAL_RCCEx_PeriphCLKConfig+0x8c>
 8005b64:	f7fe f87c 	bl	8003c60 <HAL_GetTick>
 8005b68:	f241 3888 	movw	r8, #5000	@ 0x1388
 8005b6c:	4607      	mov	r7, r0
 8005b6e:	f8d5 3090 	ldr.w	r3, [r5, #144]	@ 0x90
 8005b72:	079b      	lsls	r3, r3, #30
 8005b74:	f140 80a3 	bpl.w	8005cbe <HAL_RCCEx_PeriphCLKConfig+0x1d2>
 8005b78:	f8d5 3090 	ldr.w	r3, [r5, #144]	@ 0x90
 8005b7c:	6b22      	ldr	r2, [r4, #48]	@ 0x30
 8005b7e:	f423 7340 	bic.w	r3, r3, #768	@ 0x300
 8005b82:	4313      	orrs	r3, r2
 8005b84:	f8c5 3090 	str.w	r3, [r5, #144]	@ 0x90
 8005b88:	2000      	movs	r0, #0
 8005b8a:	e008      	b.n	8005b9e <HAL_RCCEx_PeriphCLKConfig+0xb2>
 8005b8c:	2600      	movs	r6, #0
 8005b8e:	e7c2      	b.n	8005b16 <HAL_RCCEx_PeriphCLKConfig+0x2a>
 8005b90:	f7fe f866 	bl	8003c60 <HAL_GetTick>
 8005b94:	eba0 0008 	sub.w	r0, r0, r8
 8005b98:	2802      	cmp	r0, #2
 8005b9a:	d9c4      	bls.n	8005b26 <HAL_RCCEx_PeriphCLKConfig+0x3a>
 8005b9c:	2003      	movs	r0, #3
 8005b9e:	b11e      	cbz	r6, 8005ba8 <HAL_RCCEx_PeriphCLKConfig+0xbc>
 8005ba0:	6dab      	ldr	r3, [r5, #88]	@ 0x58
 8005ba2:	f023 5380 	bic.w	r3, r3, #268435456	@ 0x10000000
 8005ba6:	65ab      	str	r3, [r5, #88]	@ 0x58
 8005ba8:	6823      	ldr	r3, [r4, #0]
 8005baa:	07df      	lsls	r7, r3, #31
 8005bac:	d508      	bpl.n	8005bc0 <HAL_RCCEx_PeriphCLKConfig+0xd4>
 8005bae:	4947      	ldr	r1, [pc, #284]	@ (8005ccc <HAL_RCCEx_PeriphCLKConfig+0x1e0>)
 8005bb0:	6865      	ldr	r5, [r4, #4]
 8005bb2:	f8d1 2088 	ldr.w	r2, [r1, #136]	@ 0x88
 8005bb6:	f022 0203 	bic.w	r2, r2, #3
 8005bba:	432a      	orrs	r2, r5
 8005bbc:	f8c1 2088 	str.w	r2, [r1, #136]	@ 0x88
 8005bc0:	079e      	lsls	r6, r3, #30
 8005bc2:	d508      	bpl.n	8005bd6 <HAL_RCCEx_PeriphCLKConfig+0xea>
 8005bc4:	4941      	ldr	r1, [pc, #260]	@ (8005ccc <HAL_RCCEx_PeriphCLKConfig+0x1e0>)
 8005bc6:	68a5      	ldr	r5, [r4, #8]
 8005bc8:	f8d1 2088 	ldr.w	r2, [r1, #136]	@ 0x88
 8005bcc:	f022 020c 	bic.w	r2, r2, #12
 8005bd0:	432a      	orrs	r2, r5
 8005bd2:	f8c1 2088 	str.w	r2, [r1, #136]	@ 0x88
 8005bd6:	075d      	lsls	r5, r3, #29
 8005bd8:	d508      	bpl.n	8005bec <HAL_RCCEx_PeriphCLKConfig+0x100>
 8005bda:	493c      	ldr	r1, [pc, #240]	@ (8005ccc <HAL_RCCEx_PeriphCLKConfig+0x1e0>)
 8005bdc:	68e5      	ldr	r5, [r4, #12]
 8005bde:	f8d1 2088 	ldr.w	r2, [r1, #136]	@ 0x88
 8005be2:	f022 0230 	bic.w	r2, r2, #48	@ 0x30
 8005be6:	432a      	orrs	r2, r5
 8005be8:	f8c1 2088 	str.w	r2, [r1, #136]	@ 0x88
 8005bec:	0699      	lsls	r1, r3, #26
 8005bee:	d508      	bpl.n	8005c02 <HAL_RCCEx_PeriphCLKConfig+0x116>
 8005bf0:	4936      	ldr	r1, [pc, #216]	@ (8005ccc <HAL_RCCEx_PeriphCLKConfig+0x1e0>)
 8005bf2:	6925      	ldr	r5, [r4, #16]
 8005bf4:	f8d1 2088 	ldr.w	r2, [r1, #136]	@ 0x88
 8005bf8:	f422 6240 	bic.w	r2, r2, #3072	@ 0xc00
 8005bfc:	432a      	orrs	r2, r5
 8005bfe:	f8c1 2088 	str.w	r2, [r1, #136]	@ 0x88
 8005c02:	059a      	lsls	r2, r3, #22
 8005c04:	d508      	bpl.n	8005c18 <HAL_RCCEx_PeriphCLKConfig+0x12c>
 8005c06:	4931      	ldr	r1, [pc, #196]	@ (8005ccc <HAL_RCCEx_PeriphCLKConfig+0x1e0>)
 8005c08:	6a25      	ldr	r5, [r4, #32]
 8005c0a:	f8d1 2088 	ldr.w	r2, [r1, #136]	@ 0x88
 8005c0e:	f422 2240 	bic.w	r2, r2, #786432	@ 0xc0000
 8005c12:	432a      	orrs	r2, r5
 8005c14:	f8c1 2088 	str.w	r2, [r1, #136]	@ 0x88
 8005c18:	055f      	lsls	r7, r3, #21
 8005c1a:	d508      	bpl.n	8005c2e <HAL_RCCEx_PeriphCLKConfig+0x142>
 8005c1c:	492b      	ldr	r1, [pc, #172]	@ (8005ccc <HAL_RCCEx_PeriphCLKConfig+0x1e0>)
 8005c1e:	6a65      	ldr	r5, [r4, #36]	@ 0x24
 8005c20:	f8d1 2088 	ldr.w	r2, [r1, #136]	@ 0x88
 8005c24:	f422 1240 	bic.w	r2, r2, #3145728	@ 0x300000
 8005c28:	432a      	orrs	r2, r5
 8005c2a:	f8c1 2088 	str.w	r2, [r1, #136]	@ 0x88
 8005c2e:	065e      	lsls	r6, r3, #25
 8005c30:	d508      	bpl.n	8005c44 <HAL_RCCEx_PeriphCLKConfig+0x158>
 8005c32:	4926      	ldr	r1, [pc, #152]	@ (8005ccc <HAL_RCCEx_PeriphCLKConfig+0x1e0>)
 8005c34:	6965      	ldr	r5, [r4, #20]
 8005c36:	f8d1 2088 	ldr.w	r2, [r1, #136]	@ 0x88
 8005c3a:	f422 5240 	bic.w	r2, r2, #12288	@ 0x3000
 8005c3e:	432a      	orrs	r2, r5
 8005c40:	f8c1 2088 	str.w	r2, [r1, #136]	@ 0x88
 8005c44:	061d      	lsls	r5, r3, #24
 8005c46:	d508      	bpl.n	8005c5a <HAL_RCCEx_PeriphCLKConfig+0x16e>
 8005c48:	4920      	ldr	r1, [pc, #128]	@ (8005ccc <HAL_RCCEx_PeriphCLKConfig+0x1e0>)
 8005c4a:	69a5      	ldr	r5, [r4, #24]
 8005c4c:	f8d1 2088 	ldr.w	r2, [r1, #136]	@ 0x88
 8005c50:	f422 4240 	bic.w	r2, r2, #49152	@ 0xc000
 8005c54:	432a      	orrs	r2, r5
 8005c56:	f8c1 2088 	str.w	r2, [r1, #136]	@ 0x88
 8005c5a:	05d9      	lsls	r1, r3, #23
 8005c5c:	d508      	bpl.n	8005c70 <HAL_RCCEx_PeriphCLKConfig+0x184>
 8005c5e:	491b      	ldr	r1, [pc, #108]	@ (8005ccc <HAL_RCCEx_PeriphCLKConfig+0x1e0>)
 8005c60:	69e5      	ldr	r5, [r4, #28]
 8005c62:	f8d1 2088 	ldr.w	r2, [r1, #136]	@ 0x88
 8005c66:	f422 3240 	bic.w	r2, r2, #196608	@ 0x30000
 8005c6a:	432a      	orrs	r2, r5
 8005c6c:	f8c1 2088 	str.w	r2, [r1, #136]	@ 0x88
 8005c70:	049a      	lsls	r2, r3, #18
 8005c72:	d50f      	bpl.n	8005c94 <HAL_RCCEx_PeriphCLKConfig+0x1a8>
 8005c74:	4915      	ldr	r1, [pc, #84]	@ (8005ccc <HAL_RCCEx_PeriphCLKConfig+0x1e0>)
 8005c76:	6aa5      	ldr	r5, [r4, #40]	@ 0x28
 8005c78:	f8d1 2088 	ldr.w	r2, [r1, #136]	@ 0x88
 8005c7c:	f022 6240 	bic.w	r2, r2, #201326592	@ 0xc000000
 8005c80:	432a      	orrs	r2, r5
 8005c82:	f8c1 2088 	str.w	r2, [r1, #136]	@ 0x88
 8005c86:	f1b5 6f00 	cmp.w	r5, #134217728	@ 0x8000000
 8005c8a:	bf02      	ittt	eq
 8005c8c:	68ca      	ldreq	r2, [r1, #12]
 8005c8e:	f442 1280 	orreq.w	r2, r2, #1048576	@ 0x100000
 8005c92:	60ca      	streq	r2, [r1, #12]
 8005c94:	035b      	lsls	r3, r3, #13
 8005c96:	d50f      	bpl.n	8005cb8 <HAL_RCCEx_PeriphCLKConfig+0x1cc>
 8005c98:	4a0c      	ldr	r2, [pc, #48]	@ (8005ccc <HAL_RCCEx_PeriphCLKConfig+0x1e0>)
 8005c9a:	6ae1      	ldr	r1, [r4, #44]	@ 0x2c
 8005c9c:	f8d2 3088 	ldr.w	r3, [r2, #136]	@ 0x88
 8005ca0:	f023 6340 	bic.w	r3, r3, #201326592	@ 0xc000000
 8005ca4:	430b      	orrs	r3, r1
 8005ca6:	f1b1 6f00 	cmp.w	r1, #134217728	@ 0x8000000
 8005caa:	f8c2 3088 	str.w	r3, [r2, #136]	@ 0x88
 8005cae:	d103      	bne.n	8005cb8 <HAL_RCCEx_PeriphCLKConfig+0x1cc>
 8005cb0:	68d3      	ldr	r3, [r2, #12]
 8005cb2:	f443 1380 	orr.w	r3, r3, #1048576	@ 0x100000
 8005cb6:	60d3      	str	r3, [r2, #12]
 8005cb8:	b002      	add	sp, #8
 8005cba:	e8bd 81f0 	ldmia.w	sp!, {r4, r5, r6, r7, r8, pc}
 8005cbe:	f7fd ffcf 	bl	8003c60 <HAL_GetTick>
 8005cc2:	1bc0      	subs	r0, r0, r7
 8005cc4:	4540      	cmp	r0, r8
 8005cc6:	f67f af52 	bls.w	8005b6e <HAL_RCCEx_PeriphCLKConfig+0x82>
 8005cca:	e767      	b.n	8005b9c <HAL_RCCEx_PeriphCLKConfig+0xb0>
 8005ccc:	40021000 	.word	0x40021000
 8005cd0:	40007000 	.word	0x40007000

08005cd4 <HAL_TIM_Base_Start_IT>:
 8005cd4:	f890 303d 	ldrb.w	r3, [r0, #61]	@ 0x3d
 8005cd8:	2b01      	cmp	r3, #1
 8005cda:	d11f      	bne.n	8005d1c <HAL_TIM_Base_Start_IT+0x48>
 8005cdc:	2302      	movs	r3, #2
 8005cde:	f880 303d 	strb.w	r3, [r0, #61]	@ 0x3d
 8005ce2:	6803      	ldr	r3, [r0, #0]
 8005ce4:	68da      	ldr	r2, [r3, #12]
 8005ce6:	f042 0201 	orr.w	r2, r2, #1
 8005cea:	60da      	str	r2, [r3, #12]
 8005cec:	4a0c      	ldr	r2, [pc, #48]	@ (8005d20 <HAL_TIM_Base_Start_IT+0x4c>)
 8005cee:	4293      	cmp	r3, r2
 8005cf0:	d006      	beq.n	8005d00 <HAL_TIM_Base_Start_IT+0x2c>
 8005cf2:	f1b3 4f80 	cmp.w	r3, #1073741824	@ 0x40000000
 8005cf6:	d003      	beq.n	8005d00 <HAL_TIM_Base_Start_IT+0x2c>
 8005cf8:	f502 52a0 	add.w	r2, r2, #5120	@ 0x1400
 8005cfc:	4293      	cmp	r3, r2
 8005cfe:	d107      	bne.n	8005d10 <HAL_TIM_Base_Start_IT+0x3c>
 8005d00:	6899      	ldr	r1, [r3, #8]
 8005d02:	4a08      	ldr	r2, [pc, #32]	@ (8005d24 <HAL_TIM_Base_Start_IT+0x50>)
 8005d04:	400a      	ands	r2, r1
 8005d06:	2a06      	cmp	r2, #6
 8005d08:	d006      	beq.n	8005d18 <HAL_TIM_Base_Start_IT+0x44>
 8005d0a:	f5b2 3f80 	cmp.w	r2, #65536	@ 0x10000
 8005d0e:	d003      	beq.n	8005d18 <HAL_TIM_Base_Start_IT+0x44>
 8005d10:	681a      	ldr	r2, [r3, #0]
 8005d12:	f042 0201 	orr.w	r2, r2, #1
 8005d16:	601a      	str	r2, [r3, #0]
 8005d18:	2000      	movs	r0, #0
 8005d1a:	4770      	bx	lr
 8005d1c:	2001      	movs	r0, #1
 8005d1e:	4770      	bx	lr
 8005d20:	40012c00 	.word	0x40012c00
 8005d24:	00010007 	.word	0x00010007

08005d28 <HAL_TIM_OC_DelayElapsedCallback>:
 8005d28:	4770      	bx	lr

08005d2a <HAL_TIM_IC_CaptureCallback>:
 8005d2a:	4770      	bx	lr

08005d2c <HAL_TIM_PWM_PulseFinishedCallback>:
 8005d2c:	4770      	bx	lr

08005d2e <HAL_TIM_TriggerCallback>:
 8005d2e:	4770      	bx	lr

08005d30 <HAL_TIM_IRQHandler>:
 8005d30:	6803      	ldr	r3, [r0, #0]
 8005d32:	b570      	push	{r4, r5, r6, lr}
 8005d34:	68dd      	ldr	r5, [r3, #12]
 8005d36:	691e      	ldr	r6, [r3, #16]
 8005d38:	07b2      	lsls	r2, r6, #30
 8005d3a:	4604      	mov	r4, r0
 8005d3c:	d50d      	bpl.n	8005d5a <HAL_TIM_IRQHandler+0x2a>
 8005d3e:	07a9      	lsls	r1, r5, #30
 8005d40:	d50b      	bpl.n	8005d5a <HAL_TIM_IRQHandler+0x2a>
 8005d42:	f06f 0202 	mvn.w	r2, #2
 8005d46:	611a      	str	r2, [r3, #16]
 8005d48:	2201      	movs	r2, #1
 8005d4a:	7702      	strb	r2, [r0, #28]
 8005d4c:	699b      	ldr	r3, [r3, #24]
 8005d4e:	079a      	lsls	r2, r3, #30
 8005d50:	d075      	beq.n	8005e3e <HAL_TIM_IRQHandler+0x10e>
 8005d52:	f7ff ffea 	bl	8005d2a <HAL_TIM_IC_CaptureCallback>
 8005d56:	2300      	movs	r3, #0
 8005d58:	7723      	strb	r3, [r4, #28]
 8005d5a:	0773      	lsls	r3, r6, #29
 8005d5c:	d510      	bpl.n	8005d80 <HAL_TIM_IRQHandler+0x50>
 8005d5e:	0768      	lsls	r0, r5, #29
 8005d60:	d50e      	bpl.n	8005d80 <HAL_TIM_IRQHandler+0x50>
 8005d62:	6823      	ldr	r3, [r4, #0]
 8005d64:	f06f 0204 	mvn.w	r2, #4
 8005d68:	611a      	str	r2, [r3, #16]
 8005d6a:	2202      	movs	r2, #2
 8005d6c:	7722      	strb	r2, [r4, #28]
 8005d6e:	699b      	ldr	r3, [r3, #24]
 8005d70:	f413 7f40 	tst.w	r3, #768	@ 0x300
 8005d74:	4620      	mov	r0, r4
 8005d76:	d068      	beq.n	8005e4a <HAL_TIM_IRQHandler+0x11a>
 8005d78:	f7ff ffd7 	bl	8005d2a <HAL_TIM_IC_CaptureCallback>
 8005d7c:	2300      	movs	r3, #0
 8005d7e:	7723      	strb	r3, [r4, #28]
 8005d80:	0731      	lsls	r1, r6, #28
 8005d82:	d50f      	bpl.n	8005da4 <HAL_TIM_IRQHandler+0x74>
 8005d84:	072a      	lsls	r2, r5, #28
 8005d86:	d50d      	bpl.n	8005da4 <HAL_TIM_IRQHandler+0x74>
 8005d88:	6823      	ldr	r3, [r4, #0]
 8005d8a:	f06f 0208 	mvn.w	r2, #8
 8005d8e:	611a      	str	r2, [r3, #16]
 8005d90:	2204      	movs	r2, #4
 8005d92:	7722      	strb	r2, [r4, #28]
 8005d94:	69db      	ldr	r3, [r3, #28]
 8005d96:	079b      	lsls	r3, r3, #30
 8005d98:	4620      	mov	r0, r4
 8005d9a:	d05c      	beq.n	8005e56 <HAL_TIM_IRQHandler+0x126>
 8005d9c:	f7ff ffc5 	bl	8005d2a <HAL_TIM_IC_CaptureCallback>
 8005da0:	2300      	movs	r3, #0
 8005da2:	7723      	strb	r3, [r4, #28]
 8005da4:	06f1      	lsls	r1, r6, #27
 8005da6:	d510      	bpl.n	8005dca <HAL_TIM_IRQHandler+0x9a>
 8005da8:	06ea      	lsls	r2, r5, #27
 8005daa:	d50e      	bpl.n	8005dca <HAL_TIM_IRQHandler+0x9a>
 8005dac:	6823      	ldr	r3, [r4, #0]
 8005dae:	f06f 0210 	mvn.w	r2, #16
 8005db2:	611a      	str	r2, [r3, #16]
 8005db4:	2208      	movs	r2, #8
 8005db6:	7722      	strb	r2, [r4, #28]
 8005db8:	69db      	ldr	r3, [r3, #28]
 8005dba:	f413 7f40 	tst.w	r3, #768	@ 0x300
 8005dbe:	4620      	mov	r0, r4
 8005dc0:	d04f      	beq.n	8005e62 <HAL_TIM_IRQHandler+0x132>
 8005dc2:	f7ff ffb2 	bl	8005d2a <HAL_TIM_IC_CaptureCallback>
 8005dc6:	2300      	movs	r3, #0
 8005dc8:	7723      	strb	r3, [r4, #28]
 8005dca:	07f3      	lsls	r3, r6, #31
 8005dcc:	d508      	bpl.n	8005de0 <HAL_TIM_IRQHandler+0xb0>
 8005dce:	07e8      	lsls	r0, r5, #31
 8005dd0:	d506      	bpl.n	8005de0 <HAL_TIM_IRQHandler+0xb0>
 8005dd2:	6823      	ldr	r3, [r4, #0]
 8005dd4:	f06f 0201 	mvn.w	r2, #1
 8005dd8:	611a      	str	r2, [r3, #16]
 8005dda:	4620      	mov	r0, r4
 8005ddc:	f7fd fb88 	bl	80034f0 <HAL_TIM_PeriodElapsedCallback>
 8005de0:	f416 5f02 	tst.w	r6, #8320	@ 0x2080
 8005de4:	d008      	beq.n	8005df8 <HAL_TIM_IRQHandler+0xc8>
 8005de6:	0629      	lsls	r1, r5, #24
 8005de8:	d506      	bpl.n	8005df8 <HAL_TIM_IRQHandler+0xc8>
 8005dea:	6823      	ldr	r3, [r4, #0]
 8005dec:	f46f 5202 	mvn.w	r2, #8320	@ 0x2080
 8005df0:	611a      	str	r2, [r3, #16]
 8005df2:	4620      	mov	r0, r4
 8005df4:	f000 f97f 	bl	80060f6 <HAL_TIMEx_BreakCallback>
 8005df8:	05f2      	lsls	r2, r6, #23
 8005dfa:	d508      	bpl.n	8005e0e <HAL_TIM_IRQHandler+0xde>
 8005dfc:	062b      	lsls	r3, r5, #24
 8005dfe:	d506      	bpl.n	8005e0e <HAL_TIM_IRQHandler+0xde>
 8005e00:	6823      	ldr	r3, [r4, #0]
 8005e02:	f46f 7280 	mvn.w	r2, #256	@ 0x100
 8005e06:	611a      	str	r2, [r3, #16]
 8005e08:	4620      	mov	r0, r4
 8005e0a:	f000 f975 	bl	80060f8 <HAL_TIMEx_Break2Callback>
 8005e0e:	0670      	lsls	r0, r6, #25
 8005e10:	d508      	bpl.n	8005e24 <HAL_TIM_IRQHandler+0xf4>
 8005e12:	0669      	lsls	r1, r5, #25
 8005e14:	d506      	bpl.n	8005e24 <HAL_TIM_IRQHandler+0xf4>
 8005e16:	6823      	ldr	r3, [r4, #0]
 8005e18:	f06f 0240 	mvn.w	r2, #64	@ 0x40
 8005e1c:	611a      	str	r2, [r3, #16]
 8005e1e:	4620      	mov	r0, r4
 8005e20:	f7ff ff85 	bl	8005d2e <HAL_TIM_TriggerCallback>
 8005e24:	06b2      	lsls	r2, r6, #26
 8005e26:	d522      	bpl.n	8005e6e <HAL_TIM_IRQHandler+0x13e>
 8005e28:	06ab      	lsls	r3, r5, #26
 8005e2a:	d520      	bpl.n	8005e6e <HAL_TIM_IRQHandler+0x13e>
 8005e2c:	6823      	ldr	r3, [r4, #0]
 8005e2e:	f06f 0220 	mvn.w	r2, #32
 8005e32:	4620      	mov	r0, r4
 8005e34:	611a      	str	r2, [r3, #16]
 8005e36:	e8bd 4070 	ldmia.w	sp!, {r4, r5, r6, lr}
 8005e3a:	f000 b95b 	b.w	80060f4 <HAL_TIMEx_CommutCallback>
 8005e3e:	f7ff ff73 	bl	8005d28 <HAL_TIM_OC_DelayElapsedCallback>
 8005e42:	4620      	mov	r0, r4
 8005e44:	f7ff ff72 	bl	8005d2c <HAL_TIM_PWM_PulseFinishedCallback>
 8005e48:	e785      	b.n	8005d56 <HAL_TIM_IRQHandler+0x26>
 8005e4a:	f7ff ff6d 	bl	8005d28 <HAL_TIM_OC_DelayElapsedCallback>
 8005e4e:	4620      	mov	r0, r4
 8005e50:	f7ff ff6c 	bl	8005d2c <HAL_TIM_PWM_PulseFinishedCallback>
 8005e54:	e792      	b.n	8005d7c <HAL_TIM_IRQHandler+0x4c>
 8005e56:	f7ff ff67 	bl	8005d28 <HAL_TIM_OC_DelayElapsedCallback>
 8005e5a:	4620      	mov	r0, r4
 8005e5c:	f7ff ff66 	bl	8005d2c <HAL_TIM_PWM_PulseFinishedCallback>
 8005e60:	e79e      	b.n	8005da0 <HAL_TIM_IRQHandler+0x70>
 8005e62:	f7ff ff61 	bl	8005d28 <HAL_TIM_OC_DelayElapsedCallback>
 8005e66:	4620      	mov	r0, r4
 8005e68:	f7ff ff60 	bl	8005d2c <HAL_TIM_PWM_PulseFinishedCallback>
 8005e6c:	e7ab      	b.n	8005dc6 <HAL_TIM_IRQHandler+0x96>
 8005e6e:	bd70      	pop	{r4, r5, r6, pc}

08005e70 <TIM_Base_SetConfig>:
 8005e70:	4a1b      	ldr	r2, [pc, #108]	@ (8005ee0 <TIM_Base_SetConfig+0x70>)
 8005e72:	6803      	ldr	r3, [r0, #0]
 8005e74:	4290      	cmp	r0, r2
 8005e76:	d00b      	beq.n	8005e90 <TIM_Base_SetConfig+0x20>
 8005e78:	f1b0 4f80 	cmp.w	r0, #1073741824	@ 0x40000000
 8005e7c:	d008      	beq.n	8005e90 <TIM_Base_SetConfig+0x20>
 8005e7e:	f502 52a0 	add.w	r2, r2, #5120	@ 0x1400
 8005e82:	4290      	cmp	r0, r2
 8005e84:	d109      	bne.n	8005e9a <TIM_Base_SetConfig+0x2a>
 8005e86:	68ca      	ldr	r2, [r1, #12]
 8005e88:	f423 7340 	bic.w	r3, r3, #768	@ 0x300
 8005e8c:	4313      	orrs	r3, r2
 8005e8e:	e007      	b.n	8005ea0 <TIM_Base_SetConfig+0x30>
 8005e90:	684a      	ldr	r2, [r1, #4]
 8005e92:	f023 0370 	bic.w	r3, r3, #112	@ 0x70
 8005e96:	4313      	orrs	r3, r2
 8005e98:	e7f5      	b.n	8005e86 <TIM_Base_SetConfig+0x16>
 8005e9a:	4a12      	ldr	r2, [pc, #72]	@ (8005ee4 <TIM_Base_SetConfig+0x74>)
 8005e9c:	4290      	cmp	r0, r2
 8005e9e:	d0f2      	beq.n	8005e86 <TIM_Base_SetConfig+0x16>
 8005ea0:	694a      	ldr	r2, [r1, #20]
 8005ea2:	f023 0380 	bic.w	r3, r3, #128	@ 0x80
 8005ea6:	4313      	orrs	r3, r2
 8005ea8:	6003      	str	r3, [r0, #0]
 8005eaa:	688b      	ldr	r3, [r1, #8]
 8005eac:	62c3      	str	r3, [r0, #44]	@ 0x2c
 8005eae:	680b      	ldr	r3, [r1, #0]
 8005eb0:	6283      	str	r3, [r0, #40]	@ 0x28
 8005eb2:	4b0b      	ldr	r3, [pc, #44]	@ (8005ee0 <TIM_Base_SetConfig+0x70>)
 8005eb4:	4298      	cmp	r0, r3
 8005eb6:	d007      	beq.n	8005ec8 <TIM_Base_SetConfig+0x58>
 8005eb8:	f503 53a0 	add.w	r3, r3, #5120	@ 0x1400
 8005ebc:	4298      	cmp	r0, r3
 8005ebe:	d003      	beq.n	8005ec8 <TIM_Base_SetConfig+0x58>
 8005ec0:	f503 6380 	add.w	r3, r3, #1024	@ 0x400
 8005ec4:	4298      	cmp	r0, r3
 8005ec6:	d101      	bne.n	8005ecc <TIM_Base_SetConfig+0x5c>
 8005ec8:	690b      	ldr	r3, [r1, #16]
 8005eca:	6303      	str	r3, [r0, #48]	@ 0x30
 8005ecc:	2301      	movs	r3, #1
 8005ece:	6143      	str	r3, [r0, #20]
 8005ed0:	6903      	ldr	r3, [r0, #16]
 8005ed2:	07db      	lsls	r3, r3, #31
 8005ed4:	bf42      	ittt	mi
 8005ed6:	6903      	ldrmi	r3, [r0, #16]
 8005ed8:	f023 0301 	bicmi.w	r3, r3, #1
 8005edc:	6103      	strmi	r3, [r0, #16]
 8005ede:	4770      	bx	lr
 8005ee0:	40012c00 	.word	0x40012c00
 8005ee4:	40014400 	.word	0x40014400

08005ee8 <HAL_TIM_Base_Init>:
 8005ee8:	b510      	push	{r4, lr}
 8005eea:	4604      	mov	r4, r0
 8005eec:	b350      	cbz	r0, 8005f44 <HAL_TIM_Base_Init+0x5c>
 8005eee:	f890 303d 	ldrb.w	r3, [r0, #61]	@ 0x3d
 8005ef2:	f003 02ff 	and.w	r2, r3, #255	@ 0xff
 8005ef6:	b91b      	cbnz	r3, 8005f00 <HAL_TIM_Base_Init+0x18>
 8005ef8:	f880 203c 	strb.w	r2, [r0, #60]	@ 0x3c
 8005efc:	f7fd fd8c 	bl	8003a18 <HAL_TIM_Base_MspInit>
 8005f00:	2302      	movs	r3, #2
 8005f02:	6820      	ldr	r0, [r4, #0]
 8005f04:	f884 303d 	strb.w	r3, [r4, #61]	@ 0x3d
 8005f08:	1d21      	adds	r1, r4, #4
 8005f0a:	f7ff ffb1 	bl	8005e70 <TIM_Base_SetConfig>
 8005f0e:	2301      	movs	r3, #1
 8005f10:	f884 3048 	strb.w	r3, [r4, #72]	@ 0x48
 8005f14:	2000      	movs	r0, #0
 8005f16:	f884 303e 	strb.w	r3, [r4, #62]	@ 0x3e
 8005f1a:	f884 303f 	strb.w	r3, [r4, #63]	@ 0x3f
 8005f1e:	f884 3040 	strb.w	r3, [r4, #64]	@ 0x40
 8005f22:	f884 3041 	strb.w	r3, [r4, #65]	@ 0x41
 8005f26:	f884 3042 	strb.w	r3, [r4, #66]	@ 0x42
 8005f2a:	f884 3043 	strb.w	r3, [r4, #67]	@ 0x43
 8005f2e:	f884 3044 	strb.w	r3, [r4, #68]	@ 0x44
 8005f32:	f884 3045 	strb.w	r3, [r4, #69]	@ 0x45
 8005f36:	f884 3046 	strb.w	r3, [r4, #70]	@ 0x46
 8005f3a:	f884 3047 	strb.w	r3, [r4, #71]	@ 0x47
 8005f3e:	f884 303d 	strb.w	r3, [r4, #61]	@ 0x3d
 8005f42:	bd10      	pop	{r4, pc}
 8005f44:	2001      	movs	r0, #1
 8005f46:	e7fc      	b.n	8005f42 <HAL_TIM_Base_Init+0x5a>

08005f48 <TIM_ETR_SetConfig>:
 8005f48:	b510      	push	{r4, lr}
 8005f4a:	6884      	ldr	r4, [r0, #8]
 8005f4c:	430a      	orrs	r2, r1
 8005f4e:	f424 447f 	bic.w	r4, r4, #65280	@ 0xff00
 8005f52:	ea42 2203 	orr.w	r2, r2, r3, lsl #8
 8005f56:	4322      	orrs	r2, r4
 8005f58:	6082      	str	r2, [r0, #8]
 8005f5a:	bd10      	pop	{r4, pc}

08005f5c <HAL_TIM_ConfigClockSource>:
 8005f5c:	b538      	push	{r3, r4, r5, lr}
 8005f5e:	f890 303c 	ldrb.w	r3, [r0, #60]	@ 0x3c
 8005f62:	2b01      	cmp	r3, #1
 8005f64:	4604      	mov	r4, r0
 8005f66:	f04f 0002 	mov.w	r0, #2
 8005f6a:	f000 808c 	beq.w	8006086 <HAL_TIM_ConfigClockSource+0x12a>
 8005f6e:	f884 003d 	strb.w	r0, [r4, #61]	@ 0x3d
 8005f72:	2201      	movs	r2, #1
 8005f74:	6820      	ldr	r0, [r4, #0]
 8005f76:	f884 203c 	strb.w	r2, [r4, #60]	@ 0x3c
 8005f7a:	6885      	ldr	r5, [r0, #8]
 8005f7c:	4b43      	ldr	r3, [pc, #268]	@ (800608c <HAL_TIM_ConfigClockSource+0x130>)
 8005f7e:	402b      	ands	r3, r5
 8005f80:	6083      	str	r3, [r0, #8]
 8005f82:	680b      	ldr	r3, [r1, #0]
 8005f84:	2b60      	cmp	r3, #96	@ 0x60
 8005f86:	d04f      	beq.n	8006028 <HAL_TIM_ConfigClockSource+0xcc>
 8005f88:	d832      	bhi.n	8005ff0 <HAL_TIM_ConfigClockSource+0x94>
 8005f8a:	2b40      	cmp	r3, #64	@ 0x40
 8005f8c:	d064      	beq.n	8006058 <HAL_TIM_ConfigClockSource+0xfc>
 8005f8e:	d816      	bhi.n	8005fbe <HAL_TIM_ConfigClockSource+0x62>
 8005f90:	2b20      	cmp	r3, #32
 8005f92:	d00d      	beq.n	8005fb0 <HAL_TIM_ConfigClockSource+0x54>
 8005f94:	d80a      	bhi.n	8005fac <HAL_TIM_ConfigClockSource+0x50>
 8005f96:	f033 0110 	bics.w	r1, r3, #16
 8005f9a:	d009      	beq.n	8005fb0 <HAL_TIM_ConfigClockSource+0x54>
 8005f9c:	2301      	movs	r3, #1
 8005f9e:	f884 303d 	strb.w	r3, [r4, #61]	@ 0x3d
 8005fa2:	2300      	movs	r3, #0
 8005fa4:	f884 303c 	strb.w	r3, [r4, #60]	@ 0x3c
 8005fa8:	4610      	mov	r0, r2
 8005faa:	bd38      	pop	{r3, r4, r5, pc}
 8005fac:	2b30      	cmp	r3, #48	@ 0x30
 8005fae:	d1f5      	bne.n	8005f9c <HAL_TIM_ConfigClockSource+0x40>
 8005fb0:	6882      	ldr	r2, [r0, #8]
 8005fb2:	f022 0270 	bic.w	r2, r2, #112	@ 0x70
 8005fb6:	4313      	orrs	r3, r2
 8005fb8:	f043 0307 	orr.w	r3, r3, #7
 8005fbc:	e028      	b.n	8006010 <HAL_TIM_ConfigClockSource+0xb4>
 8005fbe:	2b50      	cmp	r3, #80	@ 0x50
 8005fc0:	d1ec      	bne.n	8005f9c <HAL_TIM_ConfigClockSource+0x40>
 8005fc2:	684a      	ldr	r2, [r1, #4]
 8005fc4:	68cd      	ldr	r5, [r1, #12]
 8005fc6:	6a01      	ldr	r1, [r0, #32]
 8005fc8:	6a03      	ldr	r3, [r0, #32]
 8005fca:	f023 0301 	bic.w	r3, r3, #1
 8005fce:	6203      	str	r3, [r0, #32]
 8005fd0:	6983      	ldr	r3, [r0, #24]
 8005fd2:	f021 010a 	bic.w	r1, r1, #10
 8005fd6:	f023 03f0 	bic.w	r3, r3, #240	@ 0xf0
 8005fda:	ea43 1305 	orr.w	r3, r3, r5, lsl #4
 8005fde:	430a      	orrs	r2, r1
 8005fe0:	6183      	str	r3, [r0, #24]
 8005fe2:	6202      	str	r2, [r0, #32]
 8005fe4:	6883      	ldr	r3, [r0, #8]
 8005fe6:	f023 0370 	bic.w	r3, r3, #112	@ 0x70
 8005fea:	f043 0357 	orr.w	r3, r3, #87	@ 0x57
 8005fee:	e00f      	b.n	8006010 <HAL_TIM_ConfigClockSource+0xb4>
 8005ff0:	f5b3 5f80 	cmp.w	r3, #4096	@ 0x1000
 8005ff4:	d00d      	beq.n	8006012 <HAL_TIM_ConfigClockSource+0xb6>
 8005ff6:	f5b3 5f00 	cmp.w	r3, #8192	@ 0x2000
 8005ffa:	d00c      	beq.n	8006016 <HAL_TIM_ConfigClockSource+0xba>
 8005ffc:	2b70      	cmp	r3, #112	@ 0x70
 8005ffe:	d1cd      	bne.n	8005f9c <HAL_TIM_ConfigClockSource+0x40>
 8006000:	68cb      	ldr	r3, [r1, #12]
 8006002:	e9d1 2101 	ldrd	r2, r1, [r1, #4]
 8006006:	f7ff ff9f 	bl	8005f48 <TIM_ETR_SetConfig>
 800600a:	6883      	ldr	r3, [r0, #8]
 800600c:	f043 0377 	orr.w	r3, r3, #119	@ 0x77
 8006010:	6083      	str	r3, [r0, #8]
 8006012:	2200      	movs	r2, #0
 8006014:	e7c2      	b.n	8005f9c <HAL_TIM_ConfigClockSource+0x40>
 8006016:	68cb      	ldr	r3, [r1, #12]
 8006018:	e9d1 2101 	ldrd	r2, r1, [r1, #4]
 800601c:	f7ff ff94 	bl	8005f48 <TIM_ETR_SetConfig>
 8006020:	6883      	ldr	r3, [r0, #8]
 8006022:	f443 4380 	orr.w	r3, r3, #16384	@ 0x4000
 8006026:	e7f3      	b.n	8006010 <HAL_TIM_ConfigClockSource+0xb4>
 8006028:	6a03      	ldr	r3, [r0, #32]
 800602a:	6a02      	ldr	r2, [r0, #32]
 800602c:	684d      	ldr	r5, [r1, #4]
 800602e:	68c9      	ldr	r1, [r1, #12]
 8006030:	f022 0210 	bic.w	r2, r2, #16
 8006034:	6202      	str	r2, [r0, #32]
 8006036:	6982      	ldr	r2, [r0, #24]
 8006038:	f023 03a0 	bic.w	r3, r3, #160	@ 0xa0
 800603c:	f422 4270 	bic.w	r2, r2, #61440	@ 0xf000
 8006040:	ea43 1305 	orr.w	r3, r3, r5, lsl #4
 8006044:	ea42 3201 	orr.w	r2, r2, r1, lsl #12
 8006048:	6182      	str	r2, [r0, #24]
 800604a:	6203      	str	r3, [r0, #32]
 800604c:	6883      	ldr	r3, [r0, #8]
 800604e:	f023 0370 	bic.w	r3, r3, #112	@ 0x70
 8006052:	f043 0367 	orr.w	r3, r3, #103	@ 0x67
 8006056:	e7db      	b.n	8006010 <HAL_TIM_ConfigClockSource+0xb4>
 8006058:	684a      	ldr	r2, [r1, #4]
 800605a:	68cd      	ldr	r5, [r1, #12]
 800605c:	6a01      	ldr	r1, [r0, #32]
 800605e:	6a03      	ldr	r3, [r0, #32]
 8006060:	f023 0301 	bic.w	r3, r3, #1
 8006064:	6203      	str	r3, [r0, #32]
 8006066:	6983      	ldr	r3, [r0, #24]
 8006068:	f021 010a 	bic.w	r1, r1, #10
 800606c:	f023 03f0 	bic.w	r3, r3, #240	@ 0xf0
 8006070:	ea43 1305 	orr.w	r3, r3, r5, lsl #4
 8006074:	430a      	orrs	r2, r1
 8006076:	6183      	str	r3, [r0, #24]
 8006078:	6202      	str	r2, [r0, #32]
 800607a:	6883      	ldr	r3, [r0, #8]
 800607c:	f023 0370 	bic.w	r3, r3, #112	@ 0x70
 8006080:	f043 0347 	orr.w	r3, r3, #71	@ 0x47
 8006084:	e7c4      	b.n	8006010 <HAL_TIM_ConfigClockSource+0xb4>
 8006086:	4602      	mov	r2, r0
 8006088:	e78e      	b.n	8005fa8 <HAL_TIM_ConfigClockSource+0x4c>
 800608a:	bf00      	nop
 800608c:	fffe0088 	.word	0xfffe0088

08006090 <HAL_TIMEx_MasterConfigSynchronization>:
 8006090:	b570      	push	{r4, r5, r6, lr}
 8006092:	f890 303c 	ldrb.w	r3, [r0, #60]	@ 0x3c
 8006096:	2b01      	cmp	r3, #1
 8006098:	4604      	mov	r4, r0
 800609a:	f04f 0002 	mov.w	r0, #2
 800609e:	d023      	beq.n	80060e8 <HAL_TIMEx_MasterConfigSynchronization+0x58>
 80060a0:	6822      	ldr	r2, [r4, #0]
 80060a2:	4d12      	ldr	r5, [pc, #72]	@ (80060ec <HAL_TIMEx_MasterConfigSynchronization+0x5c>)
 80060a4:	f884 003d 	strb.w	r0, [r4, #61]	@ 0x3d
 80060a8:	6853      	ldr	r3, [r2, #4]
 80060aa:	6890      	ldr	r0, [r2, #8]
 80060ac:	42aa      	cmp	r2, r5
 80060ae:	bf02      	ittt	eq
 80060b0:	684e      	ldreq	r6, [r1, #4]
 80060b2:	f423 0370 	biceq.w	r3, r3, #15728640	@ 0xf00000
 80060b6:	4333      	orreq	r3, r6
 80060b8:	680e      	ldr	r6, [r1, #0]
 80060ba:	f023 0370 	bic.w	r3, r3, #112	@ 0x70
 80060be:	4333      	orrs	r3, r6
 80060c0:	42aa      	cmp	r2, r5
 80060c2:	6053      	str	r3, [r2, #4]
 80060c4:	d005      	beq.n	80060d2 <HAL_TIMEx_MasterConfigSynchronization+0x42>
 80060c6:	f1b2 4f80 	cmp.w	r2, #1073741824	@ 0x40000000
 80060ca:	d002      	beq.n	80060d2 <HAL_TIMEx_MasterConfigSynchronization+0x42>
 80060cc:	4b08      	ldr	r3, [pc, #32]	@ (80060f0 <HAL_TIMEx_MasterConfigSynchronization+0x60>)
 80060ce:	429a      	cmp	r2, r3
 80060d0:	d104      	bne.n	80060dc <HAL_TIMEx_MasterConfigSynchronization+0x4c>
 80060d2:	6889      	ldr	r1, [r1, #8]
 80060d4:	f020 0380 	bic.w	r3, r0, #128	@ 0x80
 80060d8:	430b      	orrs	r3, r1
 80060da:	6093      	str	r3, [r2, #8]
 80060dc:	2301      	movs	r3, #1
 80060de:	2000      	movs	r0, #0
 80060e0:	f884 303d 	strb.w	r3, [r4, #61]	@ 0x3d
 80060e4:	f884 003c 	strb.w	r0, [r4, #60]	@ 0x3c
 80060e8:	bd70      	pop	{r4, r5, r6, pc}
 80060ea:	bf00      	nop
 80060ec:	40012c00 	.word	0x40012c00
 80060f0:	40014000 	.word	0x40014000

080060f4 <HAL_TIMEx_CommutCallback>:
 80060f4:	4770      	bx	lr

080060f6 <HAL_TIMEx_BreakCallback>:
 80060f6:	4770      	bx	lr

080060f8 <HAL_TIMEx_Break2Callback>:
 80060f8:	4770      	bx	lr

080060fa <UART_EndRxTransfer>:
 80060fa:	6802      	ldr	r2, [r0, #0]
 80060fc:	e852 3f00 	ldrex	r3, [r2]
 8006100:	f423 7390 	bic.w	r3, r3, #288	@ 0x120
 8006104:	e842 3100 	strex	r1, r3, [r2]
 8006108:	6802      	ldr	r2, [r0, #0]
 800610a:	2900      	cmp	r1, #0
 800610c:	d1f5      	bne.n	80060fa <UART_EndRxTransfer>
 800610e:	f102 0308 	add.w	r3, r2, #8
 8006112:	e853 3f00 	ldrex	r3, [r3]
 8006116:	f023 0301 	bic.w	r3, r3, #1
 800611a:	f102 0c08 	add.w	ip, r2, #8
 800611e:	e84c 3100 	strex	r1, r3, [ip]
 8006122:	2900      	cmp	r1, #0
 8006124:	d1f3      	bne.n	800610e <UART_EndRxTransfer+0x14>
 8006126:	6e03      	ldr	r3, [r0, #96]	@ 0x60
 8006128:	2b01      	cmp	r3, #1
 800612a:	d107      	bne.n	800613c <UART_EndRxTransfer+0x42>
 800612c:	e852 3f00 	ldrex	r3, [r2]
 8006130:	f023 0310 	bic.w	r3, r3, #16
 8006134:	e842 3100 	strex	r1, r3, [r2]
 8006138:	2900      	cmp	r1, #0
 800613a:	d1f7      	bne.n	800612c <UART_EndRxTransfer+0x32>
 800613c:	2320      	movs	r3, #32
 800613e:	f8c0 3080 	str.w	r3, [r0, #128]	@ 0x80
 8006142:	2300      	movs	r3, #0
 8006144:	6603      	str	r3, [r0, #96]	@ 0x60
 8006146:	6683      	str	r3, [r0, #104]	@ 0x68
 8006148:	4770      	bx	lr

0800614a <HAL_UART_DMAStop>:
 800614a:	6802      	ldr	r2, [r0, #0]
 800614c:	b538      	push	{r3, r4, r5, lr}
 800614e:	6fc3      	ldr	r3, [r0, #124]	@ 0x7c
 8006150:	f8d0 5080 	ldr.w	r5, [r0, #128]	@ 0x80
 8006154:	6891      	ldr	r1, [r2, #8]
 8006156:	0609      	lsls	r1, r1, #24
 8006158:	4604      	mov	r4, r0
 800615a:	d527      	bpl.n	80061ac <HAL_UART_DMAStop+0x62>
 800615c:	2b21      	cmp	r3, #33	@ 0x21
 800615e:	d125      	bne.n	80061ac <HAL_UART_DMAStop+0x62>
 8006160:	f102 0308 	add.w	r3, r2, #8
 8006164:	e853 3f00 	ldrex	r3, [r3]
 8006168:	f023 0380 	bic.w	r3, r3, #128	@ 0x80
 800616c:	f102 0008 	add.w	r0, r2, #8
 8006170:	e840 3100 	strex	r1, r3, [r0]
 8006174:	2900      	cmp	r1, #0
 8006176:	d1f3      	bne.n	8006160 <HAL_UART_DMAStop+0x16>
 8006178:	6f20      	ldr	r0, [r4, #112]	@ 0x70
 800617a:	b160      	cbz	r0, 8006196 <HAL_UART_DMAStop+0x4c>
 800617c:	f7fe fadc 	bl	8004738 <HAL_DMA_Abort>
 8006180:	b148      	cbz	r0, 8006196 <HAL_UART_DMAStop+0x4c>
 8006182:	6f20      	ldr	r0, [r4, #112]	@ 0x70
 8006184:	f7fe fb67 	bl	8004856 <HAL_DMA_GetError>
 8006188:	2820      	cmp	r0, #32
 800618a:	d104      	bne.n	8006196 <HAL_UART_DMAStop+0x4c>
 800618c:	2310      	movs	r3, #16
 800618e:	f8c4 3084 	str.w	r3, [r4, #132]	@ 0x84
 8006192:	2003      	movs	r0, #3
 8006194:	e011      	b.n	80061ba <HAL_UART_DMAStop+0x70>
 8006196:	6822      	ldr	r2, [r4, #0]
 8006198:	e852 3f00 	ldrex	r3, [r2]
 800619c:	f023 03c0 	bic.w	r3, r3, #192	@ 0xc0
 80061a0:	e842 3100 	strex	r1, r3, [r2]
 80061a4:	2900      	cmp	r1, #0
 80061a6:	d1f6      	bne.n	8006196 <HAL_UART_DMAStop+0x4c>
 80061a8:	2320      	movs	r3, #32
 80061aa:	67e3      	str	r3, [r4, #124]	@ 0x7c
 80061ac:	6822      	ldr	r2, [r4, #0]
 80061ae:	6893      	ldr	r3, [r2, #8]
 80061b0:	065b      	lsls	r3, r3, #25
 80061b2:	d501      	bpl.n	80061b8 <HAL_UART_DMAStop+0x6e>
 80061b4:	2d22      	cmp	r5, #34	@ 0x22
 80061b6:	d001      	beq.n	80061bc <HAL_UART_DMAStop+0x72>
 80061b8:	2000      	movs	r0, #0
 80061ba:	bd38      	pop	{r3, r4, r5, pc}
 80061bc:	f102 0308 	add.w	r3, r2, #8
 80061c0:	e853 3f00 	ldrex	r3, [r3]
 80061c4:	f023 0340 	bic.w	r3, r3, #64	@ 0x40
 80061c8:	f102 0008 	add.w	r0, r2, #8
 80061cc:	e840 3100 	strex	r1, r3, [r0]
 80061d0:	2900      	cmp	r1, #0
 80061d2:	d1f3      	bne.n	80061bc <HAL_UART_DMAStop+0x72>
 80061d4:	6f60      	ldr	r0, [r4, #116]	@ 0x74
 80061d6:	b138      	cbz	r0, 80061e8 <HAL_UART_DMAStop+0x9e>
 80061d8:	f7fe faae 	bl	8004738 <HAL_DMA_Abort>
 80061dc:	b120      	cbz	r0, 80061e8 <HAL_UART_DMAStop+0x9e>
 80061de:	6f60      	ldr	r0, [r4, #116]	@ 0x74
 80061e0:	f7fe fb39 	bl	8004856 <HAL_DMA_GetError>
 80061e4:	2820      	cmp	r0, #32
 80061e6:	d0d1      	beq.n	800618c <HAL_UART_DMAStop+0x42>
 80061e8:	4620      	mov	r0, r4
 80061ea:	f7ff ff86 	bl	80060fa <UART_EndRxTransfer>
 80061ee:	e7e3      	b.n	80061b8 <HAL_UART_DMAStop+0x6e>

080061f0 <HAL_UART_TxCpltCallback>:
 80061f0:	4770      	bx	lr

080061f2 <HAL_UART_RxCpltCallback>:
 80061f2:	4770      	bx	lr

080061f4 <HAL_UART_RxHalfCpltCallback>:
 80061f4:	4770      	bx	lr

080061f6 <HAL_UART_ErrorCallback>:
 80061f6:	4770      	bx	lr

080061f8 <UART_DMAError>:
 80061f8:	6a80      	ldr	r0, [r0, #40]	@ 0x28
 80061fa:	6803      	ldr	r3, [r0, #0]
 80061fc:	6fc2      	ldr	r2, [r0, #124]	@ 0x7c
 80061fe:	f8d0 1080 	ldr.w	r1, [r0, #128]	@ 0x80
 8006202:	b510      	push	{r4, lr}
 8006204:	689c      	ldr	r4, [r3, #8]
 8006206:	0624      	lsls	r4, r4, #24
 8006208:	d50e      	bpl.n	8006228 <UART_DMAError+0x30>
 800620a:	2a21      	cmp	r2, #33	@ 0x21
 800620c:	d10c      	bne.n	8006228 <UART_DMAError+0x30>
 800620e:	2200      	movs	r2, #0
 8006210:	f8a0 2052 	strh.w	r2, [r0, #82]	@ 0x52
 8006214:	e853 2f00 	ldrex	r2, [r3]
 8006218:	f022 02c0 	bic.w	r2, r2, #192	@ 0xc0
 800621c:	e843 2400 	strex	r4, r2, [r3]
 8006220:	2c00      	cmp	r4, #0
 8006222:	d1f7      	bne.n	8006214 <UART_DMAError+0x1c>
 8006224:	2220      	movs	r2, #32
 8006226:	67c2      	str	r2, [r0, #124]	@ 0x7c
 8006228:	689b      	ldr	r3, [r3, #8]
 800622a:	065b      	lsls	r3, r3, #25
 800622c:	d506      	bpl.n	800623c <UART_DMAError+0x44>
 800622e:	2922      	cmp	r1, #34	@ 0x22
 8006230:	d104      	bne.n	800623c <UART_DMAError+0x44>
 8006232:	2300      	movs	r3, #0
 8006234:	f8a0 305a 	strh.w	r3, [r0, #90]	@ 0x5a
 8006238:	f7ff ff5f 	bl	80060fa <UART_EndRxTransfer>
 800623c:	f8d0 3084 	ldr.w	r3, [r0, #132]	@ 0x84
 8006240:	f043 0310 	orr.w	r3, r3, #16
 8006244:	f8c0 3084 	str.w	r3, [r0, #132]	@ 0x84
 8006248:	f7ff ffd5 	bl	80061f6 <HAL_UART_ErrorCallback>
 800624c:	bd10      	pop	{r4, pc}

0800624e <UART_DMAAbortOnError>:
 800624e:	b508      	push	{r3, lr}
 8006250:	6a80      	ldr	r0, [r0, #40]	@ 0x28
 8006252:	2300      	movs	r3, #0
 8006254:	f8a0 305a 	strh.w	r3, [r0, #90]	@ 0x5a
 8006258:	f8a0 3052 	strh.w	r3, [r0, #82]	@ 0x52
 800625c:	f7ff ffcb 	bl	80061f6 <HAL_UART_ErrorCallback>
 8006260:	bd08      	pop	{r3, pc}
	...

08006264 <HAL_UART_IRQHandler>:
 8006264:	6803      	ldr	r3, [r0, #0]
 8006266:	69da      	ldr	r2, [r3, #28]
 8006268:	6819      	ldr	r1, [r3, #0]
 800626a:	b570      	push	{r4, r5, r6, lr}
 800626c:	f640 060f 	movw	r6, #2063	@ 0x80f
 8006270:	4232      	tst	r2, r6
 8006272:	689d      	ldr	r5, [r3, #8]
 8006274:	4604      	mov	r4, r0
 8006276:	d10b      	bne.n	8006290 <HAL_UART_IRQHandler+0x2c>
 8006278:	0696      	lsls	r6, r2, #26
 800627a:	f140 8088 	bpl.w	800638e <HAL_UART_IRQHandler+0x12a>
 800627e:	068e      	lsls	r6, r1, #26
 8006280:	f140 8085 	bpl.w	800638e <HAL_UART_IRQHandler+0x12a>
 8006284:	6e83      	ldr	r3, [r0, #104]	@ 0x68
 8006286:	2b00      	cmp	r3, #0
 8006288:	d07b      	beq.n	8006382 <HAL_UART_IRQHandler+0x11e>
 800628a:	e8bd 4070 	ldmia.w	sp!, {r4, r5, r6, lr}
 800628e:	4718      	bx	r3
 8006290:	4e9c      	ldr	r6, [pc, #624]	@ (8006504 <HAL_UART_IRQHandler+0x2a0>)
 8006292:	f005 0001 	and.w	r0, r5, #1
 8006296:	400e      	ands	r6, r1
 8006298:	4306      	orrs	r6, r0
 800629a:	d078      	beq.n	800638e <HAL_UART_IRQHandler+0x12a>
 800629c:	07d5      	lsls	r5, r2, #31
 800629e:	d509      	bpl.n	80062b4 <HAL_UART_IRQHandler+0x50>
 80062a0:	05ce      	lsls	r6, r1, #23
 80062a2:	d507      	bpl.n	80062b4 <HAL_UART_IRQHandler+0x50>
 80062a4:	2501      	movs	r5, #1
 80062a6:	621d      	str	r5, [r3, #32]
 80062a8:	f8d4 5084 	ldr.w	r5, [r4, #132]	@ 0x84
 80062ac:	f045 0501 	orr.w	r5, r5, #1
 80062b0:	f8c4 5084 	str.w	r5, [r4, #132]	@ 0x84
 80062b4:	0795      	lsls	r5, r2, #30
 80062b6:	d508      	bpl.n	80062ca <HAL_UART_IRQHandler+0x66>
 80062b8:	b138      	cbz	r0, 80062ca <HAL_UART_IRQHandler+0x66>
 80062ba:	2502      	movs	r5, #2
 80062bc:	621d      	str	r5, [r3, #32]
 80062be:	f8d4 5084 	ldr.w	r5, [r4, #132]	@ 0x84
 80062c2:	f045 0504 	orr.w	r5, r5, #4
 80062c6:	f8c4 5084 	str.w	r5, [r4, #132]	@ 0x84
 80062ca:	0756      	lsls	r6, r2, #29
 80062cc:	d508      	bpl.n	80062e0 <HAL_UART_IRQHandler+0x7c>
 80062ce:	b138      	cbz	r0, 80062e0 <HAL_UART_IRQHandler+0x7c>
 80062d0:	2504      	movs	r5, #4
 80062d2:	621d      	str	r5, [r3, #32]
 80062d4:	f8d4 5084 	ldr.w	r5, [r4, #132]	@ 0x84
 80062d8:	f045 0502 	orr.w	r5, r5, #2
 80062dc:	f8c4 5084 	str.w	r5, [r4, #132]	@ 0x84
 80062e0:	0715      	lsls	r5, r2, #28
 80062e2:	d50b      	bpl.n	80062fc <HAL_UART_IRQHandler+0x98>
 80062e4:	f001 0520 	and.w	r5, r1, #32
 80062e8:	4305      	orrs	r5, r0
 80062ea:	d007      	beq.n	80062fc <HAL_UART_IRQHandler+0x98>
 80062ec:	2008      	movs	r0, #8
 80062ee:	6218      	str	r0, [r3, #32]
 80062f0:	f8d4 0084 	ldr.w	r0, [r4, #132]	@ 0x84
 80062f4:	f040 0008 	orr.w	r0, r0, #8
 80062f8:	f8c4 0084 	str.w	r0, [r4, #132]	@ 0x84
 80062fc:	0516      	lsls	r6, r2, #20
 80062fe:	d50a      	bpl.n	8006316 <HAL_UART_IRQHandler+0xb2>
 8006300:	014d      	lsls	r5, r1, #5
 8006302:	d508      	bpl.n	8006316 <HAL_UART_IRQHandler+0xb2>
 8006304:	f44f 6000 	mov.w	r0, #2048	@ 0x800
 8006308:	6218      	str	r0, [r3, #32]
 800630a:	f8d4 3084 	ldr.w	r3, [r4, #132]	@ 0x84
 800630e:	f043 0320 	orr.w	r3, r3, #32
 8006312:	f8c4 3084 	str.w	r3, [r4, #132]	@ 0x84
 8006316:	f8d4 3084 	ldr.w	r3, [r4, #132]	@ 0x84
 800631a:	2b00      	cmp	r3, #0
 800631c:	d031      	beq.n	8006382 <HAL_UART_IRQHandler+0x11e>
 800631e:	0690      	lsls	r0, r2, #26
 8006320:	d505      	bpl.n	800632e <HAL_UART_IRQHandler+0xca>
 8006322:	068a      	lsls	r2, r1, #26
 8006324:	d503      	bpl.n	800632e <HAL_UART_IRQHandler+0xca>
 8006326:	6ea3      	ldr	r3, [r4, #104]	@ 0x68
 8006328:	b10b      	cbz	r3, 800632e <HAL_UART_IRQHandler+0xca>
 800632a:	4620      	mov	r0, r4
 800632c:	4798      	blx	r3
 800632e:	6826      	ldr	r6, [r4, #0]
 8006330:	f8d4 2084 	ldr.w	r2, [r4, #132]	@ 0x84
 8006334:	68b3      	ldr	r3, [r6, #8]
 8006336:	f002 0228 	and.w	r2, r2, #40	@ 0x28
 800633a:	f003 0340 	and.w	r3, r3, #64	@ 0x40
 800633e:	ea53 0502 	orrs.w	r5, r3, r2
 8006342:	4620      	mov	r0, r4
 8006344:	d01e      	beq.n	8006384 <HAL_UART_IRQHandler+0x120>
 8006346:	f7ff fed8 	bl	80060fa <UART_EndRxTransfer>
 800634a:	68b3      	ldr	r3, [r6, #8]
 800634c:	065b      	lsls	r3, r3, #25
 800634e:	d515      	bpl.n	800637c <HAL_UART_IRQHandler+0x118>
 8006350:	6822      	ldr	r2, [r4, #0]
 8006352:	f102 0308 	add.w	r3, r2, #8
 8006356:	e853 3f00 	ldrex	r3, [r3]
 800635a:	f023 0340 	bic.w	r3, r3, #64	@ 0x40
 800635e:	3208      	adds	r2, #8
 8006360:	e842 3100 	strex	r1, r3, [r2]
 8006364:	2900      	cmp	r1, #0
 8006366:	d1f3      	bne.n	8006350 <HAL_UART_IRQHandler+0xec>
 8006368:	6f60      	ldr	r0, [r4, #116]	@ 0x74
 800636a:	b138      	cbz	r0, 800637c <HAL_UART_IRQHandler+0x118>
 800636c:	4b66      	ldr	r3, [pc, #408]	@ (8006508 <HAL_UART_IRQHandler+0x2a4>)
 800636e:	6383      	str	r3, [r0, #56]	@ 0x38
 8006370:	f7fe fa03 	bl	800477a <HAL_DMA_Abort_IT>
 8006374:	b128      	cbz	r0, 8006382 <HAL_UART_IRQHandler+0x11e>
 8006376:	6f60      	ldr	r0, [r4, #116]	@ 0x74
 8006378:	6b83      	ldr	r3, [r0, #56]	@ 0x38
 800637a:	e786      	b.n	800628a <HAL_UART_IRQHandler+0x26>
 800637c:	4620      	mov	r0, r4
 800637e:	f7ff ff3a 	bl	80061f6 <HAL_UART_ErrorCallback>
 8006382:	bd70      	pop	{r4, r5, r6, pc}
 8006384:	f7ff ff37 	bl	80061f6 <HAL_UART_ErrorCallback>
 8006388:	f8c4 5084 	str.w	r5, [r4, #132]	@ 0x84
 800638c:	e7f9      	b.n	8006382 <HAL_UART_IRQHandler+0x11e>
 800638e:	6e20      	ldr	r0, [r4, #96]	@ 0x60
 8006390:	2801      	cmp	r0, #1
 8006392:	f040 808b 	bne.w	80064ac <HAL_UART_IRQHandler+0x248>
 8006396:	06d6      	lsls	r6, r2, #27
 8006398:	f140 8088 	bpl.w	80064ac <HAL_UART_IRQHandler+0x248>
 800639c:	06c8      	lsls	r0, r1, #27
 800639e:	f140 8085 	bpl.w	80064ac <HAL_UART_IRQHandler+0x248>
 80063a2:	2210      	movs	r2, #16
 80063a4:	621a      	str	r2, [r3, #32]
 80063a6:	6899      	ldr	r1, [r3, #8]
 80063a8:	f8b4 2058 	ldrh.w	r2, [r4, #88]	@ 0x58
 80063ac:	0649      	lsls	r1, r1, #25
 80063ae:	d54f      	bpl.n	8006450 <HAL_UART_IRQHandler+0x1ec>
 80063b0:	6f61      	ldr	r1, [r4, #116]	@ 0x74
 80063b2:	6808      	ldr	r0, [r1, #0]
 80063b4:	6841      	ldr	r1, [r0, #4]
 80063b6:	b289      	uxth	r1, r1
 80063b8:	2900      	cmp	r1, #0
 80063ba:	d041      	beq.n	8006440 <HAL_UART_IRQHandler+0x1dc>
 80063bc:	4291      	cmp	r1, r2
 80063be:	d23f      	bcs.n	8006440 <HAL_UART_IRQHandler+0x1dc>
 80063c0:	f8a4 105a 	strh.w	r1, [r4, #90]	@ 0x5a
 80063c4:	6802      	ldr	r2, [r0, #0]
 80063c6:	0692      	lsls	r2, r2, #26
 80063c8:	d42e      	bmi.n	8006428 <HAL_UART_IRQHandler+0x1c4>
 80063ca:	e853 2f00 	ldrex	r2, [r3]
 80063ce:	f422 7280 	bic.w	r2, r2, #256	@ 0x100
 80063d2:	e843 2100 	strex	r1, r2, [r3]
 80063d6:	2900      	cmp	r1, #0
 80063d8:	d1f7      	bne.n	80063ca <HAL_UART_IRQHandler+0x166>
 80063da:	f103 0208 	add.w	r2, r3, #8
 80063de:	e852 2f00 	ldrex	r2, [r2]
 80063e2:	f022 0201 	bic.w	r2, r2, #1
 80063e6:	f103 0008 	add.w	r0, r3, #8
 80063ea:	e840 2100 	strex	r1, r2, [r0]
 80063ee:	2900      	cmp	r1, #0
 80063f0:	d1f3      	bne.n	80063da <HAL_UART_IRQHandler+0x176>
 80063f2:	f103 0208 	add.w	r2, r3, #8
 80063f6:	e852 2f00 	ldrex	r2, [r2]
 80063fa:	f022 0240 	bic.w	r2, r2, #64	@ 0x40
 80063fe:	f103 0008 	add.w	r0, r3, #8
 8006402:	e840 2100 	strex	r1, r2, [r0]
 8006406:	2900      	cmp	r1, #0
 8006408:	d1f3      	bne.n	80063f2 <HAL_UART_IRQHandler+0x18e>
 800640a:	2220      	movs	r2, #32
 800640c:	f8c4 2080 	str.w	r2, [r4, #128]	@ 0x80
 8006410:	6621      	str	r1, [r4, #96]	@ 0x60
 8006412:	e853 2f00 	ldrex	r2, [r3]
 8006416:	f022 0210 	bic.w	r2, r2, #16
 800641a:	e843 2100 	strex	r1, r2, [r3]
 800641e:	2900      	cmp	r1, #0
 8006420:	d1f7      	bne.n	8006412 <HAL_UART_IRQHandler+0x1ae>
 8006422:	6f60      	ldr	r0, [r4, #116]	@ 0x74
 8006424:	f7fe f988 	bl	8004738 <HAL_DMA_Abort>
 8006428:	2302      	movs	r3, #2
 800642a:	6663      	str	r3, [r4, #100]	@ 0x64
 800642c:	f8b4 305a 	ldrh.w	r3, [r4, #90]	@ 0x5a
 8006430:	f8b4 1058 	ldrh.w	r1, [r4, #88]	@ 0x58
 8006434:	1ac9      	subs	r1, r1, r3
 8006436:	b289      	uxth	r1, r1
 8006438:	4620      	mov	r0, r4
 800643a:	f7fc ffed 	bl	8003418 <HAL_UARTEx_RxEventCallback>
 800643e:	e7a0      	b.n	8006382 <HAL_UART_IRQHandler+0x11e>
 8006440:	4291      	cmp	r1, r2
 8006442:	d19e      	bne.n	8006382 <HAL_UART_IRQHandler+0x11e>
 8006444:	6803      	ldr	r3, [r0, #0]
 8006446:	069b      	lsls	r3, r3, #26
 8006448:	d59b      	bpl.n	8006382 <HAL_UART_IRQHandler+0x11e>
 800644a:	2302      	movs	r3, #2
 800644c:	6663      	str	r3, [r4, #100]	@ 0x64
 800644e:	e7f3      	b.n	8006438 <HAL_UART_IRQHandler+0x1d4>
 8006450:	f8b4 105a 	ldrh.w	r1, [r4, #90]	@ 0x5a
 8006454:	f8b4 005a 	ldrh.w	r0, [r4, #90]	@ 0x5a
 8006458:	b280      	uxth	r0, r0
 800645a:	b289      	uxth	r1, r1
 800645c:	2800      	cmp	r0, #0
 800645e:	d090      	beq.n	8006382 <HAL_UART_IRQHandler+0x11e>
 8006460:	1a51      	subs	r1, r2, r1
 8006462:	b289      	uxth	r1, r1
 8006464:	2900      	cmp	r1, #0
 8006466:	d08c      	beq.n	8006382 <HAL_UART_IRQHandler+0x11e>
 8006468:	e853 2f00 	ldrex	r2, [r3]
 800646c:	f422 7290 	bic.w	r2, r2, #288	@ 0x120
 8006470:	e843 2000 	strex	r0, r2, [r3]
 8006474:	2800      	cmp	r0, #0
 8006476:	d1f7      	bne.n	8006468 <HAL_UART_IRQHandler+0x204>
 8006478:	f103 0208 	add.w	r2, r3, #8
 800647c:	e852 2f00 	ldrex	r2, [r2]
 8006480:	f022 0201 	bic.w	r2, r2, #1
 8006484:	f103 0508 	add.w	r5, r3, #8
 8006488:	e845 2000 	strex	r0, r2, [r5]
 800648c:	2800      	cmp	r0, #0
 800648e:	d1f3      	bne.n	8006478 <HAL_UART_IRQHandler+0x214>
 8006490:	2220      	movs	r2, #32
 8006492:	f8c4 2080 	str.w	r2, [r4, #128]	@ 0x80
 8006496:	66a0      	str	r0, [r4, #104]	@ 0x68
 8006498:	6620      	str	r0, [r4, #96]	@ 0x60
 800649a:	e853 2f00 	ldrex	r2, [r3]
 800649e:	f022 0210 	bic.w	r2, r2, #16
 80064a2:	e843 2000 	strex	r0, r2, [r3]
 80064a6:	2800      	cmp	r0, #0
 80064a8:	d1f7      	bne.n	800649a <HAL_UART_IRQHandler+0x236>
 80064aa:	e7ce      	b.n	800644a <HAL_UART_IRQHandler+0x1e6>
 80064ac:	02d6      	lsls	r6, r2, #11
 80064ae:	d509      	bpl.n	80064c4 <HAL_UART_IRQHandler+0x260>
 80064b0:	0268      	lsls	r0, r5, #9
 80064b2:	d507      	bpl.n	80064c4 <HAL_UART_IRQHandler+0x260>
 80064b4:	f44f 1280 	mov.w	r2, #1048576	@ 0x100000
 80064b8:	4620      	mov	r0, r4
 80064ba:	621a      	str	r2, [r3, #32]
 80064bc:	e8bd 4070 	ldmia.w	sp!, {r4, r5, r6, lr}
 80064c0:	f000 bb24 	b.w	8006b0c <HAL_UARTEx_WakeupCallback>
 80064c4:	0616      	lsls	r6, r2, #24
 80064c6:	d507      	bpl.n	80064d8 <HAL_UART_IRQHandler+0x274>
 80064c8:	060d      	lsls	r5, r1, #24
 80064ca:	d505      	bpl.n	80064d8 <HAL_UART_IRQHandler+0x274>
 80064cc:	6ee3      	ldr	r3, [r4, #108]	@ 0x6c
 80064ce:	2b00      	cmp	r3, #0
 80064d0:	f43f af57 	beq.w	8006382 <HAL_UART_IRQHandler+0x11e>
 80064d4:	4620      	mov	r0, r4
 80064d6:	e6d8      	b.n	800628a <HAL_UART_IRQHandler+0x26>
 80064d8:	0650      	lsls	r0, r2, #25
 80064da:	f57f af52 	bpl.w	8006382 <HAL_UART_IRQHandler+0x11e>
 80064de:	064a      	lsls	r2, r1, #25
 80064e0:	f57f af4f 	bpl.w	8006382 <HAL_UART_IRQHandler+0x11e>
 80064e4:	e853 2f00 	ldrex	r2, [r3]
 80064e8:	f022 0240 	bic.w	r2, r2, #64	@ 0x40
 80064ec:	e843 2100 	strex	r1, r2, [r3]
 80064f0:	2900      	cmp	r1, #0
 80064f2:	d1f7      	bne.n	80064e4 <HAL_UART_IRQHandler+0x280>
 80064f4:	2320      	movs	r3, #32
 80064f6:	67e3      	str	r3, [r4, #124]	@ 0x7c
 80064f8:	66e1      	str	r1, [r4, #108]	@ 0x6c
 80064fa:	4620      	mov	r0, r4
 80064fc:	f7ff fe78 	bl	80061f0 <HAL_UART_TxCpltCallback>
 8006500:	e73f      	b.n	8006382 <HAL_UART_IRQHandler+0x11e>
 8006502:	bf00      	nop
 8006504:	04000120 	.word	0x04000120
 8006508:	0800624f 	.word	0x0800624f

0800650c <UART_DMARxHalfCplt>:
 800650c:	6a80      	ldr	r0, [r0, #40]	@ 0x28
 800650e:	b508      	push	{r3, lr}
 8006510:	2301      	movs	r3, #1
 8006512:	6643      	str	r3, [r0, #100]	@ 0x64
 8006514:	6e03      	ldr	r3, [r0, #96]	@ 0x60
 8006516:	2b01      	cmp	r3, #1
 8006518:	d105      	bne.n	8006526 <UART_DMARxHalfCplt+0x1a>
 800651a:	f8b0 1058 	ldrh.w	r1, [r0, #88]	@ 0x58
 800651e:	0849      	lsrs	r1, r1, #1
 8006520:	f7fc ff7a 	bl	8003418 <HAL_UARTEx_RxEventCallback>
 8006524:	bd08      	pop	{r3, pc}
 8006526:	f7ff fe65 	bl	80061f4 <HAL_UART_RxHalfCpltCallback>
 800652a:	e7fb      	b.n	8006524 <UART_DMARxHalfCplt+0x18>

0800652c <UART_DMAReceiveCplt>:
 800652c:	b508      	push	{r3, lr}
 800652e:	4603      	mov	r3, r0
 8006530:	6a80      	ldr	r0, [r0, #40]	@ 0x28
 8006532:	681b      	ldr	r3, [r3, #0]
 8006534:	681b      	ldr	r3, [r3, #0]
 8006536:	f013 0320 	ands.w	r3, r3, #32
 800653a:	d131      	bne.n	80065a0 <UART_DMAReceiveCplt+0x74>
 800653c:	f8a0 305a 	strh.w	r3, [r0, #90]	@ 0x5a
 8006540:	6802      	ldr	r2, [r0, #0]
 8006542:	e852 3f00 	ldrex	r3, [r2]
 8006546:	f423 7380 	bic.w	r3, r3, #256	@ 0x100
 800654a:	e842 3100 	strex	r1, r3, [r2]
 800654e:	6803      	ldr	r3, [r0, #0]
 8006550:	2900      	cmp	r1, #0
 8006552:	d1f5      	bne.n	8006540 <UART_DMAReceiveCplt+0x14>
 8006554:	f103 0208 	add.w	r2, r3, #8
 8006558:	e852 2f00 	ldrex	r2, [r2]
 800655c:	f022 0201 	bic.w	r2, r2, #1
 8006560:	f103 0c08 	add.w	ip, r3, #8
 8006564:	e84c 2100 	strex	r1, r2, [ip]
 8006568:	2900      	cmp	r1, #0
 800656a:	d1f3      	bne.n	8006554 <UART_DMAReceiveCplt+0x28>
 800656c:	f103 0208 	add.w	r2, r3, #8
 8006570:	e852 2f00 	ldrex	r2, [r2]
 8006574:	f022 0240 	bic.w	r2, r2, #64	@ 0x40
 8006578:	f103 0c08 	add.w	ip, r3, #8
 800657c:	e84c 2100 	strex	r1, r2, [ip]
 8006580:	2900      	cmp	r1, #0
 8006582:	d1f3      	bne.n	800656c <UART_DMAReceiveCplt+0x40>
 8006584:	2220      	movs	r2, #32
 8006586:	f8c0 2080 	str.w	r2, [r0, #128]	@ 0x80
 800658a:	6e02      	ldr	r2, [r0, #96]	@ 0x60
 800658c:	2a01      	cmp	r2, #1
 800658e:	d107      	bne.n	80065a0 <UART_DMAReceiveCplt+0x74>
 8006590:	e853 2f00 	ldrex	r2, [r3]
 8006594:	f022 0210 	bic.w	r2, r2, #16
 8006598:	e843 2100 	strex	r1, r2, [r3]
 800659c:	2900      	cmp	r1, #0
 800659e:	d1f7      	bne.n	8006590 <UART_DMAReceiveCplt+0x64>
 80065a0:	2300      	movs	r3, #0
 80065a2:	6643      	str	r3, [r0, #100]	@ 0x64
 80065a4:	6e03      	ldr	r3, [r0, #96]	@ 0x60
 80065a6:	2b01      	cmp	r3, #1
 80065a8:	d104      	bne.n	80065b4 <UART_DMAReceiveCplt+0x88>
 80065aa:	f8b0 1058 	ldrh.w	r1, [r0, #88]	@ 0x58
 80065ae:	f7fc ff33 	bl	8003418 <HAL_UARTEx_RxEventCallback>
 80065b2:	bd08      	pop	{r3, pc}
 80065b4:	f7ff fe1d 	bl	80061f2 <HAL_UART_RxCpltCallback>
 80065b8:	e7fb      	b.n	80065b2 <UART_DMAReceiveCplt+0x86>
	...

080065bc <UART_SetConfig>:
 80065bc:	b538      	push	{r3, r4, r5, lr}
 80065be:	4604      	mov	r4, r0
 80065c0:	69c0      	ldr	r0, [r0, #28]
 80065c2:	6921      	ldr	r1, [r4, #16]
 80065c4:	68a2      	ldr	r2, [r4, #8]
 80065c6:	6823      	ldr	r3, [r4, #0]
 80065c8:	430a      	orrs	r2, r1
 80065ca:	6961      	ldr	r1, [r4, #20]
 80065cc:	681d      	ldr	r5, [r3, #0]
 80065ce:	430a      	orrs	r2, r1
 80065d0:	4965      	ldr	r1, [pc, #404]	@ (8006768 <UART_SetConfig+0x1ac>)
 80065d2:	4302      	orrs	r2, r0
 80065d4:	4029      	ands	r1, r5
 80065d6:	430a      	orrs	r2, r1
 80065d8:	601a      	str	r2, [r3, #0]
 80065da:	685a      	ldr	r2, [r3, #4]
 80065dc:	68e1      	ldr	r1, [r4, #12]
 80065de:	f422 5240 	bic.w	r2, r2, #12288	@ 0x3000
 80065e2:	430a      	orrs	r2, r1
 80065e4:	605a      	str	r2, [r3, #4]
 80065e6:	4a61      	ldr	r2, [pc, #388]	@ (800676c <UART_SetConfig+0x1b0>)
 80065e8:	69a1      	ldr	r1, [r4, #24]
 80065ea:	4293      	cmp	r3, r2
 80065ec:	bf1c      	itt	ne
 80065ee:	6a22      	ldrne	r2, [r4, #32]
 80065f0:	4311      	orrne	r1, r2
 80065f2:	689a      	ldr	r2, [r3, #8]
 80065f4:	f422 6230 	bic.w	r2, r2, #2816	@ 0xb00
 80065f8:	430a      	orrs	r2, r1
 80065fa:	609a      	str	r2, [r3, #8]
 80065fc:	4a5c      	ldr	r2, [pc, #368]	@ (8006770 <UART_SetConfig+0x1b4>)
 80065fe:	4293      	cmp	r3, r2
 8006600:	d113      	bne.n	800662a <UART_SetConfig+0x6e>
 8006602:	4b5c      	ldr	r3, [pc, #368]	@ (8006774 <UART_SetConfig+0x1b8>)
 8006604:	f8d3 3088 	ldr.w	r3, [r3, #136]	@ 0x88
 8006608:	f003 0303 	and.w	r3, r3, #3
 800660c:	2b02      	cmp	r3, #2
 800660e:	f000 80a5 	beq.w	800675c <UART_SetConfig+0x1a0>
 8006612:	2b03      	cmp	r3, #3
 8006614:	f000 809c 	beq.w	8006750 <UART_SetConfig+0x194>
 8006618:	2b01      	cmp	r3, #1
 800661a:	f000 8093 	beq.w	8006744 <UART_SetConfig+0x188>
 800661e:	f5b0 4f00 	cmp.w	r0, #32768	@ 0x8000
 8006622:	d061      	beq.n	80066e8 <UART_SetConfig+0x12c>
 8006624:	f7ff fa50 	bl	8005ac8 <HAL_RCC_GetPCLK2Freq>
 8006628:	e079      	b.n	800671e <UART_SetConfig+0x162>
 800662a:	4a53      	ldr	r2, [pc, #332]	@ (8006778 <UART_SetConfig+0x1bc>)
 800662c:	4293      	cmp	r3, r2
 800662e:	d114      	bne.n	800665a <UART_SetConfig+0x9e>
 8006630:	4b50      	ldr	r3, [pc, #320]	@ (8006774 <UART_SetConfig+0x1b8>)
 8006632:	f8d3 3088 	ldr.w	r3, [r3, #136]	@ 0x88
 8006636:	f003 030c 	and.w	r3, r3, #12
 800663a:	2b08      	cmp	r3, #8
 800663c:	f000 808e 	beq.w	800675c <UART_SetConfig+0x1a0>
 8006640:	d807      	bhi.n	8006652 <UART_SetConfig+0x96>
 8006642:	2b00      	cmp	r3, #0
 8006644:	d17e      	bne.n	8006744 <UART_SetConfig+0x188>
 8006646:	f5b0 4f00 	cmp.w	r0, #32768	@ 0x8000
 800664a:	d166      	bne.n	800671a <UART_SetConfig+0x15e>
 800664c:	f7ff fa2a 	bl	8005aa4 <HAL_RCC_GetPCLK1Freq>
 8006650:	e04c      	b.n	80066ec <UART_SetConfig+0x130>
 8006652:	2b0c      	cmp	r3, #12
 8006654:	d07c      	beq.n	8006750 <UART_SetConfig+0x194>
 8006656:	2001      	movs	r0, #1
 8006658:	e026      	b.n	80066a8 <UART_SetConfig+0xec>
 800665a:	4a48      	ldr	r2, [pc, #288]	@ (800677c <UART_SetConfig+0x1c0>)
 800665c:	4293      	cmp	r3, r2
 800665e:	d109      	bne.n	8006674 <UART_SetConfig+0xb8>
 8006660:	4b44      	ldr	r3, [pc, #272]	@ (8006774 <UART_SetConfig+0x1b8>)
 8006662:	f8d3 3088 	ldr.w	r3, [r3, #136]	@ 0x88
 8006666:	f003 0330 	and.w	r3, r3, #48	@ 0x30
 800666a:	2b20      	cmp	r3, #32
 800666c:	d076      	beq.n	800675c <UART_SetConfig+0x1a0>
 800666e:	d9e8      	bls.n	8006642 <UART_SetConfig+0x86>
 8006670:	2b30      	cmp	r3, #48	@ 0x30
 8006672:	e7ef      	b.n	8006654 <UART_SetConfig+0x98>
 8006674:	4a3d      	ldr	r2, [pc, #244]	@ (800676c <UART_SetConfig+0x1b0>)
 8006676:	4293      	cmp	r3, r2
 8006678:	d1ed      	bne.n	8006656 <UART_SetConfig+0x9a>
 800667a:	4b3e      	ldr	r3, [pc, #248]	@ (8006774 <UART_SetConfig+0x1b8>)
 800667c:	f8d3 3088 	ldr.w	r3, [r3, #136]	@ 0x88
 8006680:	f403 6340 	and.w	r3, r3, #3072	@ 0xc00
 8006684:	f5b3 6f00 	cmp.w	r3, #2048	@ 0x800
 8006688:	d012      	beq.n	80066b0 <UART_SetConfig+0xf4>
 800668a:	d803      	bhi.n	8006694 <UART_SetConfig+0xd8>
 800668c:	b943      	cbnz	r3, 80066a0 <UART_SetConfig+0xe4>
 800668e:	f7ff fa09 	bl	8005aa4 <HAL_RCC_GetPCLK1Freq>
 8006692:	e007      	b.n	80066a4 <UART_SetConfig+0xe8>
 8006694:	f5b3 6f40 	cmp.w	r3, #3072	@ 0xc00
 8006698:	d1dd      	bne.n	8006656 <UART_SetConfig+0x9a>
 800669a:	f44f 4000 	mov.w	r0, #32768	@ 0x8000
 800669e:	e008      	b.n	80066b2 <UART_SetConfig+0xf6>
 80066a0:	f7fe fe38 	bl	8005314 <HAL_RCC_GetSysClockFreq>
 80066a4:	b928      	cbnz	r0, 80066b2 <UART_SetConfig+0xf6>
 80066a6:	2000      	movs	r0, #0
 80066a8:	2300      	movs	r3, #0
 80066aa:	e9c4 331a 	strd	r3, r3, [r4, #104]	@ 0x68
 80066ae:	bd38      	pop	{r3, r4, r5, pc}
 80066b0:	4833      	ldr	r0, [pc, #204]	@ (8006780 <UART_SetConfig+0x1c4>)
 80066b2:	6862      	ldr	r2, [r4, #4]
 80066b4:	eb02 0342 	add.w	r3, r2, r2, lsl #1
 80066b8:	4283      	cmp	r3, r0
 80066ba:	d8cc      	bhi.n	8006656 <UART_SetConfig+0x9a>
 80066bc:	ebb0 3f02 	cmp.w	r0, r2, lsl #12
 80066c0:	d8c9      	bhi.n	8006656 <UART_SetConfig+0x9a>
 80066c2:	0851      	lsrs	r1, r2, #1
 80066c4:	2300      	movs	r3, #0
 80066c6:	468c      	mov	ip, r1
 80066c8:	f44f 7580 	mov.w	r5, #256	@ 0x100
 80066cc:	4619      	mov	r1, r3
 80066ce:	fbe0 c105 	umlal	ip, r1, r0, r5
 80066d2:	4660      	mov	r0, ip
 80066d4:	f7fa f99a 	bl	8000a0c <__aeabi_uldivmod>
 80066d8:	4b2a      	ldr	r3, [pc, #168]	@ (8006784 <UART_SetConfig+0x1c8>)
 80066da:	f5a0 7240 	sub.w	r2, r0, #768	@ 0x300
 80066de:	429a      	cmp	r2, r3
 80066e0:	d8b9      	bhi.n	8006656 <UART_SetConfig+0x9a>
 80066e2:	6823      	ldr	r3, [r4, #0]
 80066e4:	60d8      	str	r0, [r3, #12]
 80066e6:	e7de      	b.n	80066a6 <UART_SetConfig+0xea>
 80066e8:	f7ff f9ee 	bl	8005ac8 <HAL_RCC_GetPCLK2Freq>
 80066ec:	2800      	cmp	r0, #0
 80066ee:	d0da      	beq.n	80066a6 <UART_SetConfig+0xea>
 80066f0:	6862      	ldr	r2, [r4, #4]
 80066f2:	0853      	lsrs	r3, r2, #1
 80066f4:	eb03 0340 	add.w	r3, r3, r0, lsl #1
 80066f8:	fbb3 f3f2 	udiv	r3, r3, r2
 80066fc:	f64f 72ef 	movw	r2, #65519	@ 0xffef
 8006700:	f1a3 0110 	sub.w	r1, r3, #16
 8006704:	4291      	cmp	r1, r2
 8006706:	d8a6      	bhi.n	8006656 <UART_SetConfig+0x9a>
 8006708:	f023 020f 	bic.w	r2, r3, #15
 800670c:	6821      	ldr	r1, [r4, #0]
 800670e:	b292      	uxth	r2, r2
 8006710:	f3c3 0342 	ubfx	r3, r3, #1, #3
 8006714:	4313      	orrs	r3, r2
 8006716:	60cb      	str	r3, [r1, #12]
 8006718:	e7c5      	b.n	80066a6 <UART_SetConfig+0xea>
 800671a:	f7ff f9c3 	bl	8005aa4 <HAL_RCC_GetPCLK1Freq>
 800671e:	2800      	cmp	r0, #0
 8006720:	d0c1      	beq.n	80066a6 <UART_SetConfig+0xea>
 8006722:	6862      	ldr	r2, [r4, #4]
 8006724:	eb00 0352 	add.w	r3, r0, r2, lsr #1
 8006728:	fbb3 f3f2 	udiv	r3, r3, r2
 800672c:	f64f 72ef 	movw	r2, #65519	@ 0xffef
 8006730:	f1a3 0110 	sub.w	r1, r3, #16
 8006734:	4291      	cmp	r1, r2
 8006736:	d88e      	bhi.n	8006656 <UART_SetConfig+0x9a>
 8006738:	6822      	ldr	r2, [r4, #0]
 800673a:	60d3      	str	r3, [r2, #12]
 800673c:	e7b3      	b.n	80066a6 <UART_SetConfig+0xea>
 800673e:	f7fe fde9 	bl	8005314 <HAL_RCC_GetSysClockFreq>
 8006742:	e7ec      	b.n	800671e <UART_SetConfig+0x162>
 8006744:	f5b0 4f00 	cmp.w	r0, #32768	@ 0x8000
 8006748:	d1f9      	bne.n	800673e <UART_SetConfig+0x182>
 800674a:	f7fe fde3 	bl	8005314 <HAL_RCC_GetSysClockFreq>
 800674e:	e7cd      	b.n	80066ec <UART_SetConfig+0x130>
 8006750:	f5b0 4f00 	cmp.w	r0, #32768	@ 0x8000
 8006754:	d0cc      	beq.n	80066f0 <UART_SetConfig+0x134>
 8006756:	f44f 4000 	mov.w	r0, #32768	@ 0x8000
 800675a:	e7e2      	b.n	8006722 <UART_SetConfig+0x166>
 800675c:	f5b0 4f00 	cmp.w	r0, #32768	@ 0x8000
 8006760:	4807      	ldr	r0, [pc, #28]	@ (8006780 <UART_SetConfig+0x1c4>)
 8006762:	d1de      	bne.n	8006722 <UART_SetConfig+0x166>
 8006764:	e7c4      	b.n	80066f0 <UART_SetConfig+0x134>
 8006766:	bf00      	nop
 8006768:	efff69f3 	.word	0xefff69f3
 800676c:	40008000 	.word	0x40008000
 8006770:	40013800 	.word	0x40013800
 8006774:	40021000 	.word	0x40021000
 8006778:	40004400 	.word	0x40004400
 800677c:	40004800 	.word	0x40004800
 8006780:	00f42400 	.word	0x00f42400
 8006784:	000ffcff 	.word	0x000ffcff

08006788 <UART_AdvFeatureConfig>:
 8006788:	6a43      	ldr	r3, [r0, #36]	@ 0x24
 800678a:	071a      	lsls	r2, r3, #28
 800678c:	b510      	push	{r4, lr}
 800678e:	d506      	bpl.n	800679e <UART_AdvFeatureConfig+0x16>
 8006790:	6801      	ldr	r1, [r0, #0]
 8006792:	6b44      	ldr	r4, [r0, #52]	@ 0x34
 8006794:	684a      	ldr	r2, [r1, #4]
 8006796:	f422 4200 	bic.w	r2, r2, #32768	@ 0x8000
 800679a:	4322      	orrs	r2, r4
 800679c:	604a      	str	r2, [r1, #4]
 800679e:	07dc      	lsls	r4, r3, #31
 80067a0:	d506      	bpl.n	80067b0 <UART_AdvFeatureConfig+0x28>
 80067a2:	6801      	ldr	r1, [r0, #0]
 80067a4:	6a84      	ldr	r4, [r0, #40]	@ 0x28
 80067a6:	684a      	ldr	r2, [r1, #4]
 80067a8:	f422 3200 	bic.w	r2, r2, #131072	@ 0x20000
 80067ac:	4322      	orrs	r2, r4
 80067ae:	604a      	str	r2, [r1, #4]
 80067b0:	0799      	lsls	r1, r3, #30
 80067b2:	d506      	bpl.n	80067c2 <UART_AdvFeatureConfig+0x3a>
 80067b4:	6801      	ldr	r1, [r0, #0]
 80067b6:	6ac4      	ldr	r4, [r0, #44]	@ 0x2c
 80067b8:	684a      	ldr	r2, [r1, #4]
 80067ba:	f422 3280 	bic.w	r2, r2, #65536	@ 0x10000
 80067be:	4322      	orrs	r2, r4
 80067c0:	604a      	str	r2, [r1, #4]
 80067c2:	075a      	lsls	r2, r3, #29
 80067c4:	d506      	bpl.n	80067d4 <UART_AdvFeatureConfig+0x4c>
 80067c6:	6801      	ldr	r1, [r0, #0]
 80067c8:	6b04      	ldr	r4, [r0, #48]	@ 0x30
 80067ca:	684a      	ldr	r2, [r1, #4]
 80067cc:	f422 2280 	bic.w	r2, r2, #262144	@ 0x40000
 80067d0:	4322      	orrs	r2, r4
 80067d2:	604a      	str	r2, [r1, #4]
 80067d4:	06dc      	lsls	r4, r3, #27
 80067d6:	d506      	bpl.n	80067e6 <UART_AdvFeatureConfig+0x5e>
 80067d8:	6801      	ldr	r1, [r0, #0]
 80067da:	6b84      	ldr	r4, [r0, #56]	@ 0x38
 80067dc:	688a      	ldr	r2, [r1, #8]
 80067de:	f422 5280 	bic.w	r2, r2, #4096	@ 0x1000
 80067e2:	4322      	orrs	r2, r4
 80067e4:	608a      	str	r2, [r1, #8]
 80067e6:	0699      	lsls	r1, r3, #26
 80067e8:	d506      	bpl.n	80067f8 <UART_AdvFeatureConfig+0x70>
 80067ea:	6801      	ldr	r1, [r0, #0]
 80067ec:	6bc4      	ldr	r4, [r0, #60]	@ 0x3c
 80067ee:	688a      	ldr	r2, [r1, #8]
 80067f0:	f422 5200 	bic.w	r2, r2, #8192	@ 0x2000
 80067f4:	4322      	orrs	r2, r4
 80067f6:	608a      	str	r2, [r1, #8]
 80067f8:	065a      	lsls	r2, r3, #25
 80067fa:	d50f      	bpl.n	800681c <UART_AdvFeatureConfig+0x94>
 80067fc:	6801      	ldr	r1, [r0, #0]
 80067fe:	6c04      	ldr	r4, [r0, #64]	@ 0x40
 8006800:	684a      	ldr	r2, [r1, #4]
 8006802:	f422 1280 	bic.w	r2, r2, #1048576	@ 0x100000
 8006806:	4322      	orrs	r2, r4
 8006808:	f5b4 1f80 	cmp.w	r4, #1048576	@ 0x100000
 800680c:	604a      	str	r2, [r1, #4]
 800680e:	d105      	bne.n	800681c <UART_AdvFeatureConfig+0x94>
 8006810:	684a      	ldr	r2, [r1, #4]
 8006812:	6c44      	ldr	r4, [r0, #68]	@ 0x44
 8006814:	f422 02c0 	bic.w	r2, r2, #6291456	@ 0x600000
 8006818:	4322      	orrs	r2, r4
 800681a:	604a      	str	r2, [r1, #4]
 800681c:	061b      	lsls	r3, r3, #24
 800681e:	d506      	bpl.n	800682e <UART_AdvFeatureConfig+0xa6>
 8006820:	6802      	ldr	r2, [r0, #0]
 8006822:	6c81      	ldr	r1, [r0, #72]	@ 0x48
 8006824:	6853      	ldr	r3, [r2, #4]
 8006826:	f423 2300 	bic.w	r3, r3, #524288	@ 0x80000
 800682a:	430b      	orrs	r3, r1
 800682c:	6053      	str	r3, [r2, #4]
 800682e:	bd10      	pop	{r4, pc}

08006830 <UART_WaitOnFlagUntilTimeout>:
 8006830:	e92d 43f8 	stmdb	sp!, {r3, r4, r5, r6, r7, r8, r9, lr}
 8006834:	f8dd 9020 	ldr.w	r9, [sp, #32]
 8006838:	4604      	mov	r4, r0
 800683a:	460d      	mov	r5, r1
 800683c:	4617      	mov	r7, r2
 800683e:	4698      	mov	r8, r3
 8006840:	6822      	ldr	r2, [r4, #0]
 8006842:	69d3      	ldr	r3, [r2, #28]
 8006844:	ea35 0303 	bics.w	r3, r5, r3
 8006848:	bf0c      	ite	eq
 800684a:	2301      	moveq	r3, #1
 800684c:	2300      	movne	r3, #0
 800684e:	42bb      	cmp	r3, r7
 8006850:	d001      	beq.n	8006856 <UART_WaitOnFlagUntilTimeout+0x26>
 8006852:	2000      	movs	r0, #0
 8006854:	e022      	b.n	800689c <UART_WaitOnFlagUntilTimeout+0x6c>
 8006856:	f1b9 3fff 	cmp.w	r9, #4294967295
 800685a:	d0f2      	beq.n	8006842 <UART_WaitOnFlagUntilTimeout+0x12>
 800685c:	f7fd fa00 	bl	8003c60 <HAL_GetTick>
 8006860:	eba0 0008 	sub.w	r0, r0, r8
 8006864:	4548      	cmp	r0, r9
 8006866:	d829      	bhi.n	80068bc <UART_WaitOnFlagUntilTimeout+0x8c>
 8006868:	f1b9 0f00 	cmp.w	r9, #0
 800686c:	d026      	beq.n	80068bc <UART_WaitOnFlagUntilTimeout+0x8c>
 800686e:	6821      	ldr	r1, [r4, #0]
 8006870:	680b      	ldr	r3, [r1, #0]
 8006872:	075a      	lsls	r2, r3, #29
 8006874:	d5e4      	bpl.n	8006840 <UART_WaitOnFlagUntilTimeout+0x10>
 8006876:	2d80      	cmp	r5, #128	@ 0x80
 8006878:	d0e2      	beq.n	8006840 <UART_WaitOnFlagUntilTimeout+0x10>
 800687a:	2d40      	cmp	r5, #64	@ 0x40
 800687c:	d0e0      	beq.n	8006840 <UART_WaitOnFlagUntilTimeout+0x10>
 800687e:	69ce      	ldr	r6, [r1, #28]
 8006880:	f016 0608 	ands.w	r6, r6, #8
 8006884:	d00c      	beq.n	80068a0 <UART_WaitOnFlagUntilTimeout+0x70>
 8006886:	2508      	movs	r5, #8
 8006888:	4620      	mov	r0, r4
 800688a:	620d      	str	r5, [r1, #32]
 800688c:	f7ff fc35 	bl	80060fa <UART_EndRxTransfer>
 8006890:	2300      	movs	r3, #0
 8006892:	f8c4 5084 	str.w	r5, [r4, #132]	@ 0x84
 8006896:	f884 3078 	strb.w	r3, [r4, #120]	@ 0x78
 800689a:	2001      	movs	r0, #1
 800689c:	e8bd 83f8 	ldmia.w	sp!, {r3, r4, r5, r6, r7, r8, r9, pc}
 80068a0:	69cb      	ldr	r3, [r1, #28]
 80068a2:	051b      	lsls	r3, r3, #20
 80068a4:	d5cc      	bpl.n	8006840 <UART_WaitOnFlagUntilTimeout+0x10>
 80068a6:	f44f 6300 	mov.w	r3, #2048	@ 0x800
 80068aa:	620b      	str	r3, [r1, #32]
 80068ac:	4620      	mov	r0, r4
 80068ae:	f7ff fc24 	bl	80060fa <UART_EndRxTransfer>
 80068b2:	2320      	movs	r3, #32
 80068b4:	f8c4 3084 	str.w	r3, [r4, #132]	@ 0x84
 80068b8:	f884 6078 	strb.w	r6, [r4, #120]	@ 0x78
 80068bc:	2003      	movs	r0, #3
 80068be:	e7ed      	b.n	800689c <UART_WaitOnFlagUntilTimeout+0x6c>

080068c0 <HAL_UART_Transmit>:
 80068c0:	e92d 43f7 	stmdb	sp!, {r0, r1, r2, r4, r5, r6, r7, r8, r9, lr}
 80068c4:	4698      	mov	r8, r3
 80068c6:	6fc3      	ldr	r3, [r0, #124]	@ 0x7c
 80068c8:	2b20      	cmp	r3, #32
 80068ca:	4604      	mov	r4, r0
 80068cc:	460e      	mov	r6, r1
 80068ce:	4617      	mov	r7, r2
 80068d0:	d143      	bne.n	800695a <HAL_UART_Transmit+0x9a>
 80068d2:	2900      	cmp	r1, #0
 80068d4:	d043      	beq.n	800695e <HAL_UART_Transmit+0x9e>
 80068d6:	2a00      	cmp	r2, #0
 80068d8:	d041      	beq.n	800695e <HAL_UART_Transmit+0x9e>
 80068da:	2321      	movs	r3, #33	@ 0x21
 80068dc:	2500      	movs	r5, #0
 80068de:	f8c0 5084 	str.w	r5, [r0, #132]	@ 0x84
 80068e2:	67c3      	str	r3, [r0, #124]	@ 0x7c
 80068e4:	f7fd f9bc 	bl	8003c60 <HAL_GetTick>
 80068e8:	68a3      	ldr	r3, [r4, #8]
 80068ea:	f8a4 7050 	strh.w	r7, [r4, #80]	@ 0x50
 80068ee:	f5b3 5f80 	cmp.w	r3, #4096	@ 0x1000
 80068f2:	4681      	mov	r9, r0
 80068f4:	f8a4 7052 	strh.w	r7, [r4, #82]	@ 0x52
 80068f8:	d103      	bne.n	8006902 <HAL_UART_Transmit+0x42>
 80068fa:	6923      	ldr	r3, [r4, #16]
 80068fc:	b90b      	cbnz	r3, 8006902 <HAL_UART_Transmit+0x42>
 80068fe:	4635      	mov	r5, r6
 8006900:	461e      	mov	r6, r3
 8006902:	f8b4 2052 	ldrh.w	r2, [r4, #82]	@ 0x52
 8006906:	f8cd 8000 	str.w	r8, [sp]
 800690a:	b292      	uxth	r2, r2
 800690c:	464b      	mov	r3, r9
 800690e:	b93a      	cbnz	r2, 8006920 <HAL_UART_Transmit+0x60>
 8006910:	2140      	movs	r1, #64	@ 0x40
 8006912:	4620      	mov	r0, r4
 8006914:	f7ff ff8c 	bl	8006830 <UART_WaitOnFlagUntilTimeout>
 8006918:	2320      	movs	r3, #32
 800691a:	b940      	cbnz	r0, 800692e <HAL_UART_Transmit+0x6e>
 800691c:	67e3      	str	r3, [r4, #124]	@ 0x7c
 800691e:	e008      	b.n	8006932 <HAL_UART_Transmit+0x72>
 8006920:	2200      	movs	r2, #0
 8006922:	2180      	movs	r1, #128	@ 0x80
 8006924:	4620      	mov	r0, r4
 8006926:	f7ff ff83 	bl	8006830 <UART_WaitOnFlagUntilTimeout>
 800692a:	b128      	cbz	r0, 8006938 <HAL_UART_Transmit+0x78>
 800692c:	2320      	movs	r3, #32
 800692e:	67e3      	str	r3, [r4, #124]	@ 0x7c
 8006930:	2003      	movs	r0, #3
 8006932:	b003      	add	sp, #12
 8006934:	e8bd 83f0 	ldmia.w	sp!, {r4, r5, r6, r7, r8, r9, pc}
 8006938:	6822      	ldr	r2, [r4, #0]
 800693a:	b95e      	cbnz	r6, 8006954 <HAL_UART_Transmit+0x94>
 800693c:	f835 3b02 	ldrh.w	r3, [r5], #2
 8006940:	f3c3 0308 	ubfx	r3, r3, #0, #9
 8006944:	8513      	strh	r3, [r2, #40]	@ 0x28
 8006946:	f8b4 2052 	ldrh.w	r2, [r4, #82]	@ 0x52
 800694a:	3a01      	subs	r2, #1
 800694c:	b292      	uxth	r2, r2
 800694e:	f8a4 2052 	strh.w	r2, [r4, #82]	@ 0x52
 8006952:	e7d6      	b.n	8006902 <HAL_UART_Transmit+0x42>
 8006954:	f816 3b01 	ldrb.w	r3, [r6], #1
 8006958:	e7f4      	b.n	8006944 <HAL_UART_Transmit+0x84>
 800695a:	2002      	movs	r0, #2
 800695c:	e7e9      	b.n	8006932 <HAL_UART_Transmit+0x72>
 800695e:	2001      	movs	r0, #1
 8006960:	e7e7      	b.n	8006932 <HAL_UART_Transmit+0x72>

08006962 <UART_CheckIdleState>:
 8006962:	b573      	push	{r0, r1, r4, r5, r6, lr}
 8006964:	4604      	mov	r4, r0
 8006966:	2600      	movs	r6, #0
 8006968:	f8c0 6084 	str.w	r6, [r0, #132]	@ 0x84
 800696c:	f7fd f978 	bl	8003c60 <HAL_GetTick>
 8006970:	6823      	ldr	r3, [r4, #0]
 8006972:	681b      	ldr	r3, [r3, #0]
 8006974:	071a      	lsls	r2, r3, #28
 8006976:	4605      	mov	r5, r0
 8006978:	d51b      	bpl.n	80069b2 <UART_CheckIdleState+0x50>
 800697a:	f06f 437e 	mvn.w	r3, #4261412864	@ 0xfe000000
 800697e:	9300      	str	r3, [sp, #0]
 8006980:	4632      	mov	r2, r6
 8006982:	4603      	mov	r3, r0
 8006984:	f44f 1100 	mov.w	r1, #2097152	@ 0x200000
 8006988:	4620      	mov	r0, r4
 800698a:	f7ff ff51 	bl	8006830 <UART_WaitOnFlagUntilTimeout>
 800698e:	b180      	cbz	r0, 80069b2 <UART_CheckIdleState+0x50>
 8006990:	6822      	ldr	r2, [r4, #0]
 8006992:	e852 3f00 	ldrex	r3, [r2]
 8006996:	f023 0380 	bic.w	r3, r3, #128	@ 0x80
 800699a:	e842 3100 	strex	r1, r3, [r2]
 800699e:	2900      	cmp	r1, #0
 80069a0:	d1f6      	bne.n	8006990 <UART_CheckIdleState+0x2e>
 80069a2:	2320      	movs	r3, #32
 80069a4:	67e3      	str	r3, [r4, #124]	@ 0x7c
 80069a6:	2003      	movs	r0, #3
 80069a8:	2300      	movs	r3, #0
 80069aa:	f884 3078 	strb.w	r3, [r4, #120]	@ 0x78
 80069ae:	b002      	add	sp, #8
 80069b0:	bd70      	pop	{r4, r5, r6, pc}
 80069b2:	6823      	ldr	r3, [r4, #0]
 80069b4:	681b      	ldr	r3, [r3, #0]
 80069b6:	075b      	lsls	r3, r3, #29
 80069b8:	d524      	bpl.n	8006a04 <UART_CheckIdleState+0xa2>
 80069ba:	f06f 437e 	mvn.w	r3, #4261412864	@ 0xfe000000
 80069be:	9300      	str	r3, [sp, #0]
 80069c0:	2200      	movs	r2, #0
 80069c2:	462b      	mov	r3, r5
 80069c4:	f44f 0180 	mov.w	r1, #4194304	@ 0x400000
 80069c8:	4620      	mov	r0, r4
 80069ca:	f7ff ff31 	bl	8006830 <UART_WaitOnFlagUntilTimeout>
 80069ce:	b1c8      	cbz	r0, 8006a04 <UART_CheckIdleState+0xa2>
 80069d0:	6822      	ldr	r2, [r4, #0]
 80069d2:	e852 3f00 	ldrex	r3, [r2]
 80069d6:	f423 7390 	bic.w	r3, r3, #288	@ 0x120
 80069da:	e842 3100 	strex	r1, r3, [r2]
 80069de:	6822      	ldr	r2, [r4, #0]
 80069e0:	2900      	cmp	r1, #0
 80069e2:	d1f5      	bne.n	80069d0 <UART_CheckIdleState+0x6e>
 80069e4:	f102 0308 	add.w	r3, r2, #8
 80069e8:	e853 3f00 	ldrex	r3, [r3]
 80069ec:	f023 0301 	bic.w	r3, r3, #1
 80069f0:	f102 0008 	add.w	r0, r2, #8
 80069f4:	e840 3100 	strex	r1, r3, [r0]
 80069f8:	2900      	cmp	r1, #0
 80069fa:	d1f3      	bne.n	80069e4 <UART_CheckIdleState+0x82>
 80069fc:	2320      	movs	r3, #32
 80069fe:	f8c4 3080 	str.w	r3, [r4, #128]	@ 0x80
 8006a02:	e7d0      	b.n	80069a6 <UART_CheckIdleState+0x44>
 8006a04:	2320      	movs	r3, #32
 8006a06:	2000      	movs	r0, #0
 8006a08:	67e3      	str	r3, [r4, #124]	@ 0x7c
 8006a0a:	f8c4 3080 	str.w	r3, [r4, #128]	@ 0x80
 8006a0e:	6620      	str	r0, [r4, #96]	@ 0x60
 8006a10:	6660      	str	r0, [r4, #100]	@ 0x64
 8006a12:	e7c9      	b.n	80069a8 <UART_CheckIdleState+0x46>

08006a14 <HAL_UART_Init>:
 8006a14:	b510      	push	{r4, lr}
 8006a16:	4604      	mov	r4, r0
 8006a18:	b340      	cbz	r0, 8006a6c <HAL_UART_Init+0x58>
 8006a1a:	6fc3      	ldr	r3, [r0, #124]	@ 0x7c
 8006a1c:	b91b      	cbnz	r3, 8006a26 <HAL_UART_Init+0x12>
 8006a1e:	f880 3078 	strb.w	r3, [r0, #120]	@ 0x78
 8006a22:	f7fd f817 	bl	8003a54 <HAL_UART_MspInit>
 8006a26:	6822      	ldr	r2, [r4, #0]
 8006a28:	2324      	movs	r3, #36	@ 0x24
 8006a2a:	67e3      	str	r3, [r4, #124]	@ 0x7c
 8006a2c:	6813      	ldr	r3, [r2, #0]
 8006a2e:	f023 0301 	bic.w	r3, r3, #1
 8006a32:	6013      	str	r3, [r2, #0]
 8006a34:	6a63      	ldr	r3, [r4, #36]	@ 0x24
 8006a36:	b113      	cbz	r3, 8006a3e <HAL_UART_Init+0x2a>
 8006a38:	4620      	mov	r0, r4
 8006a3a:	f7ff fea5 	bl	8006788 <UART_AdvFeatureConfig>
 8006a3e:	4620      	mov	r0, r4
 8006a40:	f7ff fdbc 	bl	80065bc <UART_SetConfig>
 8006a44:	2801      	cmp	r0, #1
 8006a46:	d011      	beq.n	8006a6c <HAL_UART_Init+0x58>
 8006a48:	6823      	ldr	r3, [r4, #0]
 8006a4a:	685a      	ldr	r2, [r3, #4]
 8006a4c:	f422 4290 	bic.w	r2, r2, #18432	@ 0x4800
 8006a50:	605a      	str	r2, [r3, #4]
 8006a52:	689a      	ldr	r2, [r3, #8]
 8006a54:	f022 022a 	bic.w	r2, r2, #42	@ 0x2a
 8006a58:	609a      	str	r2, [r3, #8]
 8006a5a:	681a      	ldr	r2, [r3, #0]
 8006a5c:	f042 0201 	orr.w	r2, r2, #1
 8006a60:	4620      	mov	r0, r4
 8006a62:	601a      	str	r2, [r3, #0]
 8006a64:	e8bd 4010 	ldmia.w	sp!, {r4, lr}
 8006a68:	f7ff bf7b 	b.w	8006962 <UART_CheckIdleState>
 8006a6c:	2001      	movs	r0, #1
 8006a6e:	bd10      	pop	{r4, pc}

08006a70 <UART_Start_Receive_DMA>:
 8006a70:	b570      	push	{r4, r5, r6, lr}
 8006a72:	4613      	mov	r3, r2
 8006a74:	4604      	mov	r4, r0
 8006a76:	f8a0 2058 	strh.w	r2, [r0, #88]	@ 0x58
 8006a7a:	2200      	movs	r2, #0
 8006a7c:	6541      	str	r1, [r0, #84]	@ 0x54
 8006a7e:	f8c0 2084 	str.w	r2, [r0, #132]	@ 0x84
 8006a82:	2022      	movs	r0, #34	@ 0x22
 8006a84:	f8c4 0080 	str.w	r0, [r4, #128]	@ 0x80
 8006a88:	6f60      	ldr	r0, [r4, #116]	@ 0x74
 8006a8a:	6825      	ldr	r5, [r4, #0]
 8006a8c:	b1a0      	cbz	r0, 8006ab8 <UART_Start_Receive_DMA+0x48>
 8006a8e:	4e1c      	ldr	r6, [pc, #112]	@ (8006b00 <UART_Start_Receive_DMA+0x90>)
 8006a90:	62c6      	str	r6, [r0, #44]	@ 0x2c
 8006a92:	4e1c      	ldr	r6, [pc, #112]	@ (8006b04 <UART_Start_Receive_DMA+0x94>)
 8006a94:	6306      	str	r6, [r0, #48]	@ 0x30
 8006a96:	4e1c      	ldr	r6, [pc, #112]	@ (8006b08 <UART_Start_Receive_DMA+0x98>)
 8006a98:	e9c0 620d 	strd	r6, r2, [r0, #52]	@ 0x34
 8006a9c:	460a      	mov	r2, r1
 8006a9e:	f105 0124 	add.w	r1, r5, #36	@ 0x24
 8006aa2:	f7fd fe0b 	bl	80046bc <HAL_DMA_Start_IT>
 8006aa6:	b138      	cbz	r0, 8006ab8 <UART_Start_Receive_DMA+0x48>
 8006aa8:	2310      	movs	r3, #16
 8006aaa:	f8c4 3084 	str.w	r3, [r4, #132]	@ 0x84
 8006aae:	2320      	movs	r3, #32
 8006ab0:	f8c4 3080 	str.w	r3, [r4, #128]	@ 0x80
 8006ab4:	2001      	movs	r0, #1
 8006ab6:	bd70      	pop	{r4, r5, r6, pc}
 8006ab8:	6922      	ldr	r2, [r4, #16]
 8006aba:	6823      	ldr	r3, [r4, #0]
 8006abc:	b13a      	cbz	r2, 8006ace <UART_Start_Receive_DMA+0x5e>
 8006abe:	e853 2f00 	ldrex	r2, [r3]
 8006ac2:	f442 7280 	orr.w	r2, r2, #256	@ 0x100
 8006ac6:	e843 2100 	strex	r1, r2, [r3]
 8006aca:	2900      	cmp	r1, #0
 8006acc:	d1f7      	bne.n	8006abe <UART_Start_Receive_DMA+0x4e>
 8006ace:	f103 0208 	add.w	r2, r3, #8
 8006ad2:	e852 2f00 	ldrex	r2, [r2]
 8006ad6:	f042 0201 	orr.w	r2, r2, #1
 8006ada:	f103 0008 	add.w	r0, r3, #8
 8006ade:	e840 2100 	strex	r1, r2, [r0]
 8006ae2:	2900      	cmp	r1, #0
 8006ae4:	d1f3      	bne.n	8006ace <UART_Start_Receive_DMA+0x5e>
 8006ae6:	f103 0208 	add.w	r2, r3, #8
 8006aea:	e852 2f00 	ldrex	r2, [r2]
 8006aee:	f042 0240 	orr.w	r2, r2, #64	@ 0x40
 8006af2:	f103 0108 	add.w	r1, r3, #8
 8006af6:	e841 2000 	strex	r0, r2, [r1]
 8006afa:	2800      	cmp	r0, #0
 8006afc:	d1f3      	bne.n	8006ae6 <UART_Start_Receive_DMA+0x76>
 8006afe:	e7da      	b.n	8006ab6 <UART_Start_Receive_DMA+0x46>
 8006b00:	0800652d 	.word	0x0800652d
 8006b04:	0800650d 	.word	0x0800650d
 8006b08:	080061f9 	.word	0x080061f9

08006b0c <HAL_UARTEx_WakeupCallback>:
 8006b0c:	4770      	bx	lr

08006b0e <HAL_UARTEx_ReceiveToIdle_DMA>:
 8006b0e:	b570      	push	{r4, r5, r6, lr}
 8006b10:	f8d0 6080 	ldr.w	r6, [r0, #128]	@ 0x80
 8006b14:	2e20      	cmp	r6, #32
 8006b16:	4604      	mov	r4, r0
 8006b18:	d11c      	bne.n	8006b54 <HAL_UARTEx_ReceiveToIdle_DMA+0x46>
 8006b1a:	b909      	cbnz	r1, 8006b20 <HAL_UARTEx_ReceiveToIdle_DMA+0x12>
 8006b1c:	2001      	movs	r0, #1
 8006b1e:	bd70      	pop	{r4, r5, r6, pc}
 8006b20:	2a00      	cmp	r2, #0
 8006b22:	d0fb      	beq.n	8006b1c <HAL_UARTEx_ReceiveToIdle_DMA+0xe>
 8006b24:	2301      	movs	r3, #1
 8006b26:	6603      	str	r3, [r0, #96]	@ 0x60
 8006b28:	2300      	movs	r3, #0
 8006b2a:	6643      	str	r3, [r0, #100]	@ 0x64
 8006b2c:	f7ff ffa0 	bl	8006a70 <UART_Start_Receive_DMA>
 8006b30:	2800      	cmp	r0, #0
 8006b32:	d1f4      	bne.n	8006b1e <HAL_UARTEx_ReceiveToIdle_DMA+0x10>
 8006b34:	6e23      	ldr	r3, [r4, #96]	@ 0x60
 8006b36:	2b01      	cmp	r3, #1
 8006b38:	d1f0      	bne.n	8006b1c <HAL_UARTEx_ReceiveToIdle_DMA+0xe>
 8006b3a:	6823      	ldr	r3, [r4, #0]
 8006b3c:	2210      	movs	r2, #16
 8006b3e:	621a      	str	r2, [r3, #32]
 8006b40:	6822      	ldr	r2, [r4, #0]
 8006b42:	e852 3f00 	ldrex	r3, [r2]
 8006b46:	f043 0310 	orr.w	r3, r3, #16
 8006b4a:	e842 3100 	strex	r1, r3, [r2]
 8006b4e:	2900      	cmp	r1, #0
 8006b50:	d1f7      	bne.n	8006b42 <HAL_UARTEx_ReceiveToIdle_DMA+0x34>
 8006b52:	e7e4      	b.n	8006b1e <HAL_UARTEx_ReceiveToIdle_DMA+0x10>
 8006b54:	2002      	movs	r0, #2
 8006b56:	e7e2      	b.n	8006b1e <HAL_UARTEx_ReceiveToIdle_DMA+0x10>

08006b58 <memset>:
 8006b58:	4402      	add	r2, r0
 8006b5a:	4603      	mov	r3, r0
 8006b5c:	4293      	cmp	r3, r2
 8006b5e:	d100      	bne.n	8006b62 <memset+0xa>
 8006b60:	4770      	bx	lr
 8006b62:	f803 1b01 	strb.w	r1, [r3], #1
 8006b66:	e7f9      	b.n	8006b5c <memset+0x4>

08006b68 <__libc_init_array>:
 8006b68:	b570      	push	{r4, r5, r6, lr}
 8006b6a:	4d0d      	ldr	r5, [pc, #52]	@ (8006ba0 <__libc_init_array+0x38>)
 8006b6c:	4c0d      	ldr	r4, [pc, #52]	@ (8006ba4 <__libc_init_array+0x3c>)
 8006b6e:	1b64      	subs	r4, r4, r5
 8006b70:	10a4      	asrs	r4, r4, #2
 8006b72:	2600      	movs	r6, #0
 8006b74:	42a6      	cmp	r6, r4
 8006b76:	d109      	bne.n	8006b8c <__libc_init_array+0x24>
 8006b78:	4d0b      	ldr	r5, [pc, #44]	@ (8006ba8 <__libc_init_array+0x40>)
 8006b7a:	4c0c      	ldr	r4, [pc, #48]	@ (8006bac <__libc_init_array+0x44>)
 8006b7c:	f000 f826 	bl	8006bcc <_init>
 8006b80:	1b64      	subs	r4, r4, r5
 8006b82:	10a4      	asrs	r4, r4, #2
 8006b84:	2600      	movs	r6, #0
 8006b86:	42a6      	cmp	r6, r4
 8006b88:	d105      	bne.n	8006b96 <__libc_init_array+0x2e>
 8006b8a:	bd70      	pop	{r4, r5, r6, pc}
 8006b8c:	f855 3b04 	ldr.w	r3, [r5], #4
 8006b90:	4798      	blx	r3
 8006b92:	3601      	adds	r6, #1
 8006b94:	e7ee      	b.n	8006b74 <__libc_init_array+0xc>
 8006b96:	f855 3b04 	ldr.w	r3, [r5], #4
 8006b9a:	4798      	blx	r3
 8006b9c:	3601      	adds	r6, #1
 8006b9e:	e7f2      	b.n	8006b86 <__libc_init_array+0x1e>
 8006ba0:	08006c3c 	.word	0x08006c3c
 8006ba4:	08006c3c 	.word	0x08006c3c
 8006ba8:	08006c3c 	.word	0x08006c3c
 8006bac:	08006c40 	.word	0x08006c40

08006bb0 <memcpy>:
 8006bb0:	440a      	add	r2, r1
 8006bb2:	4291      	cmp	r1, r2
 8006bb4:	f100 33ff 	add.w	r3, r0, #4294967295
 8006bb8:	d100      	bne.n	8006bbc <memcpy+0xc>
 8006bba:	4770      	bx	lr
 8006bbc:	b510      	push	{r4, lr}
 8006bbe:	f811 4b01 	ldrb.w	r4, [r1], #1
 8006bc2:	f803 4f01 	strb.w	r4, [r3, #1]!
 8006bc6:	4291      	cmp	r1, r2
 8006bc8:	d1f9      	bne.n	8006bbe <memcpy+0xe>
 8006bca:	bd10      	pop	{r4, pc}

08006bcc <_init>:
 8006bcc:	b5f8      	push	{r3, r4, r5, r6, r7, lr}
 8006bce:	bf00      	nop
 8006bd0:	bcf8      	pop	{r3, r4, r5, r6, r7}
 8006bd2:	bc08      	pop	{r3}
 8006bd4:	469e      	mov	lr, r3
 8006bd6:	4770      	bx	lr

08006bd8 <_fini>:
 8006bd8:	b5f8      	push	{r3, r4, r5, r6, r7, lr}
 8006bda:	bf00      	nop
 8006bdc:	bcf8      	pop	{r3, r4, r5, r6, r7}
 8006bde:	bc08      	pop	{r3}
 8006be0:	469e      	mov	lr, r3
 8006be2:	4770      	bx	lr
